Microchip MPLAB XC8 Compiler V1.33 ()

Linker command line:

--edf=C:\Program Files (x86)\Microchip\xc8\v1.33\dat\en_msgs.txt -cs \
  -h+dist/Offset/production\LoRaMote.X.production.sym \
  --cmf=dist/Offset/production\LoRaMote.X.production.cmf -z -Q18LF25K50 \
  -oC:\Users\C14312\AppData\Local\Temp\s9oc.6 \
  -Mdist/Offset/production/LoRaMote.X.production.map -E1 -ver=XC8 \
  -ASTACK=0580h-07ffh -pstack=STACK \
  -ACODE=01000h-01005h,01008h-01015h,01018h-07FFFh \
  -ACONST=01000h-01005h,01008h-01015h,01018h-07FFFh \
  -ASMALLCONST=01000h-01005h,01008h-01015h,01018h-010FFh,01100h-011FFhx111 \
  -AMEDIUMCONST=01000h-01005h,01008h-01015h,01018h-07FFFh -ACOMRAM=01h-05Fh \
  -AABS1=00h-07FFh -ABIGRAM=01h-07FFh -ARAM=060h-0FFh,0100h-01FFhx7 \
  -ABANK0=060h-0FFh -ABANK1=0100h-01FFh -ABANK2=0200h-02FFh \
  -ABANK3=0300h-03FFh -ABANK4=0400h-04FFh -ABANK5=0500h-05FFh \
  -ABANK6=0600h-06FFh -ABANK7=0700h-07FFh -ASFR=0F53h-0F5Fh,0F60h-0FFFh \
  -preset_vec=01000h,intcode=01008h,intcodelo,powerup,init,end_init \
  -pramtop=0800h -psmallconst=SMALLCONST -pmediumconst=MEDIUMCONST \
  -pconst=CONST -AFARRAM=00h-00h -ACONFIG=0300000h-030000Dh -pconfig=CONFIG \
  -AIDLOC=0200000h-0200007h -pidloc=IDLOC -AEEDATA=0F00000h-0F000FFh \
  -peeprom_data=EEDATA \
  -prdata=COMRAM,nvrram=COMRAM,nvbit=COMRAM,rbss=COMRAM,rbit=COMRAM \
  -pfarbss=FARRAM,fardata=FARRAM,nvFARRAM=FARRAM \
  -pintsave_regs=BIGRAM,bigbss=BIGRAM,bigdata=BIGRAM -pbss=RAM \
  -pidata=CODE,irdata=CODE,ibigdata=CODE,ifardata=CODE \
  C:\Users\C14312\AppData\Local\Temp\s9oc.obj \
  dist/Offset/production\LoRaMote.X.production.obj 

Object code version is 3.11

Machine type is 18LF25K50

Call graph: (short form)




                Name                               Link     Load   Length Selector   Space Scale
C:\Users\C14312\AppData\Local\Temp\s9oc.obj
                end_init                           10A6     10A6        4      804       0
                reset_vec                          1000     1000        4      800       0
                idloc                            200000   200000        8   200000       0
                config                           300000   300000        E   300000       0
dist/Offset/production\LoRaMote.X.production.obj
                intcode                            1008     1008       9E      804       0
                mediumconst                        7640     7640      9C0     3B20       0
                text121                            33B6     33B6        4     19DB       0
                text120                            3684     3684       2A     1B42       0
                text119                            36AE     36AE       2A     1B57       0
                text118                            34F8     34F8       18     1A7C       0
                text117                            33BA     33BA        4     19DD       0
                text116                            41BC     41BC       76     20DE       0
                text115                            37D8     37D8       2E     1BEC       0
                text114                            3F44     3F44       66     1FA2       0
                text113                            4DA8     4DA8       C0     26D4       0
                text112                            4E68     4E68       CE     2734       0
                text111                            4AC8     4AC8       B6     2564       0
                text110                            5A32     5A32      11A     2D19       0
                text109                            3CD2     3CD2       52     1E69       0
                text108                            46EC     46EC       9C     2376       0
                text107                            44AA     44AA       8C     2255       0
                text106                            3A86     3A86       42     1D43       0
                text105                            48C6     48C6       A2     2463       0
                text104                            3C82     3C82       50     1E41       0
                text103                            39CE     39CE       3C     1CE7       0
                text102                            3B9E     3B9E       4C     1DCF       0
                text101                            5CF6     5CF6      202     2E7B       0
                text100                            5824     5824      104     2C12       0
                text99                             43A0     43A0       84     21D0       0
                text98                             3780     3780       2C     1BC0       0
                text97                             4968     4968       AE     24B4       0
                text96                             4826     4826       A0     2413       0
                text95                             4536     4536       8E     229B       0
                text94                             5008     5008       D4     2804       0
                text93                             3EE2     3EE2       62     1F71       0
                text92                             4CEE     4CEE       BA     2677       0
                text91                             3A0A     3A0A       3E     1D05       0
                text90                             3596     3596       1E     1ACB       0
                text89                             3614     3614       24     1B0A       0
                text88                             50DC     50DC       D8     286E       0
                text87                             5722     5722      102     2B91       0
                text86                             33D4     33D4        6     19EA       0
                text84                             34B8     34B8       14     1A5C       0
                text83                             33DA     33DA        8     19ED       0
                text82                             34CC     34CC       16     1A66       0
                text81                             345E     345E       12     1A2F       0
                text80                             3806     3806       2E     1C03       0
                text79                             34E2     34E2       16     1A71       0
                text78                             3AC8     3AC8       46     1D64       0
                text77                             3430     3430        E     1A18       0
                text76                             33BE     33BE        4     19DF       0
                text75                             37AC     37AC       2C     1BD6       0
                text74                             33C2     33C2        4     19E1       0
                text73                             343E     343E       10     1A1F       0
                text72                             35B4     35B4       20     1ADA       0
                text71                             36D8     36D8       2A     1B6C       0
                text70                             3834     3834       2E     1C1A       0
                text69                             51B4     51B4       D8     28DA       0
                text68                             4788     4788       9E     23C4       0
                text67                             5622     5622      100     2B11       0
                text66                             3862     3862       2E     1C31       0
                text65                             38F2     38F2       36     1C79       0
                text64                             1004     1004        2      800       0
                text63                             33C6     33C6        4     19E3       0
                text62                             45C4     45C4       94     22E2       0
                text61                             3542     3542       1C     1AA1       0
                text60                             4B7E     4B7E       B8     25BF       0
                text59                             344E     344E       10     1A27       0
                text58                             340C     340C        C     1A06       0
                text57                             3528     3528       1A     1A94       0
                text56                             3470     3470       12     1A38       0
                text55                             3402     3402        A     1A01       0
                text54                             414C     414C       70     20A6       0
                text53                             355E     355E       1C     1AAF       0
                text52                             3510     3510       18     1A88       0
                text51                             4010     4010       68     2008       0
                text50                             4232     4232       76     2119       0
                text49                             33E2     33E2        8     19F1       0
                text48                             3418     3418        C     1A0C       0
                text47                             33CA     33CA        4     19E5       0
                text46                             3A48     3A48       3E     1D24       0
                text45                             5364     5364       DE     29B2       0
                text44                             3928     3928       36     1C94       0
                text43                             33EA     33EA        8     19F5       0
                text42                             33F2     33F2        8     19F9       0
                text41                             3702     3702       2A     1B81       0
                text40                             3424     3424        C     1A12       0
                text39                             372C     372C       2A     1B96       0
                text38                             5442     5442       EC     2A21       0
                text37                             4424     4424       86     2212       0
                text36                             40E0     40E0       6C     2070       0
                text35                             5EF8     5EF8      540     2F7C       0
                text34                             395E     395E       38     1CAF       0
                text33                             3B54     3B54       4A     1DAA       0
                text32                             35D4     35D4       20     1AEA       0
                text31                             33FA     33FA        8     19FD       0
                text30                             3890     3890       2E     1C48       0
                text29                             3BEA     3BEA       4C     1DF5       0
                text28                             3FAA     3FAA       66     1FD5       0
                text27                             357A     357A       1C     1ABD       0
                text26                             3482     3482       12     1A41       0
                text25                             528C     528C       D8     2946       0
                text24                             3494     3494       12     1A4A       0
                text23                             34A6     34A6       12     1A53       0
                text22                             35F4     35F4       20     1AFA       0
                text21                             4322     4322       7E     2191       0
                text20                             5928     5928      10A     2C94       0
                text19                             38BE     38BE       34     1C5F       0
                text18                             3638     3638       26     1B1C       0
                text17                             3E84     3E84       5E     1F42       0
                text16                             3B0E     3B0E       46     1D87       0
                text15                             552E     552E       F4     2A97       0
                text14                             3D78     3D78       58     1EBC       0
                text13                             365E     365E       26     1B2F       0
                text12                             4658     4658       94     232C       0
                text11                             3756     3756       2A     1BAB       0
                text10                             6438     6438     1208     321C       0
                text9                              3C36     3C36       4C     1E1B       0
                text8                              5B4C     5B4C      1AA     2DA6       0
                text7                              4C36     4C36       B8     261B       0
                text6                              4078     4078       68     203C       0
                text5                              3DD0     3DD0       5A     1EE8       0
                text4                              3D24     3D24       54     1E92       0
                text3                              42A8     42A8       7A     2154       0
                text2                              4A16     4A16       B2     250B       0
                text1                              3996     3996       38     1CCB       0
                text0                              4F36     4F36       D2     279B       0
                cstackCOMRAM                         30       30       2F        1       1
                cstackBANK0                          C6       C6       32       60       1
                bssBANK2                            200      200       40      200       1
                bssBANK1                            100      100       D8      100       1
                dataBANK0                            F8       F8        5       60       1
                bssBANK0                             60       60       66       60       1
                bssCOMRAM                             1        1       2F        1       1
                cinit                              3E2A     3E2A       5A     1F15       0
                idataBANK0                         33CF     33CF        5     33CF       0

TOTAL           Name                               Link     Load   Length     Space
        CLASS   STACK          

        CLASS   CODE           
                end_init                           10A6     10A6        4         0
                intcode                            1008     1008       9E         0
                reset_vec                          1000     1000        4         0
                text121                            33B6     33B6        4         0
                text120                            3684     3684       2A         0
                text119                            36AE     36AE       2A         0
                text118                            34F8     34F8       18         0
                text117                            33BA     33BA        4         0
                text116                            41BC     41BC       76         0
                text115                            37D8     37D8       2E         0
                text114                            3F44     3F44       66         0
                text113                            4DA8     4DA8       C0         0
                text112                            4E68     4E68       CE         0
                text111                            4AC8     4AC8       B6         0
                text110                            5A32     5A32      11A         0
                text109                            3CD2     3CD2       52         0
                text108                            46EC     46EC       9C         0
                text107                            44AA     44AA       8C         0
                text106                            3A86     3A86       42         0
                text105                            48C6     48C6       A2         0
                text104                            3C82     3C82       50         0
                text103                            39CE     39CE       3C         0
                text102                            3B9E     3B9E       4C         0
                text101                            5CF6     5CF6      202         0
                text100                            5824     5824      104         0
                text99                             43A0     43A0       84         0
                text98                             3780     3780       2C         0
                text97                             4968     4968       AE         0
                text96                             4826     4826       A0         0
                text95                             4536     4536       8E         0
                text94                             5008     5008       D4         0
                text93                             3EE2     3EE2       62         0
                text92                             4CEE     4CEE       BA         0
                text91                             3A0A     3A0A       3E         0
                text90                             3596     3596       1E         0
                text89                             3614     3614       24         0
                text88                             50DC     50DC       D8         0
                text87                             5722     5722      102         0
                text86                             33D4     33D4        6         0
                text84                             34B8     34B8       14         0
                text83                             33DA     33DA        8         0
                text82                             34CC     34CC       16         0
                text81                             345E     345E       12         0
                text80                             3806     3806       2E         0
                text79                             34E2     34E2       16         0
                text78                             3AC8     3AC8       46         0
                text77                             3430     3430        E         0
                text76                             33BE     33BE        4         0
                text75                             37AC     37AC       2C         0
                text74                             33C2     33C2        4         0
                text73                             343E     343E       10         0
                text72                             35B4     35B4       20         0
                text71                             36D8     36D8       2A         0
                text70                             3834     3834       2E         0
                text69                             51B4     51B4       D8         0
                text68                             4788     4788       9E         0
                text67                             5622     5622      100         0
                text66                             3862     3862       2E         0
                text65                             38F2     38F2       36         0
                text64                             1004     1004        2         0
                text63                             33C6     33C6        4         0
                text62                             45C4     45C4       94         0
                text61                             3542     3542       1C         0
                text60                             4B7E     4B7E       B8         0
                text59                             344E     344E       10         0
                text58                             340C     340C        C         0
                text57                             3528     3528       1A         0
                text56                             3470     3470       12         0
                text55                             3402     3402        A         0
                text54                             414C     414C       70         0
                text53                             355E     355E       1C         0
                text52                             3510     3510       18         0
                text51                             4010     4010       68         0
                text50                             4232     4232       76         0
                text49                             33E2     33E2        8         0
                text48                             3418     3418        C         0
                text47                             33CA     33CA        4         0
                text46                             3A48     3A48       3E         0
                text45                             5364     5364       DE         0
                text44                             3928     3928       36         0
                text43                             33EA     33EA        8         0
                text42                             33F2     33F2        8         0
                text41                             3702     3702       2A         0
                text40                             3424     3424        C         0
                text39                             372C     372C       2A         0
                text38                             5442     5442       EC         0
                text37                             4424     4424       86         0
                text36                             40E0     40E0       6C         0
                text35                             5EF8     5EF8      540         0
                text34                             395E     395E       38         0
                text33                             3B54     3B54       4A         0
                text32                             35D4     35D4       20         0
                text31                             33FA     33FA        8         0
                text30                             3890     3890       2E         0
                text29                             3BEA     3BEA       4C         0
                text28                             3FAA     3FAA       66         0
                text27                             357A     357A       1C         0
                text26                             3482     3482       12         0
                text25                             528C     528C       D8         0
                text24                             3494     3494       12         0
                text23                             34A6     34A6       12         0
                text22                             35F4     35F4       20         0
                text21                             4322     4322       7E         0
                text20                             5928     5928      10A         0
                text19                             38BE     38BE       34         0
                text18                             3638     3638       26         0
                text17                             3E84     3E84       5E         0
                text16                             3B0E     3B0E       46         0
                text15                             552E     552E       F4         0
                text14                             3D78     3D78       58         0
                text13                             365E     365E       26         0
                text12                             4658     4658       94         0
                text11                             3756     3756       2A         0
                text10                             6438     6438     1208         0
                text9                              3C36     3C36       4C         0
                text8                              5B4C     5B4C      1AA         0
                text7                              4C36     4C36       B8         0
                text6                              4078     4078       68         0
                text5                              3DD0     3DD0       5A         0
                text4                              3D24     3D24       54         0
                text3                              42A8     42A8       7A         0
                text2                              4A16     4A16       B2         0
                text1                              3996     3996       38         0
                text0                              4F36     4F36       D2         0
                cinit                              3E2A     3E2A       5A         0
                idataBANK0                         33CF     33CF        5         0

        CLASS   CONST          

        CLASS   SMALLCONST     

        CLASS   MEDIUMCONST    
                mediumconst                        7640     7640      9C0         0

        CLASS   COMRAM         
                cstackCOMRAM                         30       30       2F         1
                bssCOMRAM                             1        1       2F         1

        CLASS   ABS1           
                abs_s1                              400      400       40         1
                abs_s1                              500      500       80         1

        CLASS   BIGRAM         

        CLASS   RAM            

        CLASS   BANK0          
                cstackBANK0                          C6       C6       32         1
                dataBANK0                            F8       F8        5         1
                bssBANK0                             60       60       66         1

        CLASS   BANK1          
                bssBANK1                            100      100       D8         1

        CLASS   BANK2          
                bssBANK2                            200      200       40         1

        CLASS   BANK3          

        CLASS   BANK4          

        CLASS   BANK5          

        CLASS   BANK6          

        CLASS   BANK7          

        CLASS   SFR            

        CLASS   FARRAM         

        CLASS   CONFIG         
                config                           300000   300000        E         0

        CLASS   IDLOC          
                idloc                            200000   200000        8         0

        CLASS   EEDATA         



SEGMENTS        Name                           Load    Length   Top    Selector   Space  Class

                bssCOMRAM                      000001  00005E  00005F         1       1  COMRAM  
                bssBANK0                       000060  00009D  0000FD        60       1  BANK0   
                bssBANK1                       000100  0000D8  0001D8       100       1  BANK1   
                bssBANK2                       000200  000040  000240       200       1  BANK2   
                reset_vec                      001000  000006  001006       800       0  CODE    
                intcode                        001008  0000A2  0010AA       804       0  CODE    
                text121                        0033B6  000004  0033BA      19DB       0  CODE    
                text117                        0033BA  000004  0033BE      19DD       0  CODE    
                text76                         0033BE  000004  0033C2      19DF       0  CODE    
                text74                         0033C2  000004  0033C6      19E1       0  CODE    
                text63                         0033C6  000004  0033CA      19E3       0  CODE    
                text47                         0033CA  000004  0033CE      19E5       0  CODE    
                idataBANK0                     0033CF  000005  0033D4      33CF       0  CODE    
                text86                         0033D4  000006  0033DA      19EA       0  CODE    
                text83                         0033DA  000008  0033E2      19ED       0  CODE    
                text49                         0033E2  000008  0033EA      19F1       0  CODE    
                text43                         0033EA  000008  0033F2      19F5       0  CODE    
                text42                         0033F2  000008  0033FA      19F9       0  CODE    
                text31                         0033FA  000008  003402      19FD       0  CODE    
                text55                         003402  00000A  00340C      1A01       0  CODE    
                text58                         00340C  00000C  003418      1A06       0  CODE    
                text48                         003418  00000C  003424      1A0C       0  CODE    
                text40                         003424  00000C  003430      1A12       0  CODE    
                text77                         003430  00000E  00343E      1A18       0  CODE    
                text73                         00343E  000010  00344E      1A1F       0  CODE    
                text59                         00344E  000010  00345E      1A27       0  CODE    
                text81                         00345E  000012  003470      1A2F       0  CODE    
                text56                         003470  000012  003482      1A38       0  CODE    
                text26                         003482  000012  003494      1A41       0  CODE    
                text24                         003494  000012  0034A6      1A4A       0  CODE    
                text23                         0034A6  000012  0034B8      1A53       0  CODE    
                text84                         0034B8  000014  0034CC      1A5C       0  CODE    
                text82                         0034CC  000016  0034E2      1A66       0  CODE    
                text79                         0034E2  000016  0034F8      1A71       0  CODE    
                text118                        0034F8  000018  003510      1A7C       0  CODE    
                text52                         003510  000018  003528      1A88       0  CODE    
                text57                         003528  00001A  003542      1A94       0  CODE    
                text61                         003542  00001C  00355E      1AA1       0  CODE    
                text53                         00355E  00001C  00357A      1AAF       0  CODE    
                text27                         00357A  00001C  003596      1ABD       0  CODE    
                text90                         003596  00001E  0035B4      1ACB       0  CODE    
                text72                         0035B4  000020  0035D4      1ADA       0  CODE    
                text32                         0035D4  000020  0035F4      1AEA       0  CODE    
                text22                         0035F4  000020  003614      1AFA       0  CODE    
                text89                         003614  000024  003638      1B0A       0  CODE    
                text18                         003638  000026  00365E      1B1C       0  CODE    
                text13                         00365E  000026  003684      1B2F       0  CODE    
                text120                        003684  00002A  0036AE      1B42       0  CODE    
                text119                        0036AE  00002A  0036D8      1B57       0  CODE    
                text71                         0036D8  00002A  003702      1B6C       0  CODE    
                text41                         003702  00002A  00372C      1B81       0  CODE    
                text39                         00372C  00002A  003756      1B96       0  CODE    
                text11                         003756  00002A  003780      1BAB       0  CODE    
                text98                         003780  00002C  0037AC      1BC0       0  CODE    
                text75                         0037AC  00002C  0037D8      1BD6       0  CODE    
                text115                        0037D8  00002E  003806      1BEC       0  CODE    
                text80                         003806  00002E  003834      1C03       0  CODE    
                text70                         003834  00002E  003862      1C1A       0  CODE    
                text66                         003862  00002E  003890      1C31       0  CODE    
                text30                         003890  00002E  0038BE      1C48       0  CODE    
                text19                         0038BE  000034  0038F2      1C5F       0  CODE    
                text65                         0038F2  000036  003928      1C79       0  CODE    
                text44                         003928  000036  00395E      1C94       0  CODE    
                text34                         00395E  000038  003996      1CAF       0  CODE    
                text1                          003996  000038  0039CE      1CCB       0  CODE    
                text103                        0039CE  00003C  003A0A      1CE7       0  CODE    
                text91                         003A0A  00003E  003A48      1D05       0  CODE    
                text46                         003A48  00003E  003A86      1D24       0  CODE    
                text106                        003A86  000042  003AC8      1D43       0  CODE    
                text78                         003AC8  000046  003B0E      1D64       0  CODE    
                text16                         003B0E  000046  003B54      1D87       0  CODE    
                text33                         003B54  00004A  003B9E      1DAA       0  CODE    
                text102                        003B9E  00004C  003BEA      1DCF       0  CODE    
                text29                         003BEA  00004C  003C36      1DF5       0  CODE    
                text9                          003C36  00004C  003C82      1E1B       0  CODE    
                text104                        003C82  000050  003CD2      1E41       0  CODE    
                text109                        003CD2  000052  003D24      1E69       0  CODE    
                text4                          003D24  000054  003D78      1E92       0  CODE    
                text14                         003D78  000058  003DD0      1EBC       0  CODE    
                text5                          003DD0  00005A  003E2A      1EE8       0  CODE    
                cinit                          003E2A  00005A  003E84      1F15       0  CODE    
                text17                         003E84  00005E  003EE2      1F42       0  CODE    
                text93                         003EE2  000062  003F44      1F71       0  CODE    
                text114                        003F44  000066  003FAA      1FA2       0  CODE    
                text28                         003FAA  000066  004010      1FD5       0  CODE    
                text51                         004010  000068  004078      2008       0  CODE    
                text6                          004078  000068  0040E0      203C       0  CODE    
                text36                         0040E0  00006C  00414C      2070       0  CODE    
                text54                         00414C  000070  0041BC      20A6       0  CODE    
                text116                        0041BC  000076  004232      20DE       0  CODE    
                text50                         004232  000076  0042A8      2119       0  CODE    
                text3                          0042A8  00007A  004322      2154       0  CODE    
                text21                         004322  00007E  0043A0      2191       0  CODE    
                text99                         0043A0  000084  004424      21D0       0  CODE    
                text37                         004424  000086  0044AA      2212       0  CODE    
                text107                        0044AA  00008C  004536      2255       0  CODE    
                text95                         004536  00008E  0045C4      229B       0  CODE    
                text62                         0045C4  000094  004658      22E2       0  CODE    
                text12                         004658  000094  0046EC      232C       0  CODE    
                text108                        0046EC  00009C  004788      2376       0  CODE    
                text68                         004788  00009E  004826      23C4       0  CODE    
                text96                         004826  0000A0  0048C6      2413       0  CODE    
                text105                        0048C6  0000A2  004968      2463       0  CODE    
                text97                         004968  0000AE  004A16      24B4       0  CODE    
                text2                          004A16  0000B2  004AC8      250B       0  CODE    
                text111                        004AC8  0000B6  004B7E      2564       0  CODE    
                text60                         004B7E  0000B8  004C36      25BF       0  CODE    
                text7                          004C36  0000B8  004CEE      261B       0  CODE    
                text92                         004CEE  0000BA  004DA8      2677       0  CODE    
                text113                        004DA8  0000C0  004E68      26D4       0  CODE    
                text112                        004E68  0000CE  004F36      2734       0  CODE    
                text0                          004F36  0000D2  005008      279B       0  CODE    
                text94                         005008  0000D4  0050DC      2804       0  CODE    
                text88                         0050DC  0000D8  0051B4      286E       0  CODE    
                text69                         0051B4  0000D8  00528C      28DA       0  CODE    
                text25                         00528C  0000D8  005364      2946       0  CODE    
                text45                         005364  0000DE  005442      29B2       0  CODE    
                text38                         005442  0000EC  00552E      2A21       0  CODE    
                text15                         00552E  0000F4  005622      2A97       0  CODE    
                text67                         005622  000100  005722      2B11       0  CODE    
                text87                         005722  000102  005824      2B91       0  CODE    
                text100                        005824  000104  005928      2C12       0  CODE    
                text20                         005928  00010A  005A32      2C94       0  CODE    
                text110                        005A32  00011A  005B4C      2D19       0  CODE    
                text8                          005B4C  0001AA  005CF6      2DA6       0  CODE    
                text101                        005CF6  000202  005EF8      2E7B       0  CODE    
                text35                         005EF8  000540  006438      2F7C       0  CODE    
                text10                         006438  001208  007640      321C       0  CODE    
                mediumconst                    007640  0009C0  008000      3B20       0  MEDIUMCO
                idloc                          200000  000008  200008    200000       0  IDLOC   
                config                         300000  00000E  30000E    300000       0  CONFIG  


UNUSED ADDRESS RANGES

        Name                Unused          Largest block    Delta
        BANK0            0000FD-0000FF                3
        BANK1            0001D8-0001FF               28
        BANK2            000240-0002FF               C0
        BANK3            000300-0003FF              100
        BANK4            000440-0004FF               C0
        BANK5            000580-0005FF               80
        BANK6            000600-0006FF              100
        BANK7            000700-0007FF              100
        BIGRAM           00005F-00005F                1
                         0000FD-0000FF                3
                         0001D8-0001FF               28
                         000240-0003FF              1C0
                         000440-0004FF               C0
                         000580-0007FF              280
        CODE             0010AA-0033B5             230C
                         0033CE-0033CE                1
        COMRAM           00005F-00005F                1
        CONST            0010AA-0033B5             230C
                         0033CE-0033CE                1
        EEDATA           F00000-F000FF              100
        FARRAM           000000-000000                1
        MEDIUMCONST      0010AA-0033B5             230C
                         0033CE-0033CE                1
        RAM              0000FD-0000FF                3
                         0001D8-0001FF               28
                         000240-0003FF               C0
                         000440-0004FF               C0
                         000580-0007FF              100
        SFR              000F53-000FFF                D
        SMALLCONST       0010AA-0033B5              100
                         0033CE-0033CE                1
        STACK            000580-0007FF              280

                                  Symbol Table

?_ADC_GetConversion                         cstackBANK0  0000C6
?_USBTransferOnePacket                      cstackBANK0  0000C6
?___lldiv                                   cstackCOMRAM 000030
?___lwdiv                                   cstackBANK0  0000C6
?___lwmod                                   cstackBANK0  0000C6
?_strcmp                                    cstackBANK0  0000C6
?_strncmp                                   cstackBANK0  0000C6
?i2_USBTransferOnePacket                    cstackCOMRAM 000030
ADC_GetConversion@channel                   cstackBANK0  0000CA
ADC_TempConversion@temp                     cstackBANK0  0000CE
ADC_TempConversion@tempRaw                  cstackBANK0  0000CD
CDCTxService@byte_to_send                   cstackBANK0  0000D0
CDCTxService@i                              cstackBANK0  0000CF
DATAEE_ReadByte@bAdd                        cstackBANK0  0000C6
DATAEE_WriteByte@GIEBitValue                cstackBANK0  0000C8
DATAEE_WriteByte@bAdd                       cstackBANK0  0000C7
DATAEE_WriteByte@bData                      cstackBANK0  0000C6
EUSART_FlushBuffer@index                    cstackBANK0  0000C6
EUSART_Read@readValue                       cstackBANK0  0000C6
EUSART_Write@txData                         cstackBANK0  0000C6
MOTEapp_SetADR@state                        cstackBANK0  0000C6
MOTEapp_SetDataRate@dataRate                cstackBANK0  0000C6
MOTEapp_TimerBasedTask@timerTask            cstackBANK0  0000C6
MOTEapp_getModemResponse@bufferByte         cstackBANK0  0000C8
MOTEapp_getModemResponse@terminatorReceived cstackBANK0  0000C7
MOTEapp_handlerState@state                  cstackBANK0  0000C6
SPI_Exchange8bit@data                       cstackBANK0  0000C6
Set_Column_Address@address                  cstackBANK0  0000C8
Set_Page_Address@address                    cstackBANK0  0000C8
TMR2_ReadTimer@readVal                      cstackBANK0  0000C6
USART_mySetLineCodingHandler@dwBaud         cstackCOMRAM 000041
USBConfigureEndpoint@EPNum                  cstackCOMRAM 000035
USBConfigureEndpoint@direction              cstackCOMRAM 000030
USBConfigureEndpoint@handle                 cstackCOMRAM 000036
USBCtrlEPService@setup_cnt                  cstackCOMRAM 000051
USBCtrlTrfInHandler@lastDTS                 cstackCOMRAM 000045
USBCtrlTrfRxService@byteToRead              cstackCOMRAM 000046
USBCtrlTrfRxService@i                       cstackCOMRAM 000045
USBCtrlTrfTxService@byteToSend              cstackCOMRAM 000030
USBDeviceInit@i                             cstackBANK0  0000CE
USBDeviceTasks@i                            cstackCOMRAM 000052
USBEnableEndpoint@ep                        cstackCOMRAM 00003D
USBEnableEndpoint@options                   cstackCOMRAM 000038
USBEnableEndpoint@p                         cstackCOMRAM 00003B
USBStdFeatureReqHandler@current_ep_data     cstackCOMRAM 00004B
USBStdFeatureReqHandler@p                   cstackCOMRAM 00004C
USBStdFeatureReqHandler@pUEP                cstackCOMRAM 000049
USBStdGetStatusHandler@p                    cstackCOMRAM 000030
USBStdSetCfgHandler@i                       cstackCOMRAM 000047
USBTransferOnePacket@data                   cstackBANK0  0000C7
USBTransferOnePacket@dir                    cstackBANK0  0000C6
USBTransferOnePacket@ep                     cstackBANK0  0000CA
USBTransferOnePacket@handle                 cstackBANK0  0000CB
USBTransferOnePacket@len                    cstackBANK0  0000C9
USBapp_CdcEmulatorInitialize@i              cstackCOMRAM 00003E
USBapp_handlerState@state                   cstackBANK0  0000C6
USER_USB_CALLBACK_EVENT_HANDLER@event       cstackCOMRAM 00003F
USER_USB_CALLBACK_EVENT_HANDLER@pdata       cstackCOMRAM 000041
USER_USB_CALLBACK_EVENT_HANDLER@size        cstackCOMRAM 000043
_ACTCON                                     (abs)        000FB5
_ADCON0                                     (abs)        000FC2
_ADCON0bits                                 (abs)        000FC2
_ADCON1                                     (abs)        000FC1
_ADCON2                                     (abs)        000FC0
_ADC_GetConversion                          text34       00395E
_ADC_Initialize                             text82       0034CC
_ADC_TempConversion                         text32       0035D4
_ADRESH                                     (abs)        000FC4
_ADRESL                                     (abs)        000FC3
_ANSELAbits                                 (abs)        000F5B
_ANSELCbits                                 (abs)        000F5D
_BAUDCON                                    (abs)        000FB8
_BDT                                        (abs)        000400
_BothEP0OutUOWNsSet                         bssCOMRAM    000013
_CDCDataInHandle                            bssBANK0     000076
_CDCDataOutHandle                           bssBANK0     000078
_CDCInitEP                                  text104      003C82
_CDCTxService                               text67       005622
_CDCTxService$5784                          cstackBANK0  0000CD
_CKE                                        (abs)        007E3E
_CKP                                        (abs)        007E34
_CM1CON0                                    (abs)        000F98
_CM1CON0bits                                (abs)        000F98
_CM2CON1bits                                (abs)        000F9A
_CMP1_ISR                                   text121      0033B6
_CMP1_Initialize                            text81       00345E
_CtrlTrfData                                (abs)        000438
_DATAEE_ReadByte                            text84       0034B8
_DATAEE_WriteByte                           text44       003928
_EEADR                                      (abs)        000FA9
_EECON1bits                                 (abs)        000FA6
_EECON2                                     (abs)        000FA7
_EEDATA                                     (abs)        000FA8
_EUSART_FlushBuffer                         text30       003890
_EUSART_Initialize                          text80       003806
_EUSART_Read                                text66       003862
_EUSART_Receive_ISR                         text120      003684
_EUSART_Transmit_ISR                        text119      0036AE
_EUSART_Write                               text65       0038F2
_EndLine                                    text40       003424
_GIE                                        (abs)        007F97
_INTCONbits                                 (abs)        000FF2
_INTERRUPT_InterruptManager                 intcode      001008
_IOCCbits                                   (abs)        000F87
_IPR3bits                                   (abs)        000FA5
_LATAbits                                   (abs)        000F89
_LATBbits                                   (abs)        000F8A
_LATCbits                                   (abs)        000F8B
_LastRS232Out                               bssCOMRAM    000014
_MOTEapp_SetADR                             text43       0033EA
_MOTEapp_SetDataRate                        text42       0033F2
_MOTEapp_TimerBasedTask                     text48       003418
_MOTEapp_WriteDataRate                      text38       005442
_MOTEapp_getModemResponse                   text29       003BEA
_MOTEapp_handlerState                       text83       0033DA
_MOTEapp_setResponseReady                   text64       001004
_NextUSBOut                                 bssCOMRAM    000015
_OSCCON                                     (abs)        000FD3
_OSCCON2                                    (abs)        000FD2
_OSCCON2bits                                (abs)        000FD2
_OSCILLATOR_Initialize                      text79       0034E2
_OSCTUNE                                    (abs)        000F9B
_OledFont0                                  mediumconst  007649
_PEIE                                       (abs)        007F96
_PIE1bits                                   (abs)        000F9D
_PIE2bits                                   (abs)        000FA0
_PIE3bits                                   (abs)        000FA3
_PIN_MANAGER_Initialize                     text78       003AC8
_PIR1bits                                   (abs)        000F9E
_PIR2bits                                   (abs)        000FA1
_PIR3bits                                   (abs)        000FA4
_PORTAbits                                  (abs)        000F80
_PORTCbits                                  (abs)        000F82
_PR2                                        (abs)        000FBB
_RCONbits                                   (abs)        000FD0
_RCREG                                      (abs)        000FAE
_RCSTA                                      (abs)        000FAB
_RCSTAbits                                  (abs)        000FAB
_RS232_Out_Data_Rdy                         bssCOMRAM    000016
_RS232cp                                    bssCOMRAM    000017
_RemoteWakeup                               bssCOMRAM    000018
_SPBRG                                      (abs)        000FAF
_SPBRGH                                     (abs)        000FB0
_SPI_Exchange8bit                           text59       00344E
_SPI_Initialize                             text77       003430
_SSP1ADD                                    (abs)        000FC8
_SSP1CON1                                   (abs)        000FC6
_SSP1CON1bits                               (abs)        000FC6
_SSP1STAT                                   (abs)        000FC7
_SSP1STATbits                               (abs)        000FC7
_SSPBUF                                     (abs)        000FC9
_SYSTEM_Initialize                          text72       0035B4
_Set_Column_Address                         text57       003528
_Set_Page_Address                           text56       003470
_SetupPkt                                   (abs)        000430
_T1CON                                      (abs)        000FCD
_T1CONbits                                  (abs)        000FCD
_T1GCON                                     (abs)        000FCC
_T1GCONbits                                 (abs)        000FCC
_T2CON                                      (abs)        000FBA
_T2CONbits                                  (abs)        000FBA
_TABLAT                                     (abs)        000FF5
_TBLPTRH                                    (abs)        000FF7
_TBLPTRL                                    (abs)        000FF6
_TBLPTRU                                    (abs)        000FF8
_TMR1H                                      (abs)        000FCF
_TMR1L                                      (abs)        000FCE
_TMR1_ISR                                   text118      0034F8
_TMR1_Initialize                            text75       0037AC
_TMR1_StartTimer                            text76       0033BE
_TMR2                                       (abs)        000FBC
_TMR2_Initialize                            text73       00343E
_TMR2_ReadTimer                             text31       0033FA
_TMR2_StartTimer                            text74       0033C2
_TMRapp_ClearBitFlags                       text47       0033CA
_TMRapp_Handler                             text45       005364
_TMRapp_Tick                                text117      0033BA
_TRISAbits                                  (abs)        000F92
_TRISBbits                                  (abs)        000F93
_TRISCbits                                  (abs)        000F94
_TXREG                                      (abs)        000FAD
_TXSTA                                      (abs)        000FAC
_TXSTAbits                                  (abs)        000FAC
_UADDR                                      (abs)        000F63
_UCFG                                       (abs)        000F62
_UCON                                       (abs)        000F60
_UCONbits                                   (abs)        000F60
_UEIE                                       (abs)        000F66
_UEIR                                       (abs)        000F67
_UEP0                                       (abs)        000F6A
_UEP0bits                                   (abs)        000F6A
_UEP1                                       (abs)        000F6B
_UIE                                        (abs)        000F64
_UIEbits                                    (abs)        000F64
_UIR                                        (abs)        000F65
_UIRbits                                    (abs)        000F65
_USART_mySetLineCodingHandler               text114      003F44
_USBActiveConfiguration                     bssCOMRAM    00002E
_USBAlternateInterface                      bssBANK0     0000C4
_USBBusIsSuspended                          bssBANK0     000086
_USBCheckCDCRequest                         text108      0046EC
_USBCheckStdRequest                         text96       004826
_USBConfigureEndpoint                       text107      0044AA
_USBCtrlEPAllowDataStage                    text95       004536
_USBCtrlEPAllowStatusStage                  text111      004AC8
_USBCtrlEPService                           text92       004CEE
_USBCtrlEPServiceComplete                   text94       005008
_USBCtrlTrfInHandler                        text112      004E68
_USBCtrlTrfOutHandler                       text109      003CD2
_USBCtrlTrfRxService                        text110      005A32
_USBCtrlTrfSetupHandler                     text93       003EE2
_USBCtrlTrfTxService                        text113      004DA8
_USBDeferINDataStagePackets                 bssBANK0     000087
_USBDeferOUTDataStagePackets                bssBANK0     000088
_USBDeferStatusStagePacket                  bssCOMRAM    000019
_USBDeviceAttach                            text71       0036D8
_USBDeviceInit                              text69       0051B4
_USBDeviceState                             bssBANK0     000089
_USBDeviceTasks                             text87       005722
_USBEnableEndpoint                          text106      003A86
_USBStallHandler                            text91       003A0A
_USBStatusStageEnabledFlag1                 bssCOMRAM    00001A
_USBStatusStageEnabledFlag2                 bssCOMRAM    00001B
_USBStatusStageTimeoutCounter               bssCOMRAM    00001C
_USBStdFeatureReqHandler                    text101      005CF6
_USBStdGetDscHandler                        text100      005824
_USBStdGetStatusHandler                     text99       0043A0
_USBStdSetCfgHandler                        text97       004968
_USBSuspend                                 text90       003596
_USBTransferOnePacket                       text68       004788
_USBWakeFromSuspend                         text89       003614
_USB_Buffer                                 bssBANK1     000140
_USB_CD_Ptr                                 mediumconst  007647
_USB_SD_Ptr                                 mediumconst  007641
_USBapp_CdcEmulatorInitialize               text103      0039CE
_USBapp_DeviceCdcEmulatorHandler            text60       004B7E
_USBapp_Handler                             text50       004232
_USBapp_getrxByteFlag                       text63       0033C6
_USBapp_handlerState                        text49       0033E2
_USBapp_setrxByteFlag                       text86       0033D4
_USER_USB_CALLBACK_EVENT_HANDLER            text102      003B9E
_USTAT                                      (abs)        000F61
_USTATcopy                                  bssCOMRAM    00002F
_VREFCON0                                   (abs)        000F7D
_VREFCON0bits                               (abs)        000F7D
_WDTCONbits                                 (abs)        000FD1
__CFG_BOREN$SBORDIS                         (abs)        000000
__CFG_BORV$190                              (abs)        000000
__CFG_CCP2MX$RC1                            (abs)        000000
__CFG_CFGPLLEN$OFF                          (abs)        000000
__CFG_CP0$OFF                               (abs)        000000
__CFG_CP1$OFF                               (abs)        000000
__CFG_CP2$OFF                               (abs)        000000
__CFG_CP3$OFF                               (abs)        000000
__CFG_CPB$OFF                               (abs)        000000
__CFG_CPD$OFF                               (abs)        000000
__CFG_CPUDIV$NOCLKDIV                       (abs)        000000
__CFG_EBTR0$OFF                             (abs)        000000
__CFG_EBTR1$OFF                             (abs)        000000
__CFG_EBTR2$OFF                             (abs)        000000
__CFG_EBTR3$OFF                             (abs)        000000
__CFG_EBTRB$OFF                             (abs)        000000
__CFG_FCMEN$OFF                             (abs)        000000
__CFG_FOSC$INTOSCIO                         (abs)        000000
__CFG_ICPRT$OFF                             (abs)        000000
__CFG_IESO$OFF                              (abs)        000000
__CFG_LS48MHZ$SYS48X8                       (abs)        000000
__CFG_LVP$OFF                               (abs)        000000
__CFG_MCLRE$ON                              (abs)        000000
__CFG_PBADEN$OFF                            (abs)        000000
__CFG_PCLKEN$OFF                            (abs)        000000
__CFG_PLLSEL$PLL3X                          (abs)        000000
__CFG_SDOMX$RB3                             (abs)        000000
__CFG_STVREN$ON                             (abs)        000000
__CFG_T3CMX$RC0                             (abs)        000000
__CFG_WDTEN$SWON                            (abs)        000000
__CFG_WDTPS$32768                           (abs)        000000
__CFG_WRT0$OFF                              (abs)        000000
__CFG_WRT1$OFF                              (abs)        000000
__CFG_WRT2$OFF                              (abs)        000000
__CFG_WRT3$OFF                              (abs)        000000
__CFG_WRTB$OFF                              (abs)        000000
__CFG_WRTC$OFF                              (abs)        000000
__CFG_WRTD$OFF                              (abs)        000000
__CFG_XINST$OFF                             (abs)        000000
__CFG_nLPBOR$ON                             (abs)        000000
__CFG_nPWRTEN$OFF                           (abs)        000000
__HRAM                                      (abs)        000000
__Habs1                                     abs1         000000
__Hbank0                                    bank0        000000
__Hbank1                                    bank1        000000
__Hbank2                                    bank2        000000
__Hbank3                                    bank3        000000
__Hbank4                                    bank4        000000
__Hbank5                                    bank5        000000
__Hbank6                                    bank6        000000
__Hbank7                                    bank7        000000
__Hbigbss                                   bigbss       000000
__Hbigdata                                  bigdata      000000
__Hbigram                                   bigram       000000
__Hbss                                      bss          000000
__HbssBANK0                                 bssBANK0     000000
__HbssBANK1                                 bssBANK1     000000
__HbssBANK2                                 bssBANK2     000000
__HbssCOMRAM                                bssCOMRAM    000000
__Hcinit                                    cinit        000000
__Hclrtext                                  clrtext      000000
__Hcomram                                   comram       000000
__Hconfig                                   config       30000E
__Hconst                                    const        000000
__HcstackBANK0                              cstackBANK0  000000
__HcstackCOMRAM                             cstackCOMRAM 000000
__Hdata                                     data         000000
__HdataBANK0                                dataBANK0    000000
__Heeprom_data                              eeprom_data  000000
__Hend_init                                 end_init     0010AA
__Hfarbss                                   farbss       000000
__Hfardata                                  fardata      000000
__Hibigdata                                 ibigdata     000000
__Hidata                                    idata        000000
__HidataBANK0                               idataBANK0   000000
__Hidloc                                    idloc        200008
__Hifardata                                 ifardata     000000
__Hinit                                     init         0010A6
__Hintcode                                  intcode      0010A6
__Hintcode_body                             intcode_body 000000
__Hintcodelo                                intcodelo    0010A6
__Hintentry                                 intentry     000000
__Hintret                                   intret       000000
__Hintsave_regs                             intsave_regs 000000
__Hirdata                                   irdata       000000
__Hmediumconst                              mediumconst  008000
__HnvFARRAM                                 nvFARRAM     000000
__Hnvbit                                    nvbit        000000
__Hnvrram                                   nvrram       000000
__Hparam                                    rparam       000000
__Hpowerup                                  powerup      0010A6
__Hram                                      ram          000000
__Hramtop                                   ramtop       000800
__Hrbit                                     rbit         000000
__Hrbss                                     rbss         000000
__Hrdata                                    rdata        000000
__Hreset_vec                                reset_vec    001004
__Hrparam                                   rparam       000000
__Hsfr                                      sfr          000000
__Hsmallconst                               smallconst   000000
__Hspace_0                                  (abs)        30000E
__Hspace_1                                  (abs)        000240
__Hspace_2                                  (abs)        000000
__Hstack                                    stack        000000
__Hstruct                                   struct       000000
__Htemp                                     temp         000000
__Htext                                     text         000000
__Htext0                                    text0        000000
__Htext1                                    text1        000000
__Htext10                                   text10       000000
__Htext100                                  text100      000000
__Htext101                                  text101      000000
__Htext102                                  text102      000000
__Htext103                                  text103      000000
__Htext104                                  text104      000000
__Htext105                                  text105      000000
__Htext106                                  text106      000000
__Htext107                                  text107      000000
__Htext108                                  text108      000000
__Htext109                                  text109      000000
__Htext11                                   text11       000000
__Htext110                                  text110      000000
__Htext111                                  text111      000000
__Htext112                                  text112      000000
__Htext113                                  text113      000000
__Htext114                                  text114      000000
__Htext115                                  text115      000000
__Htext116                                  text116      000000
__Htext117                                  text117      000000
__Htext118                                  text118      000000
__Htext119                                  text119      000000
__Htext12                                   text12       000000
__Htext120                                  text120      000000
__Htext121                                  text121      000000
__Htext122                                  text122      000000
__Htext13                                   text13       000000
__Htext14                                   text14       000000
__Htext15                                   text15       000000
__Htext16                                   text16       000000
__Htext17                                   text17       000000
__Htext18                                   text18       000000
__Htext19                                   text19       000000
__Htext2                                    text2        000000
__Htext20                                   text20       000000
__Htext21                                   text21       000000
__Htext22                                   text22       000000
__Htext23                                   text23       000000
__Htext24                                   text24       000000
__Htext25                                   text25       000000
__Htext26                                   text26       000000
__Htext27                                   text27       000000
__Htext28                                   text28       000000
__Htext29                                   text29       000000
__Htext3                                    text3        000000
__Htext30                                   text30       000000
__Htext31                                   text31       000000
__Htext32                                   text32       000000
__Htext33                                   text33       000000
__Htext34                                   text34       000000
__Htext35                                   text35       000000
__Htext36                                   text36       000000
__Htext37                                   text37       000000
__Htext38                                   text38       000000
__Htext39                                   text39       000000
__Htext4                                    text4        000000
__Htext40                                   text40       000000
__Htext41                                   text41       000000
__Htext42                                   text42       000000
__Htext43                                   text43       000000
__Htext44                                   text44       000000
__Htext45                                   text45       000000
__Htext46                                   text46       000000
__Htext47                                   text47       000000
__Htext48                                   text48       000000
__Htext49                                   text49       000000
__Htext5                                    text5        000000
__Htext50                                   text50       000000
__Htext51                                   text51       000000
__Htext52                                   text52       000000
__Htext53                                   text53       000000
__Htext54                                   text54       000000
__Htext55                                   text55       000000
__Htext56                                   text56       000000
__Htext57                                   text57       000000
__Htext58                                   text58       000000
__Htext59                                   text59       000000
__Htext6                                    text6        000000
__Htext60                                   text60       000000
__Htext61                                   text61       000000
__Htext62                                   text62       000000
__Htext63                                   text63       000000
__Htext64                                   text64       000000
__Htext65                                   text65       000000
__Htext66                                   text66       000000
__Htext67                                   text67       000000
__Htext68                                   text68       000000
__Htext69                                   text69       000000
__Htext7                                    text7        000000
__Htext70                                   text70       000000
__Htext71                                   text71       000000
__Htext72                                   text72       000000
__Htext73                                   text73       000000
__Htext74                                   text74       000000
__Htext75                                   text75       000000
__Htext76                                   text76       000000
__Htext77                                   text77       000000
__Htext78                                   text78       000000
__Htext79                                   text79       000000
__Htext8                                    text8        000000
__Htext80                                   text80       000000
__Htext81                                   text81       000000
__Htext82                                   text82       000000
__Htext83                                   text83       000000
__Htext84                                   text84       000000
__Htext86                                   text86       000000
__Htext87                                   text87       000000
__Htext88                                   text88       000000
__Htext89                                   text89       000000
__Htext9                                    text9        000000
__Htext90                                   text90       000000
__Htext91                                   text91       000000
__Htext92                                   text92       000000
__Htext93                                   text93       000000
__Htext94                                   text94       000000
__Htext95                                   text95       000000
__Htext96                                   text96       000000
__Htext97                                   text97       000000
__Htext98                                   text98       000000
__Htext99                                   text99       000000
__LRAM                                      (abs)        000001
__Labs1                                     abs1         000000
__Lbank0                                    bank0        000000
__Lbank1                                    bank1        000000
__Lbank2                                    bank2        000000
__Lbank3                                    bank3        000000
__Lbank4                                    bank4        000000
__Lbank5                                    bank5        000000
__Lbank6                                    bank6        000000
__Lbank7                                    bank7        000000
__Lbigbss                                   bigbss       000000
__Lbigdata                                  bigdata      000000
__Lbigram                                   bigram       000000
__Lbss                                      bss          000000
__LbssBANK0                                 bssBANK0     000000
__LbssBANK1                                 bssBANK1     000000
__LbssBANK2                                 bssBANK2     000000
__LbssCOMRAM                                bssCOMRAM    000000
__Lcinit                                    cinit        000000
__Lclrtext                                  clrtext      000000
__Lcomram                                   comram       000000
__Lconfig                                   config       300000
__Lconst                                    const        000000
__LcstackBANK0                              cstackBANK0  000000
__LcstackCOMRAM                             cstackCOMRAM 000000
__Ldata                                     data         000000
__LdataBANK0                                dataBANK0    000000
__Leeprom_data                              eeprom_data  000000
__Lend_init                                 end_init     0010A6
__Lfarbss                                   farbss       000000
__Lfardata                                  fardata      000000
__Libigdata                                 ibigdata     000000
__Lidata                                    idata        000000
__LidataBANK0                               idataBANK0   000000
__Lidloc                                    idloc        200000
__Lifardata                                 ifardata     000000
__Linit                                     init         0010A6
__Lintcode                                  intcode      001008
__Lintcode_body                             intcode_body 000000
__Lintcodelo                                intcodelo    0010A6
__Lintentry                                 intentry     000000
__Lintret                                   intret       000000
__Lintsave_regs                             intsave_regs 000000
__Lirdata                                   irdata       000000
__Lmediumconst                              mediumconst  007640
__LnvFARRAM                                 nvFARRAM     000000
__Lnvbit                                    nvbit        000000
__Lnvrram                                   nvrram       000000
__Lparam                                    rparam       000000
__Lpowerup                                  powerup      0010A6
__Lram                                      ram          000000
__Lramtop                                   ramtop       000800
__Lrbit                                     rbit         000000
__Lrbss                                     rbss         000000
__Lrdata                                    rdata        000000
__Lreset_vec                                reset_vec    001000
__Lrparam                                   rparam       000000
__Lsfr                                      sfr          000000
__Lsmallconst                               smallconst   000000
__Lspace_0                                  (abs)        000000
__Lspace_1                                  (abs)        000000
__Lspace_2                                  (abs)        000000
__Lstack                                    stack        000000
__Lstruct                                   struct       000000
__Ltemp                                     temp         000000
__Ltext                                     text         000000
__Ltext0                                    text0        000000
__Ltext1                                    text1        000000
__Ltext10                                   text10       000000
__Ltext100                                  text100      000000
__Ltext101                                  text101      000000
__Ltext102                                  text102      000000
__Ltext103                                  text103      000000
__Ltext104                                  text104      000000
__Ltext105                                  text105      000000
__Ltext106                                  text106      000000
__Ltext107                                  text107      000000
__Ltext108                                  text108      000000
__Ltext109                                  text109      000000
__Ltext11                                   text11       000000
__Ltext110                                  text110      000000
__Ltext111                                  text111      000000
__Ltext112                                  text112      000000
__Ltext113                                  text113      000000
__Ltext114                                  text114      000000
__Ltext115                                  text115      000000
__Ltext116                                  text116      000000
__Ltext117                                  text117      000000
__Ltext118                                  text118      000000
__Ltext119                                  text119      000000
__Ltext12                                   text12       000000
__Ltext120                                  text120      000000
__Ltext121                                  text121      000000
__Ltext122                                  text122      000000
__Ltext13                                   text13       000000
__Ltext14                                   text14       000000
__Ltext15                                   text15       000000
__Ltext16                                   text16       000000
__Ltext17                                   text17       000000
__Ltext18                                   text18       000000
__Ltext19                                   text19       000000
__Ltext2                                    text2        000000
__Ltext20                                   text20       000000
__Ltext21                                   text21       000000
__Ltext22                                   text22       000000
__Ltext23                                   text23       000000
__Ltext24                                   text24       000000
__Ltext25                                   text25       000000
__Ltext26                                   text26       000000
__Ltext27                                   text27       000000
__Ltext28                                   text28       000000
__Ltext29                                   text29       000000
__Ltext3                                    text3        000000
__Ltext30                                   text30       000000
__Ltext31                                   text31       000000
__Ltext32                                   text32       000000
__Ltext33                                   text33       000000
__Ltext34                                   text34       000000
__Ltext35                                   text35       000000
__Ltext36                                   text36       000000
__Ltext37                                   text37       000000
__Ltext38                                   text38       000000
__Ltext39                                   text39       000000
__Ltext4                                    text4        000000
__Ltext40                                   text40       000000
__Ltext41                                   text41       000000
__Ltext42                                   text42       000000
__Ltext43                                   text43       000000
__Ltext44                                   text44       000000
__Ltext45                                   text45       000000
__Ltext46                                   text46       000000
__Ltext47                                   text47       000000
__Ltext48                                   text48       000000
__Ltext49                                   text49       000000
__Ltext5                                    text5        000000
__Ltext50                                   text50       000000
__Ltext51                                   text51       000000
__Ltext52                                   text52       000000
__Ltext53                                   text53       000000
__Ltext54                                   text54       000000
__Ltext55                                   text55       000000
__Ltext56                                   text56       000000
__Ltext57                                   text57       000000
__Ltext58                                   text58       000000
__Ltext59                                   text59       000000
__Ltext6                                    text6        000000
__Ltext60                                   text60       000000
__Ltext61                                   text61       000000
__Ltext62                                   text62       000000
__Ltext63                                   text63       000000
__Ltext64                                   text64       000000
__Ltext65                                   text65       000000
__Ltext66                                   text66       000000
__Ltext67                                   text67       000000
__Ltext68                                   text68       000000
__Ltext69                                   text69       000000
__Ltext7                                    text7        000000
__Ltext70                                   text70       000000
__Ltext71                                   text71       000000
__Ltext72                                   text72       000000
__Ltext73                                   text73       000000
__Ltext74                                   text74       000000
__Ltext75                                   text75       000000
__Ltext76                                   text76       000000
__Ltext77                                   text77       000000
__Ltext78                                   text78       000000
__Ltext79                                   text79       000000
__Ltext8                                    text8        000000
__Ltext80                                   text80       000000
__Ltext81                                   text81       000000
__Ltext82                                   text82       000000
__Ltext83                                   text83       000000
__Ltext84                                   text84       000000
__Ltext86                                   text86       000000
__Ltext87                                   text87       000000
__Ltext88                                   text88       000000
__Ltext89                                   text89       000000
__Ltext9                                    text9        000000
__Ltext90                                   text90       000000
__Ltext91                                   text91       000000
__Ltext92                                   text92       000000
__Ltext93                                   text93       000000
__Ltext94                                   text94       000000
__Ltext95                                   text95       000000
__Ltext96                                   text96       000000
__Ltext97                                   text97       000000
__Ltext98                                   text98       000000
__Ltext99                                   text99       000000
__S0                                        (abs)        30000E
__S1                                        (abs)        000240
__S2                                        (abs)        000000
___inthi_sp                                 stack        000000
___intlo_sp                                 stack        000000
___lbdiv                                    text19       0038BE
___lbdiv@counter                            cstackBANK0  0000C8
___lbdiv@dividend                           cstackBANK0  0000C7
___lbdiv@divisor                            cstackBANK0  0000C6
___lbdiv@quotient                           cstackBANK0  0000C9
___lbmod                                    text18       003638
___lbmod@counter                            cstackBANK0  0000C8
___lbmod@dividend                           cstackBANK0  0000C7
___lbmod@divisor                            cstackBANK0  0000C6
___lbmod@rem                                cstackBANK0  0000C9
___lldiv                                    text116      0041BC
___lldiv@counter                            cstackCOMRAM 00003C
___lldiv@dividend                           cstackCOMRAM 000030
___lldiv@divisor                            cstackCOMRAM 000034
___lldiv@quotient                           cstackCOMRAM 000038
___lwdiv                                    text33       003B54
___lwdiv@counter                            cstackBANK0  0000CA
___lwdiv@dividend                           cstackBANK0  0000C6
___lwdiv@divisor                            cstackBANK0  0000C8
___lwdiv@quotient                           cstackBANK0  0000CB
___lwmod                                    text46       003A48
___lwmod@counter                            cstackBANK0  0000CA
___lwmod@dividend                           cstackBANK0  0000C6
___lwmod@divisor                            cstackBANK0  0000C8
___sp                                       stack        000000
__accesstop                                 (abs)        000060
__activetblptr                              (abs)        000002
__end_of_ADC_GetConversion                  text34       003996
__end_of_ADC_Initialize                     text82       0034E2
__end_of_ADC_TempConversion                 text32       0035F4
__end_of_CDCInitEP                          text104      003CD2
__end_of_CDCTxService                       text67       005722
__end_of_CMP1_ISR                           text121      0033BA
__end_of_CMP1_Initialize                    text81       003470
__end_of_DATAEE_ReadByte                    text84       0034CC
__end_of_DATAEE_WriteByte                   text44       00395E
__end_of_EUSART_FlushBuffer                 text30       0038BE
__end_of_EUSART_Initialize                  text80       003834
__end_of_EUSART_Read                        text66       003890
__end_of_EUSART_Receive_ISR                 text120      0036AE
__end_of_EUSART_Transmit_ISR                text119      0036D8
__end_of_EUSART_Write                       text65       003928
__end_of_EndLine                            text40       003430
__end_of_INTERRUPT_InterruptManager         intcode      0010A6
__end_of_MOTEapp_SetADR                     text43       0033F2
__end_of_MOTEapp_SetDataRate                text42       0033FA
__end_of_MOTEapp_TimerBasedTask             text48       003424
__end_of_MOTEapp_WriteDataRate              text38       00552E
__end_of_MOTEapp_getModemResponse           text29       003C36
__end_of_MOTEapp_handlerState               text83       0033E2
__end_of_MOTEapp_setResponseReady           text64       001006
__end_of_OSCILLATOR_Initialize              text79       0034F8
__end_of_OledFont0                          mediumconst  007949
__end_of_PIN_MANAGER_Initialize             text78       003B0E
__end_of_SPI_Exchange8bit                   text59       00345E
__end_of_SPI_Initialize                     text77       00343E
__end_of_SYSTEM_Initialize                  text72       0035D4
__end_of_Set_Column_Address                 text57       003542
__end_of_Set_Page_Address                   text56       003482
__end_of_TMR1_ISR                           text118      003510
__end_of_TMR1_Initialize                    text75       0037D8
__end_of_TMR1_StartTimer                    text76       0033C2
__end_of_TMR2_Initialize                    text73       00344E
__end_of_TMR2_ReadTimer                     text31       003402
__end_of_TMR2_StartTimer                    text74       0033C6
__end_of_TMRapp_ClearBitFlags               text47       0033CE
__end_of_TMRapp_Handler                     text45       005442
__end_of_TMRapp_Tick                        text117      0033BE
__end_of_USART_mySetLineCodingHandler       text114      003FAA
__end_of_USBCheckCDCRequest                 text108      004788
__end_of_USBCheckStdRequest                 text96       0048C6
__end_of_USBConfigureEndpoint               text107      004536
__end_of_USBCtrlEPAllowDataStage            text95       0045C4
__end_of_USBCtrlEPAllowStatusStage          text111      004B7E
__end_of_USBCtrlEPService                   text92       004DA8
__end_of_USBCtrlEPServiceComplete           text94       0050DC
__end_of_USBCtrlTrfInHandler                text112      004F36
__end_of_USBCtrlTrfOutHandler               text109      003D24
__end_of_USBCtrlTrfRxService                text110      005B4C
__end_of_USBCtrlTrfSetupHandler             text93       003F44
__end_of_USBCtrlTrfTxService                text113      004E68
__end_of_USBDeviceAttach                    text71       003702
__end_of_USBDeviceInit                      text69       00528C
__end_of_USBDeviceTasks                     text87       005824
__end_of_USBEnableEndpoint                  text106      003AC8
__end_of_USBStallHandler                    text91       003A48
__end_of_USBStdFeatureReqHandler            text101      005EF8
__end_of_USBStdGetDscHandler                text100      005928
__end_of_USBStdGetStatusHandler             text99       004424
__end_of_USBStdSetCfgHandler                text97       004A16
__end_of_USBSuspend                         text90       0035B4
__end_of_USBTransferOnePacket               text68       004826
__end_of_USBWakeFromSuspend                 text89       003638
__end_of_USB_CD_Ptr                         mediumconst  007649
__end_of_USB_SD_Ptr                         mediumconst  007647
__end_of_USBapp_CdcEmulatorInitialize       text103      003A0A
__end_of_USBapp_DeviceCdcEmulatorHandler    text60       004C36
__end_of_USBapp_Handler                     text50       0042A8
__end_of_USBapp_getrxByteFlag               text63       0033CA
__end_of_USBapp_handlerState                text49       0033EA
__end_of_USBapp_setrxByteFlag               text86       0033DA
__end_of_USER_USB_CALLBACK_EVENT_HANDLER    text102      003BEA
__end_of___lbdiv                            text19       0038F2
__end_of___lbmod                            text18       00365E
__end_of___lldiv                            text116      004232
__end_of___lwdiv                            text33       003B9E
__end_of___lwmod                            text46       003A86
__end_of__initialization                    cinit        003E7A
__end_of__stringdata                        mediumconst  007FFF
__end_of_configDescriptor1                  mediumconst  00798C
__end_of_device_dsc                         mediumconst  007A06
__end_of_getsUSBUSART                       text62       004658
__end_of_hexToStr                           text13       003684
__end_of_main                               text0        005008
__end_of_memset                             text70       003862
__end_of_modemResync                        text28       004010
__end_of_modemSleep                         text27       003596
__end_of_moteApp_GoToSleep                  text21       0043A0
__end_of_moteApp_add16bToDataBuffer         text20       005A32
__end_of_moteApp_add8bToDataBuffer          text17       003EE2
__end_of_moteApp_clearBuffers               text16       003B54
__end_of_moteApp_delayms                    text41       00372C
__end_of_moteApp_toggleLeds                 text6        0040E0
__end_of_moteHandler                        text8        005CF6
__end_of_moteJoiningProcess                 text35       006438
__end_of_moteRunningProcess                 text10       007640
__end_of_oled_clear                         text52       003528
__end_of_oled_clearRow                      text53       00357A
__end_of_oled_devInit                       text25       005364
__end_of_oled_displayOff                    text26       003494
__end_of_oled_init                          text22       003614
__end_of_oled_putChar                       text54       0041BC
__end_of_oled_putString                     text51       004078
__end_of_oled_putUint16                     text15       005622
__end_of_oled_putUint8                      text14       003DD0
__end_of_oled_setDisplay                    text24       0034A6
__end_of_oled_setFont                       text23       0034B8
__end_of_oled_writeCommand                  text58       003418
__end_of_oled_writeData                     text55       00340C
__end_of_putUSBUSART                        text61       00355E
__end_of_sd000                              mediumconst  007A0A
__end_of_sd001                              mediumconst  0079C0
__end_of_sd002                              mediumconst  0079F4
__end_of_sendCommand                        text39       003756
__end_of_sendDataCommand                    text12       0046EC
__end_of_service_pushbutton                 text9        003C82
__end_of_strcmp                             text37       0044AA
__end_of_strncmp                            text36       00414C
__end_of_test_adc                           text7        004CEE
__end_of_test_comms                         text5        003E2A
__end_of_test_leds                          text4        003D78
__end_of_test_oled                          text3        004322
__end_of_test_powerup                       text1        0039CE
__end_of_test_switch                        text2        004AC8
__end_of_unhex                              text11       003780
__end_ofi2_EUSART_Initialize                text115      003806
__end_ofi2_USBDeviceInit                    text88       0051B4
__end_ofi2_USBTransferOnePacket             text105      004968
__end_ofi2_memset                           text98       0037AC
__initialization                            cinit        003E2A
__mediumconst                               mediumconst  007640
__pbssBANK0                                 bssBANK0     000060
__pbssBANK1                                 bssBANK1     000100
__pbssBANK2                                 bssBANK2     000200
__pbssCOMRAM                                bssCOMRAM    000001
__pcinit                                    cinit        003E2A
__pcstackBANK0                              cstackBANK0  0000C6
__pcstackCOMRAM                             cstackCOMRAM 000030
__pdataBANK0                                dataBANK0    0000F8
__pidataBANK0                               idataBANK0   0033CF
__pintcode                                  intcode      001008
__pmediumconst                              mediumconst  007640
__ptext0                                    text0        004F36
__ptext1                                    text1        003996
__ptext10                                   text10       006438
__ptext100                                  text100      005824
__ptext101                                  text101      005CF6
__ptext102                                  text102      003B9E
__ptext103                                  text103      0039CE
__ptext104                                  text104      003C82
__ptext105                                  text105      0048C6
__ptext106                                  text106      003A86
__ptext107                                  text107      0044AA
__ptext108                                  text108      0046EC
__ptext109                                  text109      003CD2
__ptext11                                   text11       003756
__ptext110                                  text110      005A32
__ptext111                                  text111      004AC8
__ptext112                                  text112      004E68
__ptext113                                  text113      004DA8
__ptext114                                  text114      003F44
__ptext115                                  text115      0037D8
__ptext116                                  text116      0041BC
__ptext117                                  text117      0033BA
__ptext118                                  text118      0034F8
__ptext119                                  text119      0036AE
__ptext12                                   text12       004658
__ptext120                                  text120      003684
__ptext121                                  text121      0033B6
__ptext122                                  text122      000000
__ptext13                                   text13       00365E
__ptext14                                   text14       003D78
__ptext15                                   text15       00552E
__ptext16                                   text16       003B0E
__ptext17                                   text17       003E84
__ptext18                                   text18       003638
__ptext19                                   text19       0038BE
__ptext2                                    text2        004A16
__ptext20                                   text20       005928
__ptext21                                   text21       004322
__ptext22                                   text22       0035F4
__ptext23                                   text23       0034A6
__ptext24                                   text24       003494
__ptext25                                   text25       00528C
__ptext26                                   text26       003482
__ptext27                                   text27       00357A
__ptext28                                   text28       003FAA
__ptext29                                   text29       003BEA
__ptext3                                    text3        0042A8
__ptext30                                   text30       003890
__ptext31                                   text31       0033FA
__ptext32                                   text32       0035D4
__ptext33                                   text33       003B54
__ptext34                                   text34       00395E
__ptext35                                   text35       005EF8
__ptext36                                   text36       0040E0
__ptext37                                   text37       004424
__ptext38                                   text38       005442
__ptext39                                   text39       00372C
__ptext4                                    text4        003D24
__ptext40                                   text40       003424
__ptext41                                   text41       003702
__ptext42                                   text42       0033F2
__ptext43                                   text43       0033EA
__ptext44                                   text44       003928
__ptext45                                   text45       005364
__ptext46                                   text46       003A48
__ptext47                                   text47       0033CA
__ptext48                                   text48       003418
__ptext49                                   text49       0033E2
__ptext5                                    text5        003DD0
__ptext50                                   text50       004232
__ptext51                                   text51       004010
__ptext52                                   text52       003510
__ptext53                                   text53       00355E
__ptext54                                   text54       00414C
__ptext55                                   text55       003402
__ptext56                                   text56       003470
__ptext57                                   text57       003528
__ptext58                                   text58       00340C
__ptext59                                   text59       00344E
__ptext6                                    text6        004078
__ptext60                                   text60       004B7E
__ptext61                                   text61       003542
__ptext62                                   text62       0045C4
__ptext63                                   text63       0033C6
__ptext64                                   text64       001004
__ptext65                                   text65       0038F2
__ptext66                                   text66       003862
__ptext67                                   text67       005622
__ptext68                                   text68       004788
__ptext69                                   text69       0051B4
__ptext7                                    text7        004C36
__ptext70                                   text70       003834
__ptext71                                   text71       0036D8
__ptext72                                   text72       0035B4
__ptext73                                   text73       00343E
__ptext74                                   text74       0033C2
__ptext75                                   text75       0037AC
__ptext76                                   text76       0033BE
__ptext77                                   text77       003430
__ptext78                                   text78       003AC8
__ptext79                                   text79       0034E2
__ptext8                                    text8        005B4C
__ptext80                                   text80       003806
__ptext81                                   text81       00345E
__ptext82                                   text82       0034CC
__ptext83                                   text83       0033DA
__ptext84                                   text84       0034B8
__ptext86                                   text86       0033D4
__ptext87                                   text87       005722
__ptext88                                   text88       0050DC
__ptext89                                   text89       003614
__ptext9                                    text9        003C36
__ptext90                                   text90       003596
__ptext91                                   text91       003A0A
__ptext92                                   text92       004CEE
__ptext93                                   text93       003EE2
__ptext94                                   text94       005008
__ptext95                                   text95       004536
__ptext96                                   text96       004826
__ptext97                                   text97       004968
__ptext98                                   text98       003780
__ptext99                                   text99       0043A0
__ramtop                                    ramtop       000800
__size_of_ADC_GetConversion                 (abs)        000000
__size_of_ADC_Initialize                    (abs)        000000
__size_of_ADC_TempConversion                (abs)        000000
__size_of_CDCInitEP                         (abs)        000000
__size_of_CDCTxService                      (abs)        000000
__size_of_CMP1_ISR                          (abs)        000000
__size_of_CMP1_Initialize                   (abs)        000000
__size_of_DATAEE_ReadByte                   (abs)        000000
__size_of_DATAEE_WriteByte                  (abs)        000000
__size_of_EUSART_FlushBuffer                (abs)        000000
__size_of_EUSART_Initialize                 (abs)        000000
__size_of_EUSART_Read                       (abs)        000000
__size_of_EUSART_Receive_ISR                (abs)        000000
__size_of_EUSART_Transmit_ISR               (abs)        000000
__size_of_EUSART_Write                      (abs)        000000
__size_of_EndLine                           (abs)        000000
__size_of_INTERRUPT_InterruptManager        (abs)        000000
__size_of_MOTEapp_SetADR                    (abs)        000000
__size_of_MOTEapp_SetDataRate               (abs)        000000
__size_of_MOTEapp_TimerBasedTask            (abs)        000000
__size_of_MOTEapp_WriteDataRate             (abs)        000000
__size_of_MOTEapp_getModemResponse          (abs)        000000
__size_of_MOTEapp_handlerState              (abs)        000000
__size_of_MOTEapp_setResponseReady          (abs)        000000
__size_of_OSCILLATOR_Initialize             (abs)        000000
__size_of_PIN_MANAGER_Initialize            (abs)        000000
__size_of_SPI_Exchange8bit                  (abs)        000000
__size_of_SPI_Initialize                    (abs)        000000
__size_of_SYSTEM_Initialize                 (abs)        000000
__size_of_Set_Column_Address                (abs)        000000
__size_of_Set_Page_Address                  (abs)        000000
__size_of_TMR1_ISR                          (abs)        000000
__size_of_TMR1_Initialize                   (abs)        000000
__size_of_TMR1_StartTimer                   (abs)        000000
__size_of_TMR2_Initialize                   (abs)        000000
__size_of_TMR2_ReadTimer                    (abs)        000000
__size_of_TMR2_StartTimer                   (abs)        000000
__size_of_TMRapp_ClearBitFlags              (abs)        000000
__size_of_TMRapp_Handler                    (abs)        000000
__size_of_TMRapp_Tick                       (abs)        000000
__size_of_USART_mySetLineCodingHandler      (abs)        000000
__size_of_USBCheckCDCRequest                (abs)        000000
__size_of_USBCheckStdRequest                (abs)        000000
__size_of_USBConfigureEndpoint              (abs)        000000
__size_of_USBCtrlEPAllowDataStage           (abs)        000000
__size_of_USBCtrlEPAllowStatusStage         (abs)        000000
__size_of_USBCtrlEPService                  (abs)        000000
__size_of_USBCtrlEPServiceComplete          (abs)        000000
__size_of_USBCtrlTrfInHandler               (abs)        000000
__size_of_USBCtrlTrfOutHandler              (abs)        000000
__size_of_USBCtrlTrfRxService               (abs)        000000
__size_of_USBCtrlTrfSetupHandler            (abs)        000000
__size_of_USBCtrlTrfTxService               (abs)        000000
__size_of_USBDeviceAttach                   (abs)        000000
__size_of_USBDeviceInit                     (abs)        000000
__size_of_USBDeviceTasks                    (abs)        000000
__size_of_USBEnableEndpoint                 (abs)        000000
__size_of_USBStallHandler                   (abs)        000000
__size_of_USBStdFeatureReqHandler           (abs)        000000
__size_of_USBStdGetDscHandler               (abs)        000000
__size_of_USBStdGetStatusHandler            (abs)        000000
__size_of_USBStdSetCfgHandler               (abs)        000000
__size_of_USBSuspend                        (abs)        000000
__size_of_USBTransferOnePacket              (abs)        000000
__size_of_USBWakeFromSuspend                (abs)        000000
__size_of_USBapp_CdcEmulatorInitialize      (abs)        000000
__size_of_USBapp_DeviceCdcEmulatorHandler   (abs)        000000
__size_of_USBapp_Handler                    (abs)        000000
__size_of_USBapp_getrxByteFlag              (abs)        000000
__size_of_USBapp_handlerState               (abs)        000000
__size_of_USBapp_setrxByteFlag              (abs)        000000
__size_of_USER_USB_CALLBACK_EVENT_HANDLER   (abs)        000000
__size_of___lbdiv                           (abs)        000000
__size_of___lbmod                           (abs)        000000
__size_of___lldiv                           (abs)        000000
__size_of___lwdiv                           (abs)        000000
__size_of___lwmod                           (abs)        000000
__size_of_getsUSBUSART                      (abs)        000000
__size_of_hexToStr                          (abs)        000000
__size_of_main                              (abs)        000000
__size_of_memset                            (abs)        000000
__size_of_modemResync                       (abs)        000000
__size_of_modemSleep                        (abs)        000000
__size_of_moteApp_GoToSleep                 (abs)        000000
__size_of_moteApp_add16bToDataBuffer        (abs)        000000
__size_of_moteApp_add8bToDataBuffer         (abs)        000000
__size_of_moteApp_clearBuffers              (abs)        000000
__size_of_moteApp_delayms                   (abs)        000000
__size_of_moteApp_toggleLeds                (abs)        000000
__size_of_moteHandler                       (abs)        000000
__size_of_moteJoiningProcess                (abs)        000000
__size_of_moteRunningProcess                (abs)        000000
__size_of_oled_clear                        (abs)        000000
__size_of_oled_clearRow                     (abs)        000000
__size_of_oled_devInit                      (abs)        000000
__size_of_oled_displayOff                   (abs)        000000
__size_of_oled_init                         (abs)        000000
__size_of_oled_putChar                      (abs)        000000
__size_of_oled_putString                    (abs)        000000
__size_of_oled_putUint16                    (abs)        000000
__size_of_oled_putUint8                     (abs)        000000
__size_of_oled_setDisplay                   (abs)        000000
__size_of_oled_setFont                      (abs)        000000
__size_of_oled_writeCommand                 (abs)        000000
__size_of_oled_writeData                    (abs)        000000
__size_of_putUSBUSART                       (abs)        000000
__size_of_sendCommand                       (abs)        000000
__size_of_sendDataCommand                   (abs)        000000
__size_of_service_pushbutton                (abs)        000000
__size_of_strcmp                            (abs)        000000
__size_of_strncmp                           (abs)        000000
__size_of_test_adc                          (abs)        000000
__size_of_test_comms                        (abs)        000000
__size_of_test_leds                         (abs)        000000
__size_of_test_oled                         (abs)        000000
__size_of_test_powerup                      (abs)        000000
__size_of_test_switch                       (abs)        000000
__size_of_unhex                             (abs)        000000
__size_ofi2_EUSART_Initialize               (abs)        000000
__size_ofi2_USBDeviceInit                   (abs)        000000
__size_ofi2_USBTransferOnePacket            (abs)        000000
__size_ofi2_memset                          (abs)        000000
__smallconst                                smallconst   000000
__stringdata                                mediumconst  007A0A
_activeState                                bssBANK0     00008A
_adrStatus                                  bssBANK0     00008B
_appTimer                                   bssBANK0     00008C
_cdc_data_rx                                (abs)        000540
_cdc_data_tx                                (abs)        000500
_cdc_mem_type                               bssBANK0     00008D
_cdc_notice                                 bssBANK0     0000A8
_cdc_rx_len                                 bssCOMRAM    00001D
_cdc_trf_state                              bssCOMRAM    00001E
_cdc_tx_len                                 bssBANK0     00008E
_configDescriptor1                          mediumconst  007949
_controlTransferState                       bssCOMRAM    00001F
_dataBuffer                                 bssBANK0     00009C
_dataRatePosition                           bssBANK0     00008F
_dataRateSelection                          dataBANK0    0000FA
_device_dsc                                 mediumconst  0079F4
_dummy_encapsulated_cmd_response            bssBANK1     0001D0
_endpoint_number                            bssCOMRAM    000020
_ep_data_in                                 bssBANK0     00006A
_ep_data_out                                bssBANK0     00006D
_eusartRxBuffer                             bssBANK1     000100
_eusartRxCount                              bssBANK0     000090
_eusartRxHead                               bssCOMRAM    000021
_eusartRxTail                               bssCOMRAM    000022
_eusartTxBuffer                             bssBANK2     000200
_eusartTxBufferRemaining                    bssCOMRAM    000023
_eusartTxHead                               bssCOMRAM    000024
_eusartTxTail                               bssCOMRAM    000025
_getsUSBUSART                               text62       0045C4
_getsUSBUSART$5736                          cstackBANK0  0000D1
_hexToStr                                   text13       00365E
_inPipes                                    bssCOMRAM    000028
_light                                      bssBANK0     00007A
_line_coding                                bssBANK0     0000BA
_m10SecTicker                               bssBANK0     000091
_main                                       text0        004F36
_memset                                     text70       003834
_modemBufferIndex                           bssBANK0     000092
_modemResonseBuffer                         bssBANK1     000180
_modemResync                                text28       003FAA
_modemSleep                                 text27       00357A
_moteApp_GoToSleep                          text21       004322
_moteApp_add16bToDataBuffer                 text20       005928
_moteApp_add8bToDataBuffer                  text17       003E84
_moteApp_clearBuffers                       text16       003B0E
_moteApp_delayms                            text41       003702
_moteApp_toggleLeds                         text6        004078
_moteHandler                                text8        005B4C
_moteJoiningProcess                         text35       005EF8
_moteRunningProcess                         text10       006438
_moteState                                  dataBANK0    0000FB
_oled_clear                                 text52       003510
_oled_clearRow                              text53       00355E
_oled_devInit                               text25       00528C
_oled_displayOff                            text26       003482
_oled_init                                  text22       0035F4
_oled_putChar                               text54       00414C
_oled_putString                             text51       004010
_oled_putUint16                             text15       00552E
_oled_putUint8                              text14       003D78
_oled_setDisplay                            text24       003494
_oled_setFont                               text23       0034A6
_oled_writeCommand                          text58       00340C
_oled_writeData                             text55       003402
_operationType                              bssBANK0     000093
_outPipes                                   bssCOMRAM    000001
_pBDTEntryEP0OutCurrent                     bssCOMRAM    00000F
_pBDTEntryEP0OutNext                        bssCOMRAM    000011
_pBDTEntryIn                                bssCOMRAM    000009
_pBDTEntryOut                               bssBANK0     000060
_pCDCDst                                    bssBANK0     000070
_pCDCSrc                                    bssBANK0     000073
_pDst                                       bssBANK0     00007C
_periodicState                              dataBANK0    0000FC
_powerOnStatus                              bssBANK0     000094
_putUSBUSART                                text61       003542
_randomPortNum                              bssBANK0     000095
_responseData                               bssBANK0     0000B2
_responseId                                 bssBANK1     0001C0
_responsePortNum                            bssBANK0     0000C1
_runningState                               bssBANK0     000096
_rxByteFlag                                 bssCOMRAM    000026
_sd000                                      mediumconst  007A06
_sd001                                      mediumconst  00798C
_sd002                                      mediumconst  0079C0
_secTicker                                  bssBANK0     000097
_selectedFont                               dataBANK0    0000F8
_sendCommand                                text39       00372C
_sendDataCommand                            text12       004658
_service_pushbutton                         text9        003C36
_shortPacketStatus                          bssCOMRAM    000027
_sleepTicker                                bssBANK0     000098
_sleepTxOccurances                          bssBANK0     000099
_strcmp                                     text37       004424
_strncmp                                    text36       0040E0
_temperature                                bssBANK0     00007E
_test_adc                                   text7        004C36
_test_comms                                 text5        003DD0
_test_leds                                  text4        003D24
_test_oled                                  text3        0042A8
_test_powerup                               text1        003996
_test_switch                                text2        004A16
_timer1ReloadVal                            bssBANK0     000080
_timerMinTickCount                          bssBANK0     000082
_timerMsTickCount                           bssBANK0     000084
_unhex                                      text11       003756
_usbState                                   bssBANK0     00009A
end_of_initialization                       cinit        003E7A
getsUSBUSART@buffer                         cstackBANK0  0000CD
getsUSBUSART@len                            cstackBANK0  0000CF
hexToStr@character                          cstackBANK0  0000C6
i2USBDeviceInit@i                           cstackCOMRAM 000038
i2USBTransferOnePacket@data                 cstackCOMRAM 000031
i2USBTransferOnePacket@dir                  cstackCOMRAM 000030
i2USBTransferOnePacket@ep                   cstackCOMRAM 000034
i2USBTransferOnePacket@handle               cstackCOMRAM 000035
i2USBTransferOnePacket@len                  cstackCOMRAM 000033
i2_EUSART_Initialize                        text115      0037D8
i2_USBDeviceInit                            text88       0050DC
i2_USBTransferOnePacket                     text105      0048C6
i2_memset                                   text98       003780
i2memset@c                                  cstackCOMRAM 000032
i2memset@n                                  cstackCOMRAM 000034
i2memset@p                                  cstackCOMRAM 000036
i2memset@p1                                 cstackCOMRAM 000030
intlevel0                                   text         000000
intlevel1                                   text         000000
intlevel2                                   text         000000
intlevel3                                   text         000000
memset@c                                    cstackBANK0  0000C8
memset@n                                    cstackBANK0  0000CA
memset@p                                    cstackBANK0  0000CC
memset@p1                                   cstackBANK0  0000C6
modemResync@escapeCounter                   cstackBANK0  0000CB
modemResync@escapeEvent                     cstackBANK0  0000CD
moteApp_GoToSleep@status                    cstackBANK0  0000D5
moteApp_add16bToDataBuffer@bufferLocation   cstackBANK0  0000CF
moteApp_add16bToDataBuffer@number           cstackBANK0  0000CD
moteApp_add8bToDataBuffer@bufferLocation    cstackBANK0  0000CA
moteApp_add8bToDataBuffer@number            cstackBANK0  0000CB
moteApp_clearBuffers@counter                cstackBANK0  0000C6
moteApp_clearBuffers@counter_1700           cstackBANK0  0000C7
moteApp_clearBuffers@counter_1701           cstackBANK0  0000C8
moteApp_delayms@counter                     cstackBANK0  0000C9
moteApp_delayms@length                      cstackBANK0  0000C6
moteApp_toggleLeds@state                    cstackBANK0  0000CB
moteHandler@Traw                            cstackBANK0  0000F1
moteHandler@buttonPress                     cstackBANK0  0000F4
moteHandler@gotoNextState                   cstackBANK0  0000F0
moteHandler@gotoSleep                       cstackBANK0  0000EF
moteHandler@i                               cstackBANK0  0000F5
moteHandler@i_1340                          cstackBANK0  0000F6
moteHandler@readMessage                     cstackBANK0  0000F7
moteHandler@s2Button                        cstackBANK0  0000F3
moteJoiningProcess@joiningComplete          cstackBANK0  0000D9
moteJoiningProcess@messageReady             cstackBANK0  0000DB
moteJoiningProcess@readDataRate             cstackBANK0  0000DA
moteJoiningProcess@switchEvent              cstackBANK0  0000D8
moteRunningProcess@Traw                     cstackBANK0  0000E5
moteRunningProcess@bufferReadPos            cstackBANK0  0000ED
moteRunningProcess@changeStates             cstackBANK0  0000EE
moteRunningProcess@counter                  cstackBANK0  0000EB
moteRunningProcess@counter_1556             cstackBANK0  0000EC
moteRunningProcess@dummyRead1               cstackBANK0  0000E9
moteRunningProcess@dummyRead2               cstackBANK0  0000EA
moteRunningProcess@i                        cstackBANK0  0000E7
moteRunningProcess@i_1410                   cstackBANK0  0000E8
moteRunningProcess@messageReady             cstackBANK0  0000E3
moteRunningProcess@selectButton             cstackBANK0  0000E2
moteRunningProcess@sleepEvent               cstackBANK0  0000E4
oled_clearRow@index                         cstackBANK0  0000D4
oled_clearRow@page                          cstackBANK0  0000D3
oled_displayOff@state                       cstackBANK0  0000C8
oled_putChar@index                          cstackBANK0  0000D2
oled_putChar@k                              cstackBANK0  0000D1
oled_putChar@start_page                     cstackBANK0  0000CA
oled_putChar@station_dot                    cstackBANK0  0000C9
oled_putString@index                        cstackBANK0  0000D7
oled_putString@start_page                   cstackBANK0  0000D6
oled_putString@station_dot                  cstackBANK0  0000D5
oled_putString@string                       cstackBANK0  0000D3
oled_putUint16@numData                      cstackBANK0  0000DC
oled_putUint16@number                       cstackBANK0  0000D8
oled_putUint16@start_page                   cstackBANK0  0000DB
oled_putUint16@station_dot                  cstackBANK0  0000DA
oled_putUint8@numData                       cstackBANK0  0000DB
oled_putUint8@number                        cstackBANK0  0000DA
oled_putUint8@start_page                    cstackBANK0  0000D9
oled_putUint8@station_dot                   cstackBANK0  0000D8
oled_setDisplay@displayType                 cstackBANK0  0000C8
oled_setFont@font                           cstackBANK0  0000C6
oled_writeCommand@command                   cstackBANK0  0000C7
oled_writeData@data                         cstackBANK0  0000C7
putUSBUSART@data                            cstackBANK0  0000C6
putUSBUSART@length                          cstackBANK0  0000C8
sendCommand@string                          cstackBANK0  0000C7
sendDataCommand@appData                     cstackBANK0  0000C9
sendDataCommand@byteCount                   cstackBANK0  0000CC
sendDataCommand@byteCount_1637              cstackBANK0  0000CD
sendDataCommand@dataLength                  cstackBANK0  0000CA
sendDataCommand@string                      cstackBANK0  0000C7
service_pushbutton@PB_Timer                 bssBANK0     000066
service_pushbutton@Release_Timer            bssBANK0     00009B
service_pushbutton@bs                       cstackBANK0  0000C6
stackhi                                     (abs)        0007FF
stacklo                                     (abs)        000580
start                                       init         0010A6
start_initialization                        cinit        003E2A
strcmp@s1                                   cstackBANK0  0000C6
strcmp@s2                                   cstackBANK0  0000C8
strcmp@t0                                   cstackBANK0  0000CC
strcmp@t1                                   cstackBANK0  0000CE
strcmp@t2                                   cstackBANK0  0000CD
strncmp@len                                 cstackBANK0  0000CA
strncmp@s1                                  cstackBANK0  0000C6
strncmp@s2                                  cstackBANK0  0000C8
test_adc@L                                  cstackBANK0  0000E2
test_adc@T                                  cstackBANK0  0000E6
test_adc@Traw                               cstackBANK0  0000E4
test_adc@count                              cstackBANK0  0000E7
test_switch@buttonCheck                     cstackBANK0  0000DA
test_switch@timeout                         cstackBANK0  0000D8
unhex@c                                     cstackBANK0  0000C6


FUNCTION INFORMATION:

 *************** function _main *****************
 Defined at:
		line 40 in file "main.c"
 Parameters:    Size  Location     Type
		None
 Auto vars:     Size  Location     Type
		None
 Return value:  Size  Location     Type
		None               void
 Registers used:
		wreg, fsr1l, fsr1h, fsr2l, fsr2h, status,2, status,0, tblptrl, tblptrh, tblptru, prodl, prodh, cstack
 Tracked objects:
		On entry : 
		On exit  : 
		Unchanged: 
 Data sizes:     COMRAM   BANK0   BANK1   BANK2   BANK3   BANK4   BANK5   BANK6   BANK7
      Params:         0       0       0       0       0       0       0       0       0
      Locals:         0       0       0       0       0       0       0       0       0
      Temps:          0       0       0       0       0       0       0       0       0
      Totals:         0       0       0       0       0       0       0       0       0
Total ram usage:        0 bytes
 Hardware stack levels required when called:   21
 This function calls:
		_DATAEE_ReadByte
		_DATAEE_WriteByte
		_MOTEapp_handlerState
		_SYSTEM_Initialize
		_USBDeviceAttach
		_USBDeviceInit
		_USBapp_Handler
		_USBapp_handlerState
		_modemResync
		_moteApp_delayms
		_moteHandler
		_oled_clear
		_oled_init
		_oled_putString
		_test_powerup
 This function is called by:
		Startup code after reset
 This function uses a non-reentrant model


 *************** function _test_powerup *****************
 Defined at:
		line 27 in file "../Includes/Board/poweruptest.c"
 Parameters:    Size  Location     Type
		None
 Auto vars:     Size  Location     Type
		None
 Return value:  Size  Location     Type
		None               void
 Registers used:
		wreg, fsr1l, fsr1h, fsr2l, fsr2h, status,2, status,0, tblptrl, tblptrh, tblptru, prodl, prodh, cstack
 Tracked objects:
		On entry : 
		On exit  : 
		Unchanged: 
 Data sizes:     COMRAM   BANK0   BANK1   BANK2   BANK3   BANK4   BANK5   BANK6   BANK7
      Params:         0       0       0       0       0       0       0       0       0
      Locals:         0       0       0       0       0       0       0       0       0
      Temps:          0       0       0       0       0       0       0       0       0
      Totals:         0       0       0       0       0       0       0       0       0
Total ram usage:        0 bytes
 Hardware stack levels used:    1
 Hardware stack levels required when called:   18
 This function calls:
		_moteApp_delayms
		_oled_clear
		_test_adc
		_test_comms
		_test_leds
		_test_oled
		_test_switch
 This function is called by:
		_main
 This function uses a non-reentrant model


 *************** function _test_switch *****************
 Defined at:
		line 60 in file "../Includes/Board/poweruptest.c"
 Parameters:    Size  Location     Type
		None
 Auto vars:     Size  Location     Type
  timeout         2   18[BANK0 ] unsigned int 
  buttonCheck     1   20[BANK0 ] unsigned char 
 Return value:  Size  Location     Type
		None               void
 Registers used:
		wreg, fsr1l, fsr1h, status,2, status,0, tblptrl, tblptrh, tblptru, prodl, prodh, cstack
 Tracked objects:
		On entry : 
		On exit  : 
		Unchanged: 
 Data sizes:     COMRAM   BANK0   BANK1   BANK2   BANK3   BANK4   BANK5   BANK6   BANK7
      Params:         0       0       0       0       0       0       0       0       0
      Locals:         0       3       0       0       0       0       0       0       0
      Temps:          0       0       0       0       0       0       0       0       0
      Totals:         0       3       0       0       0       0       0       0       0
Total ram usage:        3 bytes
 Hardware stack levels used:    1
 Hardware stack levels required when called:   17
 This function calls:
		_moteApp_delayms
		_oled_clear
		_oled_putString
 This function is called by:
		_test_powerup
 This function uses a non-reentrant model


 *************** function _test_oled *****************
 Defined at:
		line 47 in file "../Includes/Board/poweruptest.c"
 Parameters:    Size  Location     Type
		None
 Auto vars:     Size  Location     Type
		None
 Return value:  Size  Location     Type
		None               void
 Registers used:
		wreg, fsr1l, fsr1h, status,2, status,0, tblptrl, tblptrh, tblptru, prodl, prodh, cstack
 Tracked objects:
		On entry : 
		On exit  : 
		Unchanged: 
 Data sizes:     COMRAM   BANK0   BANK1   BANK2   BANK3   BANK4   BANK5   BANK6   BANK7
      Params:         0       0       0       0       0       0       0       0       0
      Locals:         0       0       0       0       0       0       0       0       0
      Temps:          0       0       0       0       0       0       0       0       0
      Totals:         0       0       0       0       0       0       0       0       0
Total ram usage:        0 bytes
 Hardware stack levels used:    1
 Hardware stack levels required when called:   17
 This function calls:
		_oled_clear
		_oled_putString
 This function is called by:
		_test_powerup
 This function uses a non-reentrant model


 *************** function _test_leds *****************
 Defined at:
		line 108 in file "../Includes/Board/poweruptest.c"
 Parameters:    Size  Location     Type
		None
 Auto vars:     Size  Location     Type
		None
 Return value:  Size  Location     Type
		None               void
 Registers used:
		wreg, fsr1l, fsr1h, status,2, status,0, tblptrl, tblptrh, tblptru, prodl, prodh, cstack
 Tracked objects:
		On entry : 
		On exit  : 
		Unchanged: 
 Data sizes:     COMRAM   BANK0   BANK1   BANK2   BANK3   BANK4   BANK5   BANK6   BANK7
      Params:         0       0       0       0       0       0       0       0       0
      Locals:         0       0       0       0       0       0       0       0       0
      Temps:          0       0       0       0       0       0       0       0       0
      Totals:         0       0       0       0       0       0       0       0       0
Total ram usage:        0 bytes
 Hardware stack levels used:    1
 Hardware stack levels required when called:   16
 This function calls:
		_moteApp_delayms
		_oled_putString
 This function is called by:
		_test_powerup
 This function uses a non-reentrant model


 *************** function _test_comms *****************
 Defined at:
		line 95 in file "../Includes/Board/poweruptest.c"
 Parameters:    Size  Location     Type
		None
 Auto vars:     Size  Location     Type
		None
 Return value:  Size  Location     Type
		None               void
 Registers used:
		wreg, fsr1l, fsr1h, fsr2l, fsr2h, status,2, status,0, tblptrl, tblptrh, tblptru, prodl, prodh, cstack
 Tracked objects:
		On entry : 
		On exit  : 
		Unchanged: 
 Data sizes:     COMRAM   BANK0   BANK1   BANK2   BANK3   BANK4   BANK5   BANK6   BANK7
      Params:         0       0       0       0       0       0       0       0       0
      Locals:         0       0       0       0       0       0       0       0       0
      Temps:          0       0       0       0       0       0       0       0       0
      Totals:         0       0       0       0       0       0       0       0       0
Total ram usage:        0 bytes
 Hardware stack levels used:    1
 Hardware stack levels required when called:   16
 This function calls:
		_moteApp_delayms
		_moteApp_toggleLeds
		_oled_putString
 This function is called by:
		_test_powerup
 This function uses a non-reentrant model


 *************** function _moteApp_toggleLeds *****************
 Defined at:
		line 1365 in file "../Includes/Board/MOTEapp.c"
 Parameters:    Size  Location     Type
  state           1    wreg     unsigned char 
 Auto vars:     Size  Location     Type
  state           1    5[BANK0 ] unsigned char 
 Return value:  Size  Location     Type
		None               void
 Registers used:
		wreg, fsr2l, fsr2h, status,2, status,0, tblptrl, tblptrh, tblptru, cstack
 Tracked objects:
		On entry : 
		On exit  : 
		Unchanged: 
 Data sizes:     COMRAM   BANK0   BANK1   BANK2   BANK3   BANK4   BANK5   BANK6   BANK7
      Params:         0       0       0       0       0       0       0       0       0
      Locals:         0       1       0       0       0       0       0       0       0
      Temps:          0       0       0       0       0       0       0       0       0
      Totals:         0       1       0       0       0       0       0       0       0
Total ram usage:        1 bytes
 Hardware stack levels used:    1
 Hardware stack levels required when called:   14
 This function calls:
		_moteApp_delayms
		_sendCommand
 This function is called by:
		_test_comms
 This function uses a non-reentrant model


 *************** function _test_adc *****************
 Defined at:
		line 126 in file "../Includes/Board/poweruptest.c"
 Parameters:    Size  Location     Type
		None
 Auto vars:     Size  Location     Type
  Traw            2   30[BANK0 ] unsigned int 
  L               2   28[BANK0 ] unsigned int 
  F               2    0        unsigned int 
  count           1   33[BANK0 ] unsigned char 
  T               1   32[BANK0 ] unsigned char 
 Return value:  Size  Location     Type
		None               void
 Registers used:
		wreg, fsr1l, fsr1h, status,2, status,0, tblptrl, tblptrh, tblptru, prodl, prodh, cstack
 Tracked objects:
		On entry : 
		On exit  : 
		Unchanged: 
 Data sizes:     COMRAM   BANK0   BANK1   BANK2   BANK3   BANK4   BANK5   BANK6   BANK7
      Params:         0       0       0       0       0       0       0       0       0
      Locals:         0       6       0       0       0       0       0       0       0
      Temps:          0       0       0       0       0       0       0       0       0
      Totals:         0       6       0       0       0       0       0       0       0
Total ram usage:        6 bytes
 Hardware stack levels used:    1
 Hardware stack levels required when called:   17
 This function calls:
		_ADC_GetConversion
		_ADC_TempConversion
		_moteApp_delayms
		_oled_clear
		_oled_putChar
		_oled_putString
		_oled_putUint16
		_oled_putUint8
 This function is called by:
		_test_powerup
 This function uses a non-reentrant model


 *************** function _moteHandler *****************
 Defined at:
		line 159 in file "../Includes/Board/MOTEapp.c"
 Parameters:    Size  Location     Type
		None
 Auto vars:     Size  Location     Type
  i               1   48[BANK0 ] unsigned char 
  i               1   47[BANK0 ] unsigned char 
  Traw            2   43[BANK0 ] unsigned int 
  readMessage     1   49[BANK0 ] unsigned char 
  buttonPress     1   46[BANK0 ] enum E7122
  s2Button        1   45[BANK0 ] unsigned char 
  gotoNextStat    1   42[BANK0 ] unsigned char 
  gotoSleep       1   41[BANK0 ] unsigned char 
 Return value:  Size  Location     Type
                  1    wreg      enum E8067
 Registers used:
		wreg, fsr1l, fsr1h, fsr2l, fsr2h, status,2, status,0, tblptrl, tblptrh, tblptru, prodl, prodh, cstack
 Tracked objects:
		On entry : 
		On exit  : 
		Unchanged: 
 Data sizes:     COMRAM   BANK0   BANK1   BANK2   BANK3   BANK4   BANK5   BANK6   BANK7
      Params:         0       0       0       0       0       0       0       0       0
      Locals:         0       9       0       0       0       0       0       0       0
      Temps:          0       0       0       0       0       0       0       0       0
      Totals:         0       9       0       0       0       0       0       0       0
Total ram usage:        9 bytes
 Hardware stack levels used:    1
 Hardware stack levels required when called:   20
 This function calls:
		_ADC_GetConversion
		_ADC_TempConversion
		_MOTEapp_TimerBasedTask
		_MOTEapp_getModemResponse
		_TMRapp_ClearBitFlags
		_TMRapp_Handler
		_moteApp_delayms
		_moteJoiningProcess
		_moteRunningProcess
		_oled_clear
		_oled_putString
		_service_pushbutton
 This function is called by:
		_main
 This function uses a non-reentrant model


 *************** function _service_pushbutton *****************
 Defined at:
		line 14 in file "../Includes/Drivers/buttons.c"
 Parameters:    Size  Location     Type
		None
 Auto vars:     Size  Location     Type
  bs              1    0[BANK0 ] enum E7036
 Return value:  Size  Location     Type
                  1    wreg      enum E7122
 Registers used:
		wreg, status,2, status,0
 Tracked objects:
		On entry : 
		On exit  : 
		Unchanged: 
 Data sizes:     COMRAM   BANK0   BANK1   BANK2   BANK3   BANK4   BANK5   BANK6   BANK7
      Params:         0       0       0       0       0       0       0       0       0
      Locals:         0       1       0       0       0       0       0       0       0
      Temps:          0       0       0       0       0       0       0       0       0
      Totals:         0       1       0       0       0       0       0       0       0
Total ram usage:        1 bytes
 Hardware stack levels used:    1
 Hardware stack levels required when called:   11
 This function calls:
		Nothing
 This function is called by:
		_moteHandler
 This function uses a non-reentrant model


 *************** function _moteRunningProcess *****************
 Defined at:
		line 492 in file "../Includes/Board/MOTEapp.c"
 Parameters:    Size  Location     Type
  changeStates    1    wreg     unsigned char 
  selectButton    1   28[BANK0 ] unsigned char 
  messageReady    1   29[BANK0 ] unsigned char 
  sleepEvent      1   30[BANK0 ] unsigned char 
 Auto vars:     Size  Location     Type
  changeStates    1   40[BANK0 ] unsigned char 
  counter         1   38[BANK0 ] unsigned char 
  counter         1   37[BANK0 ] unsigned char 
  bufferReadPo    1   39[BANK0 ] unsigned char 
  dummyRead2      1   36[BANK0 ] unsigned char 
  dummyRead1      1   35[BANK0 ] unsigned char 
  i               1   34[BANK0 ] unsigned char 
  i               1   33[BANK0 ] unsigned char 
  Traw            2   31[BANK0 ] unsigned int 
  readByte        1    0        unsigned char 
 Return value:  Size  Location     Type
                  1    wreg      enum E7342
 Registers used:
		wreg, fsr1l, fsr1h, fsr2l, fsr2h, status,2, status,0, tblptrl, tblptrh, tblptru, prodl, prodh, cstack
 Tracked objects:
		On entry : 
		On exit  : 
		Unchanged: 
 Data sizes:     COMRAM   BANK0   BANK1   BANK2   BANK3   BANK4   BANK5   BANK6   BANK7
      Params:         0       3       0       0       0       0       0       0       0
      Locals:         0      10       0       0       0       0       0       0       0
      Temps:          0       0       0       0       0       0       0       0       0
      Totals:         0      13       0       0       0       0       0       0       0
Total ram usage:       13 bytes
 Hardware stack levels used:    1
 Hardware stack levels required when called:   19
 This function calls:
		_ADC_GetConversion
		_ADC_TempConversion
		_MOTEapp_SetADR
		_MOTEapp_SetDataRate
		_MOTEapp_WriteDataRate
		_TMR2_ReadTimer
		_moteApp_GoToSleep
		_moteApp_add16bToDataBuffer
		_moteApp_add8bToDataBuffer
		_moteApp_clearBuffers
		_moteApp_delayms
		_oled_clear
		_oled_putString
		_oled_putUint16
		_oled_putUint8
		_sendDataCommand
		_strcmp
		_strncmp
		_unhex
 This function is called by:
		_moteHandler
 This function uses a non-reentrant model


 *************** function _unhex *****************
 Defined at:
		line 1264 in file "../Includes/Board/MOTEapp.c"
 Parameters:    Size  Location     Type
  c               1    wreg     unsigned char 
 Auto vars:     Size  Location     Type
  c               1    0[BANK0 ] unsigned char 
 Return value:  Size  Location     Type
                  1    wreg      unsigned char 
 Registers used:
		wreg, status,2, status,0
 Tracked objects:
		On entry : 
		On exit  : 
		Unchanged: 
 Data sizes:     COMRAM   BANK0   BANK1   BANK2   BANK3   BANK4   BANK5   BANK6   BANK7
      Params:         0       0       0       0       0       0       0       0       0
      Locals:         0       1       0       0       0       0       0       0       0
      Temps:          0       0       0       0       0       0       0       0       0
      Totals:         0       1       0       0       0       0       0       0       0
Total ram usage:        1 bytes
 Hardware stack levels used:    1
 Hardware stack levels required when called:   11
 This function calls:
		Nothing
 This function is called by:
		_moteRunningProcess
 This function uses a non-reentrant model


 *************** function _sendDataCommand *****************
 Defined at:
		line 1241 in file "../Includes/Board/MOTEapp.c"
 Parameters:    Size  Location     Type
  string          2    1[BANK0 ] PTR const unsigned char 
		 -> STR_207(12), STR_206(14), STR_79(14), STR_77(12), 
  appData         1    3[BANK0 ] PTR unsigned char 
		 -> dataBuffer(12), 
  dataLength      1    4[BANK0 ] unsigned char 
 Auto vars:     Size  Location     Type
  byteCount       1    7[BANK0 ] unsigned char 
  byteCount       1    6[BANK0 ] unsigned char 
 Return value:  Size  Location     Type
		None               void
 Registers used:
		wreg, fsr2l, fsr2h, status,2, status,0, tblptrl, tblptrh, tblptru, cstack
 Tracked objects:
		On entry : 
		On exit  : 
		Unchanged: 
 Data sizes:     COMRAM   BANK0   BANK1   BANK2   BANK3   BANK4   BANK5   BANK6   BANK7
      Params:         0       4       0       0       0       0       0       0       0
      Locals:         0       2       0       0       0       0       0       0       0
      Temps:          0       1       0       0       0       0       0       0       0
      Totals:         0       7       0       0       0       0       0       0       0
Total ram usage:        7 bytes
 Hardware stack levels used:    1
 Hardware stack levels required when called:   13
 This function calls:
		_EUSART_Write
		_EndLine
		_hexToStr
 This function is called by:
		_moteRunningProcess
 This function uses a non-reentrant model


 *************** function _hexToStr *****************
 Defined at:
		line 1273 in file "../Includes/Board/MOTEapp.c"
 Parameters:    Size  Location     Type
  character       1    wreg     unsigned char 
 Auto vars:     Size  Location     Type
  character       1    0[BANK0 ] unsigned char 
 Return value:  Size  Location     Type
                  1    wreg      unsigned char 
 Registers used:
		wreg, status,2, status,0
 Tracked objects:
		On entry : 
		On exit  : 
		Unchanged: 
 Data sizes:     COMRAM   BANK0   BANK1   BANK2   BANK3   BANK4   BANK5   BANK6   BANK7
      Params:         0       0       0       0       0       0       0       0       0
      Locals:         0       1       0       0       0       0       0       0       0
      Temps:          0       0       0       0       0       0       0       0       0
      Totals:         0       1       0       0       0       0       0       0       0
Total ram usage:        1 bytes
 Hardware stack levels used:    1
 Hardware stack levels required when called:   11
 This function calls:
		Nothing
 This function is called by:
		_sendDataCommand
 This function uses a non-reentrant model


 *************** function _oled_putUint8 *****************
 Defined at:
		line 226 in file "../Includes/Drivers/SSD1306oLED.c"
 Parameters:    Size  Location     Type
  number          1    wreg     unsigned char 
  station_dot     1   18[BANK0 ] unsigned char 
  start_page      1   19[BANK0 ] unsigned char 
 Auto vars:     Size  Location     Type
  number          1   20[BANK0 ] unsigned char 
  numData         6   21[BANK0 ] struct .
 Return value:  Size  Location     Type
		None               void
 Registers used:
		wreg, fsr1l, fsr1h, status,2, status,0, tblptrl, tblptrh, tblptru, prodl, prodh, cstack
 Tracked objects:
		On entry : 
		On exit  : 
		Unchanged: 
 Data sizes:     COMRAM   BANK0   BANK1   BANK2   BANK3   BANK4   BANK5   BANK6   BANK7
      Params:         0       2       0       0       0       0       0       0       0
      Locals:         0       7       0       0       0       0       0       0       0
      Temps:          0       0       0       0       0       0       0       0       0
      Totals:         0       9       0       0       0       0       0       0       0
Total ram usage:        9 bytes
 Hardware stack levels used:    1
 Hardware stack levels required when called:   16
 This function calls:
		___lbdiv
		___lbmod
		_oled_putString
 This function is called by:
		_test_adc
		_moteRunningProcess
 This function uses a non-reentrant model


 *************** function _oled_putUint16 *****************
 Defined at:
		line 240 in file "../Includes/Drivers/SSD1306oLED.c"
 Parameters:    Size  Location     Type
  number          2   18[BANK0 ] unsigned int 
  station_dot     1   20[BANK0 ] unsigned char 
  start_page      1   21[BANK0 ] unsigned char 
 Auto vars:     Size  Location     Type
  numData         6   22[BANK0 ] struct .
 Return value:  Size  Location     Type
		None               void
 Registers used:
		wreg, fsr1l, fsr1h, status,2, status,0, tblptrl, tblptrh, tblptru, prodl, prodh, cstack
 Tracked objects:
		On entry : 
		On exit  : 
		Unchanged: 
 Data sizes:     COMRAM   BANK0   BANK1   BANK2   BANK3   BANK4   BANK5   BANK6   BANK7
      Params:         0       4       0       0       0       0       0       0       0
      Locals:         0       6       0       0       0       0       0       0       0
      Temps:          0       0       0       0       0       0       0       0       0
      Totals:         0      10       0       0       0       0       0       0       0
Total ram usage:       10 bytes
 Hardware stack levels used:    1
 Hardware stack levels required when called:   16
 This function calls:
		___lwdiv
		___lwmod
		_oled_putString
 This function is called by:
		_test_adc
		_moteRunningProcess
 This function uses a non-reentrant model


 *************** function _moteApp_clearBuffers *****************
 Defined at:
		line 1383 in file "../Includes/Board/MOTEapp.c"
 Parameters:    Size  Location     Type
		None
 Auto vars:     Size  Location     Type
  counter         1    2[BANK0 ] unsigned char 
  counter         1    1[BANK0 ] unsigned char 
  counter         1    0[BANK0 ] unsigned char 
 Return value:  Size  Location     Type
		None               void
 Registers used:
		wreg, fsr2l, fsr2h, status,2, status,0
 Tracked objects:
		On entry : 
		On exit  : 
		Unchanged: 
 Data sizes:     COMRAM   BANK0   BANK1   BANK2   BANK3   BANK4   BANK5   BANK6   BANK7
      Params:         0       0       0       0       0       0       0       0       0
      Locals:         0       3       0       0       0       0       0       0       0
      Temps:          0       0       0       0       0       0       0       0       0
      Totals:         0       3       0       0       0       0       0       0       0
Total ram usage:        3 bytes
 Hardware stack levels used:    1
 Hardware stack levels required when called:   11
 This function calls:
		Nothing
 This function is called by:
		_moteRunningProcess
 This function uses a non-reentrant model


 *************** function _moteApp_add8bToDataBuffer *****************
 Defined at:
		line 1399 in file "../Includes/Board/MOTEapp.c"
 Parameters:    Size  Location     Type
  number          1    wreg     unsigned char 
  bufferLocati    1    4[BANK0 ] unsigned char 
 Auto vars:     Size  Location     Type
  number          1    5[BANK0 ] unsigned char 
 Return value:  Size  Location     Type
		None               void
 Registers used:
		wreg, fsr2l, fsr2h, status,2, status,0, cstack
 Tracked objects:
		On entry : 
		On exit  : 
		Unchanged: 
 Data sizes:     COMRAM   BANK0   BANK1   BANK2   BANK3   BANK4   BANK5   BANK6   BANK7
      Params:         0       1       0       0       0       0       0       0       0
      Locals:         0       1       0       0       0       0       0       0       0
      Temps:          0       0       0       0       0       0       0       0       0
      Totals:         0       2       0       0       0       0       0       0       0
Total ram usage:        2 bytes
 Hardware stack levels used:    1
 Hardware stack levels required when called:   12
 This function calls:
		___lbdiv
		___lbmod
 This function is called by:
		_moteRunningProcess
 This function uses a non-reentrant model


 *************** function ___lbmod *****************
 Defined at:
		line 4 in file "C:\Program Files (x86)\Microchip\xc8\v1.33\sources\common\lbmod.c"
 Parameters:    Size  Location     Type
  dividend        1    wreg     unsigned char 
  divisor         1    0[BANK0 ] unsigned char 
 Auto vars:     Size  Location     Type
  dividend        1    1[BANK0 ] unsigned char 
  rem             1    3[BANK0 ] unsigned char 
  counter         1    2[BANK0 ] unsigned char 
 Return value:  Size  Location     Type
                  1    wreg      unsigned char 
 Registers used:
		wreg, status,2, status,0
 Tracked objects:
		On entry : 
		On exit  : 
		Unchanged: 
 Data sizes:     COMRAM   BANK0   BANK1   BANK2   BANK3   BANK4   BANK5   BANK6   BANK7
      Params:         0       1       0       0       0       0       0       0       0
      Locals:         0       3       0       0       0       0       0       0       0
      Temps:          0       0       0       0       0       0       0       0       0
      Totals:         0       4       0       0       0       0       0       0       0
Total ram usage:        4 bytes
 Hardware stack levels used:    1
 Hardware stack levels required when called:   11
 This function calls:
		Nothing
 This function is called by:
		_moteApp_add8bToDataBuffer
		_oled_putUint8
 This function uses a non-reentrant model


 *************** function ___lbdiv *****************
 Defined at:
		line 4 in file "C:\Program Files (x86)\Microchip\xc8\v1.33\sources\common\lbdiv.c"
 Parameters:    Size  Location     Type
  dividend        1    wreg     unsigned char 
  divisor         1    0[BANK0 ] unsigned char 
 Auto vars:     Size  Location     Type
  dividend        1    1[BANK0 ] unsigned char 
  quotient        1    3[BANK0 ] unsigned char 
  counter         1    2[BANK0 ] unsigned char 
 Return value:  Size  Location     Type
                  1    wreg      unsigned char 
 Registers used:
		wreg, status,2, status,0
 Tracked objects:
		On entry : 
		On exit  : 
		Unchanged: 
 Data sizes:     COMRAM   BANK0   BANK1   BANK2   BANK3   BANK4   BANK5   BANK6   BANK7
      Params:         0       1       0       0       0       0       0       0       0
      Locals:         0       3       0       0       0       0       0       0       0
      Temps:          0       0       0       0       0       0       0       0       0
      Totals:         0       4       0       0       0       0       0       0       0
Total ram usage:        4 bytes
 Hardware stack levels used:    1
 Hardware stack levels required when called:   11
 This function calls:
		Nothing
 This function is called by:
		_moteApp_add8bToDataBuffer
		_oled_putUint8
 This function uses a non-reentrant model


 *************** function _moteApp_add16bToDataBuffer *****************
 Defined at:
		line 1408 in file "../Includes/Board/MOTEapp.c"
 Parameters:    Size  Location     Type
  number          2    7[BANK0 ] unsigned int 
  bufferLocati    1    9[BANK0 ] unsigned char 
 Auto vars:     Size  Location     Type
		None
 Return value:  Size  Location     Type
		None               void
 Registers used:
		wreg, fsr2l, fsr2h, status,2, status,0, cstack
 Tracked objects:
		On entry : 
		On exit  : 
		Unchanged: 
 Data sizes:     COMRAM   BANK0   BANK1   BANK2   BANK3   BANK4   BANK5   BANK6   BANK7
      Params:         0       3       0       0       0       0       0       0       0
      Locals:         0       0       0       0       0       0       0       0       0
      Temps:          0       0       0       0       0       0       0       0       0
      Totals:         0       3       0       0       0       0       0       0       0
Total ram usage:        3 bytes
 Hardware stack levels used:    1
 Hardware stack levels required when called:   12
 This function calls:
		___lwdiv
		___lwmod
 This function is called by:
		_moteRunningProcess
 This function uses a non-reentrant model


 *************** function _moteApp_GoToSleep *****************
 Defined at:
		line 1292 in file "../Includes/Board/MOTEapp.c"
 Parameters:    Size  Location     Type
		None
 Auto vars:     Size  Location     Type
  status          1   15[BANK0 ] unsigned char 
 Return value:  Size  Location     Type
                  1    wreg      unsigned char 
 Registers used:
		wreg, fsr2l, fsr2h, status,2, status,0, tblptrl, tblptrh, tblptru, prodl, prodh, cstack
 Tracked objects:
		On entry : 
		On exit  : 
		Unchanged: 
 Data sizes:     COMRAM   BANK0   BANK1   BANK2   BANK3   BANK4   BANK5   BANK6   BANK7
      Params:         0       0       0       0       0       0       0       0       0
      Locals:         0       1       0       0       0       0       0       0       0
      Temps:          0       0       0       0       0       0       0       0       0
      Totals:         0       1       0       0       0       0       0       0       0
Total ram usage:        1 bytes
 Hardware stack levels used:    1
 Hardware stack levels required when called:   18
 This function calls:
		_EUSART_FlushBuffer
		_EUSART_Initialize
		_PIN_MANAGER_Initialize
		_modemResync
		_modemSleep
		_oled_displayOff
		_oled_init
 This function is called by:
		_moteRunningProcess
 This function uses a non-reentrant model


 *************** function _oled_init *****************
 Defined at:
		line 308 in file "../Includes/Drivers/SSD1306oLED.c"
 Parameters:    Size  Location     Type
		None
 Auto vars:     Size  Location     Type
		None
 Return value:  Size  Location     Type
		None               void
 Registers used:
		wreg, status,2, status,0, tblptrl, tblptrh, tblptru, prodl, prodh, cstack
 Tracked objects:
		On entry : 
		On exit  : 
		Unchanged: 
 Data sizes:     COMRAM   BANK0   BANK1   BANK2   BANK3   BANK4   BANK5   BANK6   BANK7
      Params:         0       0       0       0       0       0       0       0       0
      Locals:         0       0       0       0       0       0       0       0       0
      Temps:          0       0       0       0       0       0       0       0       0
      Totals:         0       0       0       0       0       0       0       0       0
Total ram usage:        0 bytes
 Hardware stack levels used:    1
 Hardware stack levels required when called:   17
 This function calls:
		_oled_clear
		_oled_devInit
		_oled_setDisplay
		_oled_setFont
 This function is called by:
		_main
		_moteApp_GoToSleep
 This function uses a non-reentrant model


 *************** function _oled_setFont *****************
 Defined at:
		line 218 in file "../Includes/Drivers/SSD1306oLED.c"
 Parameters:    Size  Location     Type
  font            2    0[BANK0 ] PTR const unsigned char 
		 -> OledFont0(768), 
 Auto vars:     Size  Location     Type
		None
 Return value:  Size  Location     Type
		None               void
 Registers used:
		wreg, status,2, status,0
 Tracked objects:
		On entry : 
		On exit  : 
		Unchanged: 
 Data sizes:     COMRAM   BANK0   BANK1   BANK2   BANK3   BANK4   BANK5   BANK6   BANK7
      Params:         0       2       0       0       0       0       0       0       0
      Locals:         0       0       0       0       0       0       0       0       0
      Temps:          0       0       0       0       0       0       0       0       0
      Totals:         0       2       0       0       0       0       0       0       0
Total ram usage:        2 bytes
 Hardware stack levels used:    1
 Hardware stack levels required when called:   11
 This function calls:
		Nothing
 This function is called by:
		_oled_init
 This function uses a non-reentrant model


 *************** function _oled_setDisplay *****************
 Defined at:
		line 383 in file "../Includes/Drivers/SSD1306oLED.c"
 Parameters:    Size  Location     Type
  displayType     1    wreg     enum E7158
 Auto vars:     Size  Location     Type
  displayType     1    2[BANK0 ] enum E7158
 Return value:  Size  Location     Type
		None               void
 Registers used:
		wreg, status,2, status,0, cstack
 Tracked objects:
		On entry : 
		On exit  : 
		Unchanged: 
 Data sizes:     COMRAM   BANK0   BANK1   BANK2   BANK3   BANK4   BANK5   BANK6   BANK7
      Params:         0       0       0       0       0       0       0       0       0
      Locals:         0       1       0       0       0       0       0       0       0
      Temps:          0       0       0       0       0       0       0       0       0
      Totals:         0       1       0       0       0       0       0       0       0
Total ram usage:        1 bytes
 Hardware stack levels used:    1
 Hardware stack levels required when called:   13
 This function calls:
		_oled_writeCommand
 This function is called by:
		_oled_init
 This function uses a non-reentrant model


 *************** function _oled_devInit *****************
 Defined at:
		line 322 in file "../Includes/Drivers/SSD1306oLED.c"
 Parameters:    Size  Location     Type
		None
 Auto vars:     Size  Location     Type
		None
 Return value:  Size  Location     Type
		None               void
 Registers used:
		wreg, status,2, cstack
 Tracked objects:
		On entry : 
		On exit  : 
		Unchanged: 
 Data sizes:     COMRAM   BANK0   BANK1   BANK2   BANK3   BANK4   BANK5   BANK6   BANK7
      Params:         0       0       0       0       0       0       0       0       0
      Locals:         0       0       0       0       0       0       0       0       0
      Temps:          0       1       0       0       0       0       0       0       0
      Totals:         0       1       0       0       0       0       0       0       0
Total ram usage:        1 bytes
 Hardware stack levels used:    1
 Hardware stack levels required when called:   13
 This function calls:
		_oled_writeCommand
 This function is called by:
		_oled_init
 This function uses a non-reentrant model


 *************** function _oled_displayOff *****************
 Defined at:
		line 394 in file "../Includes/Drivers/SSD1306oLED.c"
 Parameters:    Size  Location     Type
  state           1    wreg     unsigned char 
 Auto vars:     Size  Location     Type
  state           1    2[BANK0 ] unsigned char 
 Return value:  Size  Location     Type
		None               void
 Registers used:
		wreg, status,2, status,0, cstack
 Tracked objects:
		On entry : 
		On exit  : 
		Unchanged: 
 Data sizes:     COMRAM   BANK0   BANK1   BANK2   BANK3   BANK4   BANK5   BANK6   BANK7
      Params:         0       0       0       0       0       0       0       0       0
      Locals:         0       1       0       0       0       0       0       0       0
      Temps:          0       0       0       0       0       0       0       0       0
      Totals:         0       1       0       0       0       0       0       0       0
Total ram usage:        1 bytes
 Hardware stack levels used:    1
 Hardware stack levels required when called:   13
 This function calls:
		_oled_writeCommand
 This function is called by:
		_moteApp_GoToSleep
 This function uses a non-reentrant model


 *************** function _modemSleep *****************
 Defined at:
		line 146 in file "../Includes/Board/MOTEapp.c"
 Parameters:    Size  Location     Type
		None
 Auto vars:     Size  Location     Type
		None
 Return value:  Size  Location     Type
		None               void
 Registers used:
		wreg, fsr2l, fsr2h, status,2, status,0, tblptrl, tblptrh, tblptru, cstack
 Tracked objects:
		On entry : 
		On exit  : 
		Unchanged: 
 Data sizes:     COMRAM   BANK0   BANK1   BANK2   BANK3   BANK4   BANK5   BANK6   BANK7
      Params:         0       0       0       0       0       0       0       0       0
      Locals:         0       0       0       0       0       0       0       0       0
      Temps:          0       0       0       0       0       0       0       0       0
      Totals:         0       0       0       0       0       0       0       0       0
Total ram usage:        0 bytes
 Hardware stack levels used:    1
 Hardware stack levels required when called:   14
 This function calls:
		_moteApp_delayms
		_sendCommand
 This function is called by:
		_moteApp_GoToSleep
 This function uses a non-reentrant model


 *************** function _modemResync *****************
 Defined at:
		line 109 in file "../Includes/Board/MOTEapp.c"
 Parameters:    Size  Location     Type
		None
 Auto vars:     Size  Location     Type
  escapeCounte    2    5[BANK0 ] unsigned int 
  escapeEvent     1    7[BANK0 ] unsigned char 
 Return value:  Size  Location     Type
		None               void
 Registers used:
		wreg, fsr2l, fsr2h, status,2, status,0, tblptrl, tblptrh, tblptru, cstack
 Tracked objects:
		On entry : 
		On exit  : 
		Unchanged: 
 Data sizes:     COMRAM   BANK0   BANK1   BANK2   BANK3   BANK4   BANK5   BANK6   BANK7
      Params:         0       0       0       0       0       0       0       0       0
      Locals:         0       3       0       0       0       0       0       0       0
      Temps:          0       0       0       0       0       0       0       0       0
      Totals:         0       3       0       0       0       0       0       0       0
Total ram usage:        3 bytes
 Hardware stack levels used:    1
 Hardware stack levels required when called:   14
 This function calls:
		_MOTEapp_getModemResponse
		_moteApp_delayms
		_sendCommand
 This function is called by:
		_main
		_moteApp_GoToSleep
 This function uses a non-reentrant model


 *************** function _MOTEapp_getModemResponse *****************
 Defined at:
		line 1192 in file "../Includes/Board/MOTEapp.c"
 Parameters:    Size  Location     Type
		None
 Auto vars:     Size  Location     Type
  bufferByte      1    2[BANK0 ] unsigned char 
  terminatorRe    1    1[BANK0 ] unsigned char 
 Return value:  Size  Location     Type
                  1    wreg      unsigned char 
 Registers used:
		wreg, fsr2l, fsr2h, status,2, status,0, cstack
 Tracked objects:
		On entry : 
		On exit  : 
		Unchanged: 
 Data sizes:     COMRAM   BANK0   BANK1   BANK2   BANK3   BANK4   BANK5   BANK6   BANK7
      Params:         0       0       0       0       0       0       0       0       0
      Locals:         0       2       0       0       0       0       0       0       0
      Temps:          0       0       0       0       0       0       0       0       0
      Totals:         0       2       0       0       0       0       0       0       0
Total ram usage:        2 bytes
 Hardware stack levels used:    1
 Hardware stack levels required when called:   12
 This function calls:
		_EUSART_Read
 This function is called by:
		_modemResync
		_moteHandler
 This function uses a non-reentrant model


 *************** function _EUSART_FlushBuffer *****************
 Defined at:
		line 202 in file "../Includes/MccGenerated/eusart.c"
 Parameters:    Size  Location     Type
		None
 Auto vars:     Size  Location     Type
  index           1    0[BANK0 ] unsigned char 
 Return value:  Size  Location     Type
		None               void
 Registers used:
		wreg, fsr2l, fsr2h, status,2, status,0
 Tracked objects:
		On entry : 
		On exit  : 
		Unchanged: 
 Data sizes:     COMRAM   BANK0   BANK1   BANK2   BANK3   BANK4   BANK5   BANK6   BANK7
      Params:         0       0       0       0       0       0       0       0       0
      Locals:         0       1       0       0       0       0       0       0       0
      Temps:          0       0       0       0       0       0       0       0       0
      Totals:         0       1       0       0       0       0       0       0       0
Total ram usage:        1 bytes
 Hardware stack levels used:    1
 Hardware stack levels required when called:   11
 This function calls:
		Nothing
 This function is called by:
		_moteApp_GoToSleep
 This function uses a non-reentrant model


 *************** function _TMR2_ReadTimer *****************
 Defined at:
		line 87 in file "../Includes/MccGenerated/tmr2.c"
 Parameters:    Size  Location     Type
		None
 Auto vars:     Size  Location     Type
  readVal         1    0[BANK0 ] unsigned char 
 Return value:  Size  Location     Type
                  1    wreg      unsigned char 
 Registers used:
		wreg, status,2
 Tracked objects:
		On entry : 
		On exit  : 
		Unchanged: 
 Data sizes:     COMRAM   BANK0   BANK1   BANK2   BANK3   BANK4   BANK5   BANK6   BANK7
      Params:         0       0       0       0       0       0       0       0       0
      Locals:         0       1       0       0       0       0       0       0       0
      Temps:          0       0       0       0       0       0       0       0       0
      Totals:         0       1       0       0       0       0       0       0       0
Total ram usage:        1 bytes
 Hardware stack levels used:    1
 Hardware stack levels required when called:   11
 This function calls:
		Nothing
 This function is called by:
		_moteRunningProcess
 This function uses a non-reentrant model


 *************** function _ADC_TempConversion *****************
 Defined at:
		line 136 in file "../Includes/MccGenerated/adc.c"
 Parameters:    Size  Location     Type
  tempRaw         1    wreg     enum E6186
 Auto vars:     Size  Location     Type
  tempRaw         1    7[BANK0 ] enum E6186
  temp            1    8[BANK0 ] unsigned char 
 Return value:  Size  Location     Type
                  1    wreg      unsigned char 
 Registers used:
		wreg, status,2, status,0, cstack
 Tracked objects:
		On entry : 
		On exit  : 
		Unchanged: 
 Data sizes:     COMRAM   BANK0   BANK1   BANK2   BANK3   BANK4   BANK5   BANK6   BANK7
      Params:         0       0       0       0       0       0       0       0       0
      Locals:         0       2       0       0       0       0       0       0       0
      Temps:          0       0       0       0       0       0       0       0       0
      Totals:         0       2       0       0       0       0       0       0       0
Total ram usage:        2 bytes
 Hardware stack levels used:    1
 Hardware stack levels required when called:   12
 This function calls:
		___lwdiv
 This function is called by:
		_test_adc
		_moteHandler
		_moteRunningProcess
 This function uses a non-reentrant model


 *************** function ___lwdiv *****************
 Defined at:
		line 8 in file "C:\Program Files (x86)\Microchip\xc8\v1.33\sources\common\lwdiv.c"
 Parameters:    Size  Location     Type
  dividend        2    0[BANK0 ] unsigned int 
  divisor         2    2[BANK0 ] unsigned int 
 Auto vars:     Size  Location     Type
  quotient        2    5[BANK0 ] unsigned int 
  counter         1    4[BANK0 ] unsigned char 
 Return value:  Size  Location     Type
                  2    0[BANK0 ] unsigned int 
 Registers used:
		wreg, status,2, status,0
 Tracked objects:
		On entry : 
		On exit  : 
		Unchanged: 
 Data sizes:     COMRAM   BANK0   BANK1   BANK2   BANK3   BANK4   BANK5   BANK6   BANK7
      Params:         0       4       0       0       0       0       0       0       0
      Locals:         0       3       0       0       0       0       0       0       0
      Temps:          0       0       0       0       0       0       0       0       0
      Totals:         0       7       0       0       0       0       0       0       0
Total ram usage:        7 bytes
 Hardware stack levels used:    1
 Hardware stack levels required when called:   11
 This function calls:
		Nothing
 This function is called by:
		_moteApp_add16bToDataBuffer
		_oled_putUint16
		_ADC_TempConversion
 This function uses a non-reentrant model


 *************** function _ADC_GetConversion *****************
 Defined at:
		line 113 in file "../Includes/MccGenerated/adc.c"
 Parameters:    Size  Location     Type
  channel         1    wreg     enum E6186
 Auto vars:     Size  Location     Type
  channel         1    4[BANK0 ] enum E6186
 Return value:  Size  Location     Type
                  2    0[BANK0 ] unsigned int 
 Registers used:
		wreg, status,2, status,0
 Tracked objects:
		On entry : 
		On exit  : 
		Unchanged: 
 Data sizes:     COMRAM   BANK0   BANK1   BANK2   BANK3   BANK4   BANK5   BANK6   BANK7
      Params:         0       2       0       0       0       0       0       0       0
      Locals:         0       1       0       0       0       0       0       0       0
      Temps:          0       2       0       0       0       0       0       0       0
      Totals:         0       5       0       0       0       0       0       0       0
Total ram usage:        5 bytes
 Hardware stack levels used:    1
 Hardware stack levels required when called:   11
 This function calls:
		Nothing
 This function is called by:
		_test_adc
		_moteHandler
		_moteRunningProcess
 This function uses a non-reentrant model


 *************** function _moteJoiningProcess *****************
 Defined at:
		line 265 in file "../Includes/Board/MOTEapp.c"
 Parameters:    Size  Location     Type
  messageReady    1    wreg     unsigned char 
  switchEvent     1   18[BANK0 ] unsigned char 
 Auto vars:     Size  Location     Type
  messageReady    1   21[BANK0 ] unsigned char 
  readDataRate    1   20[BANK0 ] unsigned char 
  joiningCompl    1   19[BANK0 ] unsigned char 
 Return value:  Size  Location     Type
                  1    wreg      enum E7319
 Registers used:
		wreg, fsr1l, fsr1h, fsr2l, fsr2h, status,2, status,0, tblptrl, tblptrh, tblptru, prodl, prodh, cstack
 Tracked objects:
		On entry : 
		On exit  : 
		Unchanged: 
 Data sizes:     COMRAM   BANK0   BANK1   BANK2   BANK3   BANK4   BANK5   BANK6   BANK7
      Params:         0       1       0       0       0       0       0       0       0
      Locals:         0       3       0       0       0       0       0       0       0
      Temps:          0       0       0       0       0       0       0       0       0
      Totals:         0       4       0       0       0       0       0       0       0
Total ram usage:        4 bytes
 Hardware stack levels used:    1
 Hardware stack levels required when called:   17
 This function calls:
		_DATAEE_WriteByte
		_MOTEapp_SetADR
		_MOTEapp_SetDataRate
		_MOTEapp_WriteDataRate
		_moteApp_delayms
		_oled_clear
		_oled_putString
		_sendCommand
		_strcmp
		_strncmp
 This function is called by:
		_moteHandler
 This function uses a non-reentrant model


 *************** function _strncmp *****************
 Defined at:
		line 4 in file "C:\Program Files (x86)\Microchip\xc8\v1.33\sources\common\strncmp.c"
 Parameters:    Size  Location     Type
  s1              2    0[BANK0 ] PTR const unsigned char 
		 -> modemResonseBuffer(64), 
  s2              2    2[BANK0 ] PTR const unsigned char 
		 -> STR_219(7), STR_217(7), STR_215(7), STR_212(7), 
		 -> STR_70(3), STR_66(4), STR_64(3), STR_30(3), 
  len             2    4[BANK0 ] unsigned int 
 Auto vars:     Size  Location     Type
		None
 Return value:  Size  Location     Type
                  2    0[BANK0 ] int 
 Registers used:
		wreg, fsr2l, fsr2h, status,2, status,0, tblptrl, tblptrh, tblptru
 Tracked objects:
		On entry : 
		On exit  : 
		Unchanged: 
 Data sizes:     COMRAM   BANK0   BANK1   BANK2   BANK3   BANK4   BANK5   BANK6   BANK7
      Params:         0       6       0       0       0       0       0       0       0
      Locals:         0       0       0       0       0       0       0       0       0
      Temps:          0       1       0       0       0       0       0       0       0
      Totals:         0       7       0       0       0       0       0       0       0
Total ram usage:        7 bytes
 Hardware stack levels used:    1
 Hardware stack levels required when called:   11
 This function calls:
		Nothing
 This function is called by:
		_moteJoiningProcess
		_moteRunningProcess
 This function uses a non-reentrant model


 *************** function _strcmp *****************
 Defined at:
		line 5 in file "C:\Program Files (x86)\Microchip\xc8\v1.33\sources\common\strcmp.c"
 Parameters:    Size  Location     Type
  s1              2    0[BANK0 ] PTR const unsigned char 
		 -> modemResonseBuffer(64), 
  s2              2    2[BANK0 ] PTR const unsigned char 
		 -> STR_211(3), STR_68(14), STR_60(11), STR_56(7), 
		 -> STR_53(9), STR_52(11), STR_50(14), STR_47(14), 
		 -> STR_46(3), STR_43(7), STR_40(9), STR_33(14), 
		 -> STR_32(3), 
 Auto vars:     Size  Location     Type
  t1              1    8[BANK0 ] unsigned char 
  t2              1    7[BANK0 ] unsigned char 
  t0              1    6[BANK0 ] unsigned char 
 Return value:  Size  Location     Type
                  2    0[BANK0 ] int 
 Registers used:
		wreg, fsr2l, fsr2h, status,2, status,0, tblptrl, tblptrh, tblptru
 Tracked objects:
		On entry : 
		On exit  : 
		Unchanged: 
 Data sizes:     COMRAM   BANK0   BANK1   BANK2   BANK3   BANK4   BANK5   BANK6   BANK7
      Params:         0       4       0       0       0       0       0       0       0
      Locals:         0       3       0       0       0       0       0       0       0
      Temps:          0       2       0       0       0       0       0       0       0
      Totals:         0       9       0       0       0       0       0       0       0
Total ram usage:        9 bytes
 Hardware stack levels used:    1
 Hardware stack levels required when called:   11
 This function calls:
		Nothing
 This function is called by:
		_moteJoiningProcess
		_moteRunningProcess
 This function uses a non-reentrant model


 *************** function _MOTEapp_WriteDataRate *****************
 Defined at:
		line 1102 in file "../Includes/Board/MOTEapp.c"
 Parameters:    Size  Location     Type
		None
 Auto vars:     Size  Location     Type
		None
 Return value:  Size  Location     Type
		None               void
 Registers used:
		wreg, fsr2l, fsr2h, status,2, status,0, tblptrl, tblptrh, tblptru, cstack
 Tracked objects:
		On entry : 
		On exit  : 
		Unchanged: 
 Data sizes:     COMRAM   BANK0   BANK1   BANK2   BANK3   BANK4   BANK5   BANK6   BANK7
      Params:         0       0       0       0       0       0       0       0       0
      Locals:         0       0       0       0       0       0       0       0       0
      Temps:          0       0       0       0       0       0       0       0       0
      Totals:         0       0       0       0       0       0       0       0       0
Total ram usage:        0 bytes
 Hardware stack levels used:    1
 Hardware stack levels required when called:   14
 This function calls:
		_moteApp_delayms
		_sendCommand
 This function is called by:
		_moteJoiningProcess
		_moteRunningProcess
 This function uses a non-reentrant model


 *************** function _sendCommand *****************
 Defined at:
		line 1231 in file "../Includes/Board/MOTEapp.c"
 Parameters:    Size  Location     Type
  string          2    1[BANK0 ] PTR const unsigned char 
		 -> STR_257(26), STR_256(26), STR_255(26), STR_254(26), 
		 -> STR_253(1), STR_252(9), STR_251(13), STR_250(13), 
		 -> STR_249(13), STR_248(13), STR_247(13), STR_246(13), 
		 -> STR_245(13), STR_244(13), STR_243(16), STR_242(15), 
		 -> STR_71(11), STR_69(11), STR_67(11), STR_65(11), 
		 -> STR_63(12), STR_59(14), STR_51(14), STR_45(10), 
		 -> STR_44(13), STR_39(13), STR_38(14), STR_31(13), 
		 -> STR_29(12), STR_22(20), STR_21(2), 
 Auto vars:     Size  Location     Type
		None
 Return value:  Size  Location     Type
		None               void
 Registers used:
		wreg, fsr2l, fsr2h, status,2, status,0, tblptrl, tblptrh, tblptru, cstack
 Tracked objects:
		On entry : 
		On exit  : 
		Unchanged: 
 Data sizes:     COMRAM   BANK0   BANK1   BANK2   BANK3   BANK4   BANK5   BANK6   BANK7
      Params:         0       2       0       0       0       0       0       0       0
      Locals:         0       0       0       0       0       0       0       0       0
      Temps:          0       0       0       0       0       0       0       0       0
      Totals:         0       2       0       0       0       0       0       0       0
Total ram usage:        2 bytes
 Hardware stack levels used:    1
 Hardware stack levels required when called:   13
 This function calls:
		_EUSART_Write
		_EndLine
 This function is called by:
		_modemResync
		_modemSleep
		_moteJoiningProcess
		_MOTEapp_WriteDataRate
		_moteApp_toggleLeds
 This function uses a non-reentrant model


 *************** function _EndLine *****************
 Defined at:
		line 1225 in file "../Includes/Board/MOTEapp.c"
 Parameters:    Size  Location     Type
		None
 Auto vars:     Size  Location     Type
		None
 Return value:  Size  Location     Type
		None               void
 Registers used:
		wreg, fsr2l, fsr2h, status,2, status,0, cstack
 Tracked objects:
		On entry : 
		On exit  : 
		Unchanged: 
 Data sizes:     COMRAM   BANK0   BANK1   BANK2   BANK3   BANK4   BANK5   BANK6   BANK7
      Params:         0       0       0       0       0       0       0       0       0
      Locals:         0       0       0       0       0       0       0       0       0
      Temps:          0       0       0       0       0       0       0       0       0
      Totals:         0       0       0       0       0       0       0       0       0
Total ram usage:        0 bytes
 Hardware stack levels used:    1
 Hardware stack levels required when called:   12
 This function calls:
		_EUSART_Write
 This function is called by:
		_sendCommand
		_sendDataCommand
 This function uses a non-reentrant model


 *************** function _moteApp_delayms *****************
 Defined at:
		line 1421 in file "../Includes/Board/MOTEapp.c"
 Parameters:    Size  Location     Type
  length          2    0[BANK0 ] unsigned int 
 Auto vars:     Size  Location     Type
  counter         2    3[BANK0 ] unsigned int 
 Return value:  Size  Location     Type
		None               void
 Registers used:
		wreg, status,2, status,0
 Tracked objects:
		On entry : 
		On exit  : 
		Unchanged: 
 Data sizes:     COMRAM   BANK0   BANK1   BANK2   BANK3   BANK4   BANK5   BANK6   BANK7
      Params:         0       2       0       0       0       0       0       0       0
      Locals:         0       2       0       0       0       0       0       0       0
      Temps:          0       1       0       0       0       0       0       0       0
      Totals:         0       5       0       0       0       0       0       0       0
Total ram usage:        5 bytes
 Hardware stack levels used:    1
 Hardware stack levels required when called:   11
 This function calls:
		Nothing
 This function is called by:
		_main
		_test_powerup
		_test_switch
		_test_comms
		_test_leds
		_test_adc
		_modemResync
		_modemSleep
		_moteHandler
		_moteJoiningProcess
		_moteRunningProcess
		_MOTEapp_WriteDataRate
		_moteApp_toggleLeds
 This function uses a non-reentrant model


 *************** function _MOTEapp_SetDataRate *****************
 Defined at:
		line 1097 in file "../Includes/Board/MOTEapp.c"
 Parameters:    Size  Location     Type
  dataRate        1    wreg     unsigned char 
 Auto vars:     Size  Location     Type
  dataRate        1    0[BANK0 ] unsigned char 
 Return value:  Size  Location     Type
		None               void
 Registers used:
		wreg
 Tracked objects:
		On entry : 
		On exit  : 
		Unchanged: 
 Data sizes:     COMRAM   BANK0   BANK1   BANK2   BANK3   BANK4   BANK5   BANK6   BANK7
      Params:         0       0       0       0       0       0       0       0       0
      Locals:         0       1       0       0       0       0       0       0       0
      Temps:          0       0       0       0       0       0       0       0       0
      Totals:         0       1       0       0       0       0       0       0       0
Total ram usage:        1 bytes
 Hardware stack levels used:    1
 Hardware stack levels required when called:   11
 This function calls:
		Nothing
 This function is called by:
		_moteJoiningProcess
		_moteRunningProcess
 This function uses a non-reentrant model


 *************** function _MOTEapp_SetADR *****************
 Defined at:
		line 1092 in file "../Includes/Board/MOTEapp.c"
 Parameters:    Size  Location     Type
  state           1    wreg     unsigned char 
 Auto vars:     Size  Location     Type
  state           1    0[BANK0 ] unsigned char 
 Return value:  Size  Location     Type
		None               void
 Registers used:
		wreg
 Tracked objects:
		On entry : 
		On exit  : 
		Unchanged: 
 Data sizes:     COMRAM   BANK0   BANK1   BANK2   BANK3   BANK4   BANK5   BANK6   BANK7
      Params:         0       0       0       0       0       0       0       0       0
      Locals:         0       1       0       0       0       0       0       0       0
      Temps:          0       0       0       0       0       0       0       0       0
      Totals:         0       1       0       0       0       0       0       0       0
Total ram usage:        1 bytes
 Hardware stack levels used:    1
 Hardware stack levels required when called:   11
 This function calls:
		Nothing
 This function is called by:
		_moteJoiningProcess
		_moteRunningProcess
 This function uses a non-reentrant model


 *************** function _DATAEE_WriteByte *****************
 Defined at:
		line 166 in file "../Includes/MccGenerated/memory.c"
 Parameters:    Size  Location     Type
  bAdd            1    wreg     unsigned char 
  bData           1    0[BANK0 ] unsigned char 
 Auto vars:     Size  Location     Type
  bAdd            1    1[BANK0 ] unsigned char 
  GIEBitValue     1    2[BANK0 ] unsigned char 
 Return value:  Size  Location     Type
		None               void
 Registers used:
		wreg, status,2
 Tracked objects:
		On entry : 
		On exit  : 
		Unchanged: 
 Data sizes:     COMRAM   BANK0   BANK1   BANK2   BANK3   BANK4   BANK5   BANK6   BANK7
      Params:         0       1       0       0       0       0       0       0       0
      Locals:         0       2       0       0       0       0       0       0       0
      Temps:          0       0       0       0       0       0       0       0       0
      Totals:         0       3       0       0       0       0       0       0       0
Total ram usage:        3 bytes
 Hardware stack levels used:    1
 Hardware stack levels required when called:   11
 This function calls:
		Nothing
 This function is called by:
		_main
		_moteJoiningProcess
 This function uses a non-reentrant model


 *************** function _TMRapp_Handler *****************
 Defined at:
		line 22 in file "../Includes/Drivers/TMRapp.c"
 Parameters:    Size  Location     Type
		None
 Auto vars:     Size  Location     Type
		None
 Return value:  Size  Location     Type
		None               void
 Registers used:
		wreg, status,2, status,0, cstack
 Tracked objects:
		On entry : 
		On exit  : 
		Unchanged: 
 Data sizes:     COMRAM   BANK0   BANK1   BANK2   BANK3   BANK4   BANK5   BANK6   BANK7
      Params:         0       0       0       0       0       0       0       0       0
      Locals:         0       0       0       0       0       0       0       0       0
      Temps:          0       0       0       0       0       0       0       0       0
      Totals:         0       0       0       0       0       0       0       0       0
Total ram usage:        0 bytes
 Hardware stack levels used:    1
 Hardware stack levels required when called:   12
 This function calls:
		___lwmod
 This function is called by:
		_moteHandler
 This function uses a non-reentrant model


 *************** function ___lwmod *****************
 Defined at:
		line 8 in file "C:\Program Files (x86)\Microchip\xc8\v1.33\sources\common\lwmod.c"
 Parameters:    Size  Location     Type
  dividend        2    0[BANK0 ] unsigned int 
  divisor         2    2[BANK0 ] unsigned int 
 Auto vars:     Size  Location     Type
  counter         1    4[BANK0 ] unsigned char 
 Return value:  Size  Location     Type
                  2    0[BANK0 ] unsigned int 
 Registers used:
		wreg, status,2, status,0
 Tracked objects:
		On entry : 
		On exit  : 
		Unchanged: 
 Data sizes:     COMRAM   BANK0   BANK1   BANK2   BANK3   BANK4   BANK5   BANK6   BANK7
      Params:         0       4       0       0       0       0       0       0       0
      Locals:         0       1       0       0       0       0       0       0       0
      Temps:          0       0       0       0       0       0       0       0       0
      Totals:         0       5       0       0       0       0       0       0       0
Total ram usage:        5 bytes
 Hardware stack levels used:    1
 Hardware stack levels required when called:   11
 This function calls:
		Nothing
 This function is called by:
		_moteApp_add16bToDataBuffer
		_TMRapp_Handler
		_oled_putUint16
 This function uses a non-reentrant model


 *************** function _TMRapp_ClearBitFlags *****************
 Defined at:
		line 16 in file "../Includes/Drivers/TMRapp.c"
 Parameters:    Size  Location     Type
		None
 Auto vars:     Size  Location     Type
		None
 Return value:  Size  Location     Type
		None               void
 Registers used:
		None
 Tracked objects:
		On entry : 
		On exit  : 
		Unchanged: 
 Data sizes:     COMRAM   BANK0   BANK1   BANK2   BANK3   BANK4   BANK5   BANK6   BANK7
      Params:         0       0       0       0       0       0       0       0       0
      Locals:         0       0       0       0       0       0       0       0       0
      Temps:          0       0       0       0       0       0       0       0       0
      Totals:         0       0       0       0       0       0       0       0       0
Total ram usage:        0 bytes
 Hardware stack levels used:    1
 Hardware stack levels required when called:   11
 This function calls:
		Nothing
 This function is called by:
		_moteHandler
 This function uses a non-reentrant model


 *************** function _MOTEapp_TimerBasedTask *****************
 Defined at:
		line 1153 in file "../Includes/Board/MOTEapp.c"
 Parameters:    Size  Location     Type
  timerTask       1    wreg     struct .
 Auto vars:     Size  Location     Type
  timerTask       1    0[BANK0 ] struct .
 Return value:  Size  Location     Type
		None               void
 Registers used:
		wreg, status,2, status,0
 Tracked objects:
		On entry : 
		On exit  : 
		Unchanged: 
 Data sizes:     COMRAM   BANK0   BANK1   BANK2   BANK3   BANK4   BANK5   BANK6   BANK7
      Params:         0       0       0       0       0       0       0       0       0
      Locals:         0       1       0       0       0       0       0       0       0
      Temps:          0       0       0       0       0       0       0       0       0
      Totals:         0       1       0       0       0       0       0       0       0
Total ram usage:        1 bytes
 Hardware stack levels used:    1
 Hardware stack levels required when called:   11
 This function calls:
		Nothing
 This function is called by:
		_moteHandler
 This function uses a non-reentrant model


 *************** function _USBapp_handlerState *****************
 Defined at:
		line 63 in file "../Includes/Board/USBapp.c"
 Parameters:    Size  Location     Type
  state           1    wreg     enum E7120
 Auto vars:     Size  Location     Type
  state           1    0[BANK0 ] enum E7120
 Return value:  Size  Location     Type
		None               void
 Registers used:
		wreg
 Tracked objects:
		On entry : 
		On exit  : 
		Unchanged: 
 Data sizes:     COMRAM   BANK0   BANK1   BANK2   BANK3   BANK4   BANK5   BANK6   BANK7
      Params:         0       0       0       0       0       0       0       0       0
      Locals:         0       1       0       0       0       0       0       0       0
      Temps:          0       0       0       0       0       0       0       0       0
      Totals:         0       1       0       0       0       0       0       0       0
Total ram usage:        1 bytes
 Hardware stack levels used:    1
 Hardware stack levels required when called:   11
 This function calls:
		Nothing
 This function is called by:
		_main
 This function uses a non-reentrant model


 *************** function _USBapp_Handler *****************
 Defined at:
		line 68 in file "../Includes/Board/USBapp.c"
 Parameters:    Size  Location     Type
		None
 Auto vars:     Size  Location     Type
		None
 Return value:  Size  Location     Type
		None               void
 Registers used:
		wreg, fsr1l, fsr1h, fsr2l, fsr2h, status,2, status,0, tblptrl, tblptrh, tblptru, prodl, prodh, cstack
 Tracked objects:
		On entry : 
		On exit  : 
		Unchanged: 
 Data sizes:     COMRAM   BANK0   BANK1   BANK2   BANK3   BANK4   BANK5   BANK6   BANK7
      Params:         0       0       0       0       0       0       0       0       0
      Locals:         0       0       0       0       0       0       0       0       0
      Temps:          0       0       0       0       0       0       0       0       0
      Totals:         0       0       0       0       0       0       0       0       0
Total ram usage:        0 bytes
 Hardware stack levels used:    1
 Hardware stack levels required when called:   17
 This function calls:
		_USBapp_DeviceCdcEmulatorHandler
		_oled_clear
		_oled_putString
 This function is called by:
		_main
 This function uses a non-reentrant model


 *************** function _oled_putString *****************
 Defined at:
		line 273 in file "../Includes/Drivers/SSD1306oLED.c"
 Parameters:    Size  Location     Type
  string          2   13[BANK0 ] PTR const unsigned char 
		 -> oled_putUint16@numData(6), oled_putUint8@numData(6), STR_260(12), STR_259(8), 
		 -> STR_258(9), STR_241(16), STR_240(16), STR_239(16), 
		 -> STR_238(15), STR_237(15), STR_236(16), STR_235(17), 
		 -> STR_234(16), STR_233(17), STR_232(17), STR_231(2), 
		 -> STR_230(7), STR_229(10), STR_228(17), STR_227(16), 
		 -> STR_226(15), STR_225(15), STR_224(17), STR_223(16), 
		 -> STR_222(17), STR_221(17), STR_220(16), STR_218(18), 
		 -> STR_216(17), STR_214(17), STR_213(17), responseData(8), 
		 -> responseId(16), responsePortNum(3), STR_210(12), STR_209(13), 
		 -> STR_208(12), STR_205(18), STR_204(13), STR_203(17), 
		 -> STR_202(16), STR_201(17), STR_200(17), STR_199(2), 
		 -> STR_198(2), STR_197(2), STR_196(2), STR_195(2), 
		 -> STR_194(2), STR_193(16), STR_192(17), STR_191(17), 
		 -> STR_190(2), STR_189(2), STR_188(2), STR_187(15), 
		 -> STR_186(15), STR_185(15), STR_184(15), STR_183(2), 
		 -> STR_182(2), STR_181(2), STR_180(2), STR_179(15), 
		 -> STR_178(15), STR_177(15), STR_176(15), STR_175(2), 
		 -> STR_174(2), STR_173(2), STR_172(2), STR_171(15), 
		 -> STR_170(15), STR_169(15), STR_168(15), STR_167(2), 
		 -> STR_166(2), STR_165(2), STR_164(2), STR_163(15), 
		 -> STR_162(15), STR_161(15), STR_160(15), STR_159(2), 
		 -> STR_158(2), STR_157(2), STR_156(2), STR_155(2), 
		 -> STR_154(15), STR_153(15), STR_152(15), STR_151(15), 
		 -> STR_150(2), STR_149(2), STR_148(2), STR_147(2), 
		 -> STR_146(2), STR_145(15), STR_144(15), STR_143(15), 
		 -> STR_142(15), STR_141(2), STR_140(2), STR_139(2), 
		 -> STR_138(2), STR_137(2), STR_136(15), STR_135(15), 
		 -> STR_134(15), STR_133(15), STR_132(2), STR_131(2), 
		 -> STR_130(2), STR_129(2), STR_128(2), STR_127(15), 
		 -> STR_126(15), STR_125(15), STR_124(15), STR_123(2), 
		 -> STR_122(2), STR_121(2), STR_120(2), STR_119(2), 
		 -> STR_118(15), STR_117(15), STR_116(15), STR_115(15), 
		 -> STR_114(2), STR_113(2), STR_112(2), STR_111(2), 
		 -> STR_110(2), STR_109(15), STR_108(15), STR_107(15), 
		 -> STR_106(15), STR_105(2), STR_104(2), STR_103(2), 
		 -> STR_102(2), STR_101(2), STR_100(15), STR_99(15), 
		 -> STR_98(15), STR_97(15), STR_96(2), STR_95(16), 
		 -> STR_94(17), STR_93(17), STR_92(16), STR_91(16), 
		 -> STR_90(16), STR_89(2), STR_88(7), STR_87(7), 
		 -> STR_86(16), STR_85(16), STR_84(17), STR_83(17), 
		 -> STR_82(16), STR_81(16), STR_80(16), STR_78(2), 
		 -> STR_76(2), STR_75(16), STR_74(13), STR_73(12), 
		 -> STR_72(17), STR_62(8), STR_61(8), STR_58(7), 
		 -> STR_57(10), STR_55(11), STR_54(11), STR_49(9), 
		 -> STR_48(11), STR_42(11), STR_41(10), STR_37(5), 
		 -> STR_36(12), STR_35(8), STR_34(9), STR_28(17), 
		 -> STR_27(17), STR_26(17), STR_25(17), STR_24(9), 
		 -> STR_23(10), STR_20(9), STR_19(8), STR_18(8), 
		 -> STR_17(9), STR_16(10), STR_15(11), STR_14(13), 
		 -> STR_13(13), STR_12(13), STR_11(12), STR_10(13), 
		 -> STR_9(9), STR_8(12), STR_7(16), STR_6(2), 
		 -> STR_5(2), STR_4(9), STR_3(15), STR_2(15), 
		 -> STR_1(15), 
  station_dot     1   15[BANK0 ] unsigned char 
  start_page      1   16[BANK0 ] unsigned char 
 Auto vars:     Size  Location     Type
  index           1   17[BANK0 ] unsigned char 
 Return value:  Size  Location     Type
		None               void
 Registers used:
		wreg, fsr1l, fsr1h, status,2, status,0, tblptrl, tblptrh, tblptru, prodl, prodh, cstack
 Tracked objects:
		On entry : 
		On exit  : 
		Unchanged: 
 Data sizes:     COMRAM   BANK0   BANK1   BANK2   BANK3   BANK4   BANK5   BANK6   BANK7
      Params:         0       4       0       0       0       0       0       0       0
      Locals:         0       1       0       0       0       0       0       0       0
      Temps:          0       0       0       0       0       0       0       0       0
      Totals:         0       5       0       0       0       0       0       0       0
Total ram usage:        5 bytes
 Hardware stack levels used:    1
 Hardware stack levels required when called:   15
 This function calls:
		_oled_putChar
 This function is called by:
		_main
		_test_oled
		_test_switch
		_test_comms
		_test_leds
		_test_adc
		_moteHandler
		_moteJoiningProcess
		_moteRunningProcess
		_USBapp_Handler
		_oled_putUint8
		_oled_putUint16
 This function uses a non-reentrant model


 *************** function _oled_clear *****************
 Defined at:
		line 290 in file "../Includes/Drivers/SSD1306oLED.c"
 Parameters:    Size  Location     Type
		None
 Auto vars:     Size  Location     Type
		None
 Return value:  Size  Location     Type
		None               void
 Registers used:
		wreg, status,2, status,0, tblptrl, tblptrh, tblptru, prodl, prodh, cstack
 Tracked objects:
		On entry : 
		On exit  : 
		Unchanged: 
 Data sizes:     COMRAM   BANK0   BANK1   BANK2   BANK3   BANK4   BANK5   BANK6   BANK7
      Params:         0       0       0       0       0       0       0       0       0
      Locals:         0       0       0       0       0       0       0       0       0
      Temps:          0       0       0       0       0       0       0       0       0
      Totals:         0       0       0       0       0       0       0       0       0
Total ram usage:        0 bytes
 Hardware stack levels used:    1
 Hardware stack levels required when called:   16
 This function calls:
		_oled_clearRow
 This function is called by:
		_main
		_test_powerup
		_test_oled
		_test_switch
		_test_adc
		_moteHandler
		_moteJoiningProcess
		_moteRunningProcess
		_USBapp_Handler
		_oled_init
 This function uses a non-reentrant model


 *************** function _oled_clearRow *****************
 Defined at:
		line 298 in file "../Includes/Drivers/SSD1306oLED.c"
 Parameters:    Size  Location     Type
  page            1    wreg     unsigned char 
 Auto vars:     Size  Location     Type
  page            1   13[BANK0 ] unsigned char 
  index           1   14[BANK0 ] unsigned char 
 Return value:  Size  Location     Type
		None               void
 Registers used:
		wreg, status,2, status,0, tblptrl, tblptrh, tblptru, prodl, prodh, cstack
 Tracked objects:
		On entry : 
		On exit  : 
		Unchanged: 
 Data sizes:     COMRAM   BANK0   BANK1   BANK2   BANK3   BANK4   BANK5   BANK6   BANK7
      Params:         0       0       0       0       0       0       0       0       0
      Locals:         0       2       0       0       0       0       0       0       0
      Temps:          0       0       0       0       0       0       0       0       0
      Totals:         0       2       0       0       0       0       0       0       0
Total ram usage:        2 bytes
 Hardware stack levels used:    1
 Hardware stack levels required when called:   15
 This function calls:
		_oled_putChar
 This function is called by:
		_oled_clear
 This function uses a non-reentrant model


 *************** function _oled_putChar *****************
 Defined at:
		line 258 in file "../Includes/Drivers/SSD1306oLED.c"
 Parameters:    Size  Location     Type
  k               1    wreg     unsigned char 
  station_dot     1    3[BANK0 ] unsigned char 
  start_page      1    4[BANK0 ] unsigned char 
 Auto vars:     Size  Location     Type
  k               1   11[BANK0 ] unsigned char 
  index           1   12[BANK0 ] unsigned char 
 Return value:  Size  Location     Type
		None               void
 Registers used:
		wreg, status,2, status,0, tblptrl, tblptrh, tblptru, prodl, prodh, cstack
 Tracked objects:
		On entry : 
		On exit  : 
		Unchanged: 
 Data sizes:     COMRAM   BANK0   BANK1   BANK2   BANK3   BANK4   BANK5   BANK6   BANK7
      Params:         0       2       0       0       0       0       0       0       0
      Locals:         0       2       0       0       0       0       0       0       0
      Temps:          0       6       0       0       0       0       0       0       0
      Totals:         0      10       0       0       0       0       0       0       0
Total ram usage:       10 bytes
 Hardware stack levels used:    1
 Hardware stack levels required when called:   14
 This function calls:
		_Set_Column_Address
		_Set_Page_Address
		_oled_writeData
 This function is called by:
		_test_adc
		_oled_putString
		_oled_clearRow
 This function uses a non-reentrant model


 *************** function _oled_writeData *****************
 Defined at:
		line 407 in file "../Includes/Drivers/SSD1306oLED.c"
 Parameters:    Size  Location     Type
  data            1    wreg     unsigned char 
 Auto vars:     Size  Location     Type
  data            1    1[BANK0 ] unsigned char 
 Return value:  Size  Location     Type
		None               void
 Registers used:
		wreg, status,2, cstack
 Tracked objects:
		On entry : 
		On exit  : 
		Unchanged: 
 Data sizes:     COMRAM   BANK0   BANK1   BANK2   BANK3   BANK4   BANK5   BANK6   BANK7
      Params:         0       0       0       0       0       0       0       0       0
      Locals:         0       1       0       0       0       0       0       0       0
      Temps:          0       0       0       0       0       0       0       0       0
      Totals:         0       1       0       0       0       0       0       0       0
Total ram usage:        1 bytes
 Hardware stack levels used:    1
 Hardware stack levels required when called:   12
 This function calls:
		_SPI_Exchange8bit
 This function is called by:
		_oled_putChar
 This function uses a non-reentrant model


 *************** function _Set_Page_Address *****************
 Defined at:
		line 201 in file "../Includes/Drivers/SSD1306oLED.c"
 Parameters:    Size  Location     Type
  address         1    wreg     unsigned char 
 Auto vars:     Size  Location     Type
  address         1    2[BANK0 ] unsigned char 
 Return value:  Size  Location     Type
		None               void
 Registers used:
		wreg, status,2, status,0, cstack
 Tracked objects:
		On entry : 
		On exit  : 
		Unchanged: 
 Data sizes:     COMRAM   BANK0   BANK1   BANK2   BANK3   BANK4   BANK5   BANK6   BANK7
      Params:         0       0       0       0       0       0       0       0       0
      Locals:         0       1       0       0       0       0       0       0       0
      Temps:          0       0       0       0       0       0       0       0       0
      Totals:         0       1       0       0       0       0       0       0       0
Total ram usage:        1 bytes
 Hardware stack levels used:    1
 Hardware stack levels required when called:   13
 This function calls:
		_oled_writeCommand
 This function is called by:
		_oled_putChar
 This function uses a non-reentrant model


 *************** function _Set_Column_Address *****************
 Defined at:
		line 210 in file "../Includes/Drivers/SSD1306oLED.c"
 Parameters:    Size  Location     Type
  address         1    wreg     unsigned char 
 Auto vars:     Size  Location     Type
  address         1    2[BANK0 ] unsigned char 
 Return value:  Size  Location     Type
		None               void
 Registers used:
		wreg, status,2, status,0, cstack
 Tracked objects:
		On entry : 
		On exit  : 
		Unchanged: 
 Data sizes:     COMRAM   BANK0   BANK1   BANK2   BANK3   BANK4   BANK5   BANK6   BANK7
      Params:         0       0       0       0       0       0       0       0       0
      Locals:         0       1       0       0       0       0       0       0       0
      Temps:          0       0       0       0       0       0       0       0       0
      Totals:         0       1       0       0       0       0       0       0       0
Total ram usage:        1 bytes
 Hardware stack levels used:    1
 Hardware stack levels required when called:   13
 This function calls:
		_oled_writeCommand
 This function is called by:
		_oled_putChar
 This function uses a non-reentrant model


 *************** function _oled_writeCommand *****************
 Defined at:
		line 401 in file "../Includes/Drivers/SSD1306oLED.c"
 Parameters:    Size  Location     Type
  command         1    wreg     unsigned char 
 Auto vars:     Size  Location     Type
  command         1    1[BANK0 ] unsigned char 
 Return value:  Size  Location     Type
		None               void
 Registers used:
		wreg, status,2, cstack
 Tracked objects:
		On entry : 
		On exit  : 
		Unchanged: 
 Data sizes:     COMRAM   BANK0   BANK1   BANK2   BANK3   BANK4   BANK5   BANK6   BANK7
      Params:         0       0       0       0       0       0       0       0       0
      Locals:         0       1       0       0       0       0       0       0       0
      Temps:          0       0       0       0       0       0       0       0       0
      Totals:         0       1       0       0       0       0       0       0       0
Total ram usage:        1 bytes
 Hardware stack levels used:    1
 Hardware stack levels required when called:   12
 This function calls:
		_SPI_Exchange8bit
 This function is called by:
		_Set_Page_Address
		_Set_Column_Address
		_oled_devInit
		_oled_setDisplay
		_oled_displayOff
 This function uses a non-reentrant model


 *************** function _SPI_Exchange8bit *****************
 Defined at:
		line 81 in file "../Includes/MccGenerated/spi.c"
 Parameters:    Size  Location     Type
  data            1    wreg     unsigned char 
 Auto vars:     Size  Location     Type
  data            1    0[BANK0 ] unsigned char 
 Return value:  Size  Location     Type
                  1    wreg      unsigned char 
 Registers used:
		wreg, status,2
 Tracked objects:
		On entry : 
		On exit  : 
		Unchanged: 
 Data sizes:     COMRAM   BANK0   BANK1   BANK2   BANK3   BANK4   BANK5   BANK6   BANK7
      Params:         0       0       0       0       0       0       0       0       0
      Locals:         0       1       0       0       0       0       0       0       0
      Temps:          0       0       0       0       0       0       0       0       0
      Totals:         0       1       0       0       0       0       0       0       0
Total ram usage:        1 bytes
 Hardware stack levels used:    1
 Hardware stack levels required when called:   11
 This function calls:
		Nothing
 This function is called by:
		_oled_writeCommand
		_oled_writeData
 This function uses a non-reentrant model


 *************** function _USBapp_DeviceCdcEmulatorHandler *****************
 Defined at:
		line 125 in file "../Includes/Board/USBapp.c"
 Parameters:    Size  Location     Type
		None
 Auto vars:     Size  Location     Type
		None
 Return value:  Size  Location     Type
		None               void
 Registers used:
		wreg, fsr1l, fsr1h, fsr2l, fsr2h, status,2, status,0, prodl, prodh, cstack
 Tracked objects:
		On entry : 
		On exit  : 
		Unchanged: 
 Data sizes:     COMRAM   BANK0   BANK1   BANK2   BANK3   BANK4   BANK5   BANK6   BANK7
      Params:         0       0       0       0       0       0       0       0       0
      Locals:         0       0       0       0       0       0       0       0       0
      Temps:          0       1       0       0       0       0       0       0       0
      Totals:         0       1       0       0       0       0       0       0       0
Total ram usage:        1 bytes
 Hardware stack levels used:    1
 Hardware stack levels required when called:   13
 This function calls:
		_CDCTxService
		_EUSART_Read
		_EUSART_Write
		_MOTEapp_setResponseReady
		_USBapp_getrxByteFlag
		_getsUSBUSART
		_putUSBUSART
 This function is called by:
		_USBapp_Handler
 This function uses a non-reentrant model


 *************** function _putUSBUSART *****************
 Defined at:
		line 503 in file "../Includes/Usb/Framework/usb_device_cdc.c"
 Parameters:    Size  Location     Type
  data            2    0[BANK0 ] PTR unsigned char 
		 -> USB_Buffer(64), 
  length          1    2[BANK0 ] unsigned char 
 Auto vars:     Size  Location     Type
		None
 Return value:  Size  Location     Type
		None               void
 Registers used:
		wreg, status,2, status,0
 Tracked objects:
		On entry : 
		On exit  : 
		Unchanged: 
 Data sizes:     COMRAM   BANK0   BANK1   BANK2   BANK3   BANK4   BANK5   BANK6   BANK7
      Params:         0       3       0       0       0       0       0       0       0
      Locals:         0       0       0       0       0       0       0       0       0
      Temps:          0       0       0       0       0       0       0       0       0
      Totals:         0       3       0       0       0       0       0       0       0
Total ram usage:        3 bytes
 Hardware stack levels used:    1
 Hardware stack levels required when called:   11
 This function calls:
		Nothing
 This function is called by:
		_USBapp_DeviceCdcEmulatorHandler
 This function uses a non-reentrant model


 *************** function _getsUSBUSART *****************
 Defined at:
		line 432 in file "../Includes/Usb/Framework/usb_device_cdc.c"
 Parameters:    Size  Location     Type
  buffer          2    7[BANK0 ] PTR unsigned char 
		 -> USB_Buffer(64), 
  len             1    9[BANK0 ] unsigned char 
 Auto vars:     Size  Location     Type
		None
 Return value:  Size  Location     Type
                  1    wreg      unsigned char 
 Registers used:
		wreg, fsr1l, fsr1h, fsr2l, fsr2h, status,2, status,0, prodl, prodh, cstack
 Tracked objects:
		On entry : 
		On exit  : 
		Unchanged: 
 Data sizes:     COMRAM   BANK0   BANK1   BANK2   BANK3   BANK4   BANK5   BANK6   BANK7
      Params:         0       3       0       0       0       0       0       0       0
      Locals:         0       2       0       0       0       0       0       0       0
      Temps:          0       1       0       0       0       0       0       0       0
      Totals:         0       6       0       0       0       0       0       0       0
Total ram usage:        6 bytes
 Hardware stack levels used:    1
 Hardware stack levels required when called:   12
 This function calls:
		_USBTransferOnePacket
 This function is called by:
		_USBapp_DeviceCdcEmulatorHandler
 This function uses a non-reentrant model


 *************** function _USBapp_getrxByteFlag *****************
 Defined at:
		line 231 in file "../Includes/Board/USBapp.c"
 Parameters:    Size  Location     Type
		None
 Auto vars:     Size  Location     Type
		None
 Return value:  Size  Location     Type
                  1    wreg      unsigned char 
 Registers used:
		wreg, status,2
 Tracked objects:
		On entry : 
		On exit  : 
		Unchanged: 
 Data sizes:     COMRAM   BANK0   BANK1   BANK2   BANK3   BANK4   BANK5   BANK6   BANK7
      Params:         0       0       0       0       0       0       0       0       0
      Locals:         0       0       0       0       0       0       0       0       0
      Temps:          0       0       0       0       0       0       0       0       0
      Totals:         0       0       0       0       0       0       0       0       0
Total ram usage:        0 bytes
 Hardware stack levels used:    1
 Hardware stack levels required when called:   11
 This function calls:
		Nothing
 This function is called by:
		_USBapp_DeviceCdcEmulatorHandler
 This function uses a non-reentrant model


 *************** function _MOTEapp_setResponseReady *****************
 Defined at:
		line 1220 in file "../Includes/Board/MOTEapp.c"
 Parameters:    Size  Location     Type
		None
 Auto vars:     Size  Location     Type
		None
 Return value:  Size  Location     Type
		None               void
 Registers used:
		None
 Tracked objects:
		On entry : 
		On exit  : 
		Unchanged: 
 Data sizes:     COMRAM   BANK0   BANK1   BANK2   BANK3   BANK4   BANK5   BANK6   BANK7
      Params:         0       0       0       0       0       0       0       0       0
      Locals:         0       0       0       0       0       0       0       0       0
      Temps:          0       0       0       0       0       0       0       0       0
      Totals:         0       0       0       0       0       0       0       0       0
Total ram usage:        0 bytes
 Hardware stack levels used:    1
 Hardware stack levels required when called:   11
 This function calls:
		Nothing
 This function is called by:
		_USBapp_DeviceCdcEmulatorHandler
 This function uses a non-reentrant model


 *************** function _EUSART_Write *****************
 Defined at:
		line 139 in file "../Includes/MccGenerated/eusart.c"
 Parameters:    Size  Location     Type
  txData          1    wreg     unsigned char 
 Auto vars:     Size  Location     Type
  txData          1    0[BANK0 ] unsigned char 
 Return value:  Size  Location     Type
		None               void
 Registers used:
		wreg, fsr2l, fsr2h, status,2, status,0
 Tracked objects:
		On entry : 
		On exit  : 
		Unchanged: 
 Data sizes:     COMRAM   BANK0   BANK1   BANK2   BANK3   BANK4   BANK5   BANK6   BANK7
      Params:         0       0       0       0       0       0       0       0       0
      Locals:         0       1       0       0       0       0       0       0       0
      Temps:          0       0       0       0       0       0       0       0       0
      Totals:         0       1       0       0       0       0       0       0       0
Total ram usage:        1 bytes
 Hardware stack levels used:    1
 Hardware stack levels required when called:   11
 This function calls:
		Nothing
 This function is called by:
		_EndLine
		_sendCommand
		_sendDataCommand
		_USBapp_DeviceCdcEmulatorHandler
 This function uses a non-reentrant model


 *************** function _EUSART_Read *****************
 Defined at:
		line 117 in file "../Includes/MccGenerated/eusart.c"
 Parameters:    Size  Location     Type
		None
 Auto vars:     Size  Location     Type
  readValue       1    0[BANK0 ] unsigned char 
 Return value:  Size  Location     Type
                  1    wreg      unsigned char 
 Registers used:
		wreg, fsr2l, fsr2h, status,2, status,0
 Tracked objects:
		On entry : 
		On exit  : 
		Unchanged: 
 Data sizes:     COMRAM   BANK0   BANK1   BANK2   BANK3   BANK4   BANK5   BANK6   BANK7
      Params:         0       0       0       0       0       0       0       0       0
      Locals:         0       1       0       0       0       0       0       0       0
      Temps:          0       0       0       0       0       0       0       0       0
      Totals:         0       1       0       0       0       0       0       0       0
Total ram usage:        1 bytes
 Hardware stack levels used:    1
 Hardware stack levels required when called:   11
 This function calls:
		Nothing
 This function is called by:
		_MOTEapp_getModemResponse
		_USBapp_DeviceCdcEmulatorHandler
 This function uses a non-reentrant model


 *************** function _CDCTxService *****************
 Defined at:
		line 783 in file "../Includes/Usb/Framework/usb_device_cdc.c"
 Parameters:    Size  Location     Type
		None
 Auto vars:     Size  Location     Type
  byte_to_send    1   10[BANK0 ] unsigned char 
  i               1    9[BANK0 ] unsigned char 
 Return value:  Size  Location     Type
		None               void
 Registers used:
		wreg, fsr1l, fsr1h, fsr2l, fsr2h, status,2, status,0, prodl, prodh, cstack
 Tracked objects:
		On entry : 
		On exit  : 
		Unchanged: 
 Data sizes:     COMRAM   BANK0   BANK1   BANK2   BANK3   BANK4   BANK5   BANK6   BANK7
      Params:         0       0       0       0       0       0       0       0       0
      Locals:         0       4       0       0       0       0       0       0       0
      Temps:          0       0       0       0       0       0       0       0       0
      Totals:         0       4       0       0       0       0       0       0       0
Total ram usage:        4 bytes
 Hardware stack levels used:    1
 Hardware stack levels required when called:   12
 This function calls:
		_USBTransferOnePacket
 This function is called by:
		_USBapp_DeviceCdcEmulatorHandler
 This function uses a non-reentrant model


 *************** function _USBTransferOnePacket *****************
 Defined at:
		line 757 in file "../Includes/Usb/Framework/usb_device.c"
 Parameters:    Size  Location     Type
  ep              1    wreg     unsigned char 
  dir             1    0[BANK0 ] unsigned char 
  data            2    1[BANK0 ] PTR unsigned char 
		 -> cdc_data_tx(64), cdc_data_rx(64), NULL(0), 
  len             1    3[BANK0 ] unsigned char 
 Auto vars:     Size  Location     Type
  ep              1    4[BANK0 ] unsigned char 
  handle          2    5[BANK0 ] PTR volatile struct __BD
		 -> BDT(48), NULL(0), 
 Return value:  Size  Location     Type
                  2    0[BANK0 ] PTR void 
 Registers used:
		wreg, fsr2l, fsr2h, status,2, status,0, prodl, prodh
 Tracked objects:
		On entry : 
		On exit  : 
		Unchanged: 
 Data sizes:     COMRAM   BANK0   BANK1   BANK2   BANK3   BANK4   BANK5   BANK6   BANK7
      Params:         0       4       0       0       0       0       0       0       0
      Locals:         0       3       0       0       0       0       0       0       0
      Temps:          0       0       0       0       0       0       0       0       0
      Totals:         0       7       0       0       0       0       0       0       0
Total ram usage:        7 bytes
 Hardware stack levels used:    1
 Hardware stack levels required when called:   11
 This function calls:
		Nothing
 This function is called by:
		_getsUSBUSART
		_CDCTxService
 This function uses a non-reentrant model


 *************** function _USBDeviceInit *****************
 Defined at:
		line 237 in file "../Includes/Usb/Framework/usb_device.c"
 Parameters:    Size  Location     Type
		None
 Auto vars:     Size  Location     Type
  i               1    8[BANK0 ] unsigned char 
 Return value:  Size  Location     Type
		None               void
 Registers used:
		wreg, fsr2l, fsr2h, status,2, status,0, prodl, prodh, cstack
 Tracked objects:
		On entry : 
		On exit  : 
		Unchanged: 
 Data sizes:     COMRAM   BANK0   BANK1   BANK2   BANK3   BANK4   BANK5   BANK6   BANK7
      Params:         0       0       0       0       0       0       0       0       0
      Locals:         0       1       0       0       0       0       0       0       0
      Temps:          0       0       0       0       0       0       0       0       0
      Totals:         0       1       0       0       0       0       0       0       0
Total ram usage:        1 bytes
 Hardware stack levels used:    1
 Hardware stack levels required when called:   12
 This function calls:
		_memset
 This function is called by:
		_main
 This function uses a non-reentrant model


 *************** function _memset *****************
 Defined at:
		line 8 in file "C:\Program Files (x86)\Microchip\xc8\v1.33\sources\common\memset.c"
 Parameters:    Size  Location     Type
  p1              2    0[BANK0 ] PTR void 
		 -> USBAlternateInterface(2), BDT(48), UEP1(1), 
  c               2    2[BANK0 ] int 
  n               2    4[BANK0 ] unsigned int 
 Auto vars:     Size  Location     Type
  p               2    6[BANK0 ] PTR unsigned char 
		 -> USBAlternateInterface(2), BDT(48), UEP1(1), 
 Return value:  Size  Location     Type
                  2    0[BANK0 ] PTR void 
 Registers used:
		wreg, fsr2l, fsr2h, status,2, status,0
 Tracked objects:
		On entry : 
		On exit  : 
		Unchanged: 
 Data sizes:     COMRAM   BANK0   BANK1   BANK2   BANK3   BANK4   BANK5   BANK6   BANK7
      Params:         0       6       0       0       0       0       0       0       0
      Locals:         0       2       0       0       0       0       0       0       0
      Temps:          0       0       0       0       0       0       0       0       0
      Totals:         0       8       0       0       0       0       0       0       0
Total ram usage:        8 bytes
 Hardware stack levels used:    1
 Hardware stack levels required when called:   11
 This function calls:
		Nothing
 This function is called by:
		_USBDeviceInit
 This function uses a non-reentrant model


 *************** function _USBDeviceAttach *****************
 Defined at:
		line 1046 in file "../Includes/Usb/Framework/usb_device.c"
 Parameters:    Size  Location     Type
		None
 Auto vars:     Size  Location     Type
		None
 Return value:  Size  Location     Type
		None               void
 Registers used:
		wreg, status,2
 Tracked objects:
		On entry : 
		On exit  : 
		Unchanged: 
 Data sizes:     COMRAM   BANK0   BANK1   BANK2   BANK3   BANK4   BANK5   BANK6   BANK7
      Params:         0       0       0       0       0       0       0       0       0
      Locals:         0       0       0       0       0       0       0       0       0
      Temps:          0       0       0       0       0       0       0       0       0
      Totals:         0       0       0       0       0       0       0       0       0
Total ram usage:        0 bytes
 Hardware stack levels used:    1
 Hardware stack levels required when called:   11
 This function calls:
		Nothing
 This function is called by:
		_main
 This function uses a non-reentrant model


 *************** function _SYSTEM_Initialize *****************
 Defined at:
		line 93 in file "../Includes/MccGenerated/mcc.c"
 Parameters:    Size  Location     Type
		None
 Auto vars:     Size  Location     Type
		None
 Return value:  Size  Location     Type
		None               void
 Registers used:
		wreg, status,2, status,0, cstack
 Tracked objects:
		On entry : 
		On exit  : 
		Unchanged: 
 Data sizes:     COMRAM   BANK0   BANK1   BANK2   BANK3   BANK4   BANK5   BANK6   BANK7
      Params:         0       0       0       0       0       0       0       0       0
      Locals:         0       0       0       0       0       0       0       0       0
      Temps:          0       0       0       0       0       0       0       0       0
      Totals:         0       0       0       0       0       0       0       0       0
Total ram usage:        0 bytes
 Hardware stack levels used:    1
 Hardware stack levels required when called:   13
 This function calls:
		_ADC_Initialize
		_CMP1_Initialize
		_EUSART_Initialize
		_OSCILLATOR_Initialize
		_PIN_MANAGER_Initialize
		_SPI_Initialize
		_TMR1_Initialize
		_TMR2_Initialize
 This function is called by:
		_main
 This function uses a non-reentrant model


 *************** function _TMR2_Initialize *****************
 Defined at:
		line 58 in file "../Includes/MccGenerated/tmr2.c"
 Parameters:    Size  Location     Type
		None
 Auto vars:     Size  Location     Type
		None
 Return value:  Size  Location     Type
		None               void
 Registers used:
		wreg, status,2, cstack
 Tracked objects:
		On entry : 
		On exit  : 
		Unchanged: 
 Data sizes:     COMRAM   BANK0   BANK1   BANK2   BANK3   BANK4   BANK5   BANK6   BANK7
      Params:         0       0       0       0       0       0       0       0       0
      Locals:         0       0       0       0       0       0       0       0       0
      Temps:          0       0       0       0       0       0       0       0       0
      Totals:         0       0       0       0       0       0       0       0       0
Total ram usage:        0 bytes
 Hardware stack levels used:    1
 Hardware stack levels required when called:   12
 This function calls:
		_TMR2_StartTimer
 This function is called by:
		_SYSTEM_Initialize
 This function uses a non-reentrant model


 *************** function _TMR2_StartTimer *****************
 Defined at:
		line 77 in file "../Includes/MccGenerated/tmr2.c"
 Parameters:    Size  Location     Type
		None
 Auto vars:     Size  Location     Type
		None
 Return value:  Size  Location     Type
		None               void
 Registers used:
		None
 Tracked objects:
		On entry : 
		On exit  : 
		Unchanged: 
 Data sizes:     COMRAM   BANK0   BANK1   BANK2   BANK3   BANK4   BANK5   BANK6   BANK7
      Params:         0       0       0       0       0       0       0       0       0
      Locals:         0       0       0       0       0       0       0       0       0
      Temps:          0       0       0       0       0       0       0       0       0
      Totals:         0       0       0       0       0       0       0       0       0
Total ram usage:        0 bytes
 Hardware stack levels used:    1
 Hardware stack levels required when called:   11
 This function calls:
		Nothing
 This function is called by:
		_TMR2_Initialize
 This function uses a non-reentrant model


 *************** function _TMR1_Initialize *****************
 Defined at:
		line 63 in file "../Includes/MccGenerated/tmr1.c"
 Parameters:    Size  Location     Type
		None
 Auto vars:     Size  Location     Type
		None
 Return value:  Size  Location     Type
		None               void
 Registers used:
		wreg, status,2, status,0, cstack
 Tracked objects:
		On entry : 
		On exit  : 
		Unchanged: 
 Data sizes:     COMRAM   BANK0   BANK1   BANK2   BANK3   BANK4   BANK5   BANK6   BANK7
      Params:         0       0       0       0       0       0       0       0       0
      Locals:         0       0       0       0       0       0       0       0       0
      Temps:          0       2       0       0       0       0       0       0       0
      Totals:         0       2       0       0       0       0       0       0       0
Total ram usage:        2 bytes
 Hardware stack levels used:    1
 Hardware stack levels required when called:   12
 This function calls:
		_TMR1_StartTimer
 This function is called by:
		_SYSTEM_Initialize
 This function uses a non-reentrant model


 *************** function _TMR1_StartTimer *****************
 Defined at:
		line 92 in file "../Includes/MccGenerated/tmr1.c"
 Parameters:    Size  Location     Type
		None
 Auto vars:     Size  Location     Type
		None
 Return value:  Size  Location     Type
		None               void
 Registers used:
		None
 Tracked objects:
		On entry : 
		On exit  : 
		Unchanged: 
 Data sizes:     COMRAM   BANK0   BANK1   BANK2   BANK3   BANK4   BANK5   BANK6   BANK7
      Params:         0       0       0       0       0       0       0       0       0
      Locals:         0       0       0       0       0       0       0       0       0
      Temps:          0       0       0       0       0       0       0       0       0
      Totals:         0       0       0       0       0       0       0       0       0
Total ram usage:        0 bytes
 Hardware stack levels used:    1
 Hardware stack levels required when called:   11
 This function calls:
		Nothing
 This function is called by:
		_TMR1_Initialize
 This function uses a non-reentrant model


 *************** function _SPI_Initialize *****************
 Defined at:
		line 64 in file "../Includes/MccGenerated/spi.c"
 Parameters:    Size  Location     Type
		None
 Auto vars:     Size  Location     Type
		None
 Return value:  Size  Location     Type
		None               void
 Registers used:
		wreg, status,2
 Tracked objects:
		On entry : 
		On exit  : 
		Unchanged: 
 Data sizes:     COMRAM   BANK0   BANK1   BANK2   BANK3   BANK4   BANK5   BANK6   BANK7
      Params:         0       0       0       0       0       0       0       0       0
      Locals:         0       0       0       0       0       0       0       0       0
      Temps:          0       0       0       0       0       0       0       0       0
      Totals:         0       0       0       0       0       0       0       0       0
Total ram usage:        0 bytes
 Hardware stack levels used:    1
 Hardware stack levels required when called:   11
 This function calls:
		Nothing
 This function is called by:
		_SYSTEM_Initialize
 This function uses a non-reentrant model


 *************** function _PIN_MANAGER_Initialize *****************
 Defined at:
		line 51 in file "../Includes/MccGenerated/pin_manager.c"
 Parameters:    Size  Location     Type
		None
 Auto vars:     Size  Location     Type
		None
 Return value:  Size  Location     Type
		None               void
 Registers used:
		None
 Tracked objects:
		On entry : 
		On exit  : 
		Unchanged: 
 Data sizes:     COMRAM   BANK0   BANK1   BANK2   BANK3   BANK4   BANK5   BANK6   BANK7
      Params:         0       0       0       0       0       0       0       0       0
      Locals:         0       0       0       0       0       0       0       0       0
      Temps:          0       0       0       0       0       0       0       0       0
      Totals:         0       0       0       0       0       0       0       0       0
Total ram usage:        0 bytes
 Hardware stack levels used:    1
 Hardware stack levels required when called:   11
 This function calls:
		Nothing
 This function is called by:
		_moteApp_GoToSleep
		_SYSTEM_Initialize
 This function uses a non-reentrant model


 *************** function _OSCILLATOR_Initialize *****************
 Defined at:
		line 105 in file "../Includes/MccGenerated/mcc.c"
 Parameters:    Size  Location     Type
		None
 Auto vars:     Size  Location     Type
		None
 Return value:  Size  Location     Type
		None               void
 Registers used:
		wreg, status,2
 Tracked objects:
		On entry : 
		On exit  : 
		Unchanged: 
 Data sizes:     COMRAM   BANK0   BANK1   BANK2   BANK3   BANK4   BANK5   BANK6   BANK7
      Params:         0       0       0       0       0       0       0       0       0
      Locals:         0       0       0       0       0       0       0       0       0
      Temps:          0       0       0       0       0       0       0       0       0
      Totals:         0       0       0       0       0       0       0       0       0
Total ram usage:        0 bytes
 Hardware stack levels used:    1
 Hardware stack levels required when called:   11
 This function calls:
		Nothing
 This function is called by:
		_SYSTEM_Initialize
 This function uses a non-reentrant model


 *************** function _EUSART_Initialize *****************
 Defined at:
		line 77 in file "../Includes/MccGenerated/eusart.c"
 Parameters:    Size  Location     Type
		None
 Auto vars:     Size  Location     Type
		None
 Return value:  Size  Location     Type
		None               void
 Registers used:
		wreg, status,2
 Tracked objects:
		On entry : 
		On exit  : 
		Unchanged: 
 Data sizes:     COMRAM   BANK0   BANK1   BANK2   BANK3   BANK4   BANK5   BANK6   BANK7
      Params:         0       0       0       0       0       0       0       0       0
      Locals:         0       0       0       0       0       0       0       0       0
      Temps:          0       0       0       0       0       0       0       0       0
      Totals:         0       0       0       0       0       0       0       0       0
Total ram usage:        0 bytes
 Hardware stack levels used:    1
 Hardware stack levels required when called:   11
 This function calls:
		Nothing
 This function is called by:
		_moteApp_GoToSleep
		_SYSTEM_Initialize
 This function uses a non-reentrant model


 *************** function _CMP1_Initialize *****************
 Defined at:
		line 58 in file "../Includes/MccGenerated/cmp1.c"
 Parameters:    Size  Location     Type
		None
 Auto vars:     Size  Location     Type
		None
 Return value:  Size  Location     Type
		None               void
 Registers used:
		wreg, status,2
 Tracked objects:
		On entry : 
		On exit  : 
		Unchanged: 
 Data sizes:     COMRAM   BANK0   BANK1   BANK2   BANK3   BANK4   BANK5   BANK6   BANK7
      Params:         0       0       0       0       0       0       0       0       0
      Locals:         0       0       0       0       0       0       0       0       0
      Temps:          0       0       0       0       0       0       0       0       0
      Totals:         0       0       0       0       0       0       0       0       0
Total ram usage:        0 bytes
 Hardware stack levels used:    1
 Hardware stack levels required when called:   11
 This function calls:
		Nothing
 This function is called by:
		_SYSTEM_Initialize
 This function uses a non-reentrant model


 *************** function _ADC_Initialize *****************
 Defined at:
		line 65 in file "../Includes/MccGenerated/adc.c"
 Parameters:    Size  Location     Type
		None
 Auto vars:     Size  Location     Type
		None
 Return value:  Size  Location     Type
		None               void
 Registers used:
		wreg, status,2
 Tracked objects:
		On entry : 
		On exit  : 
		Unchanged: 
 Data sizes:     COMRAM   BANK0   BANK1   BANK2   BANK3   BANK4   BANK5   BANK6   BANK7
      Params:         0       0       0       0       0       0       0       0       0
      Locals:         0       0       0       0       0       0       0       0       0
      Temps:          0       0       0       0       0       0       0       0       0
      Totals:         0       0       0       0       0       0       0       0       0
Total ram usage:        0 bytes
 Hardware stack levels used:    1
 Hardware stack levels required when called:   11
 This function calls:
		Nothing
 This function is called by:
		_SYSTEM_Initialize
 This function uses a non-reentrant model


 *************** function _MOTEapp_handlerState *****************
 Defined at:
		line 154 in file "../Includes/Board/MOTEapp.c"
 Parameters:    Size  Location     Type
  state           1    wreg     enum E7150
 Auto vars:     Size  Location     Type
  state           1    0[BANK0 ] enum E7150
 Return value:  Size  Location     Type
		None               void
 Registers used:
		wreg
 Tracked objects:
		On entry : 
		On exit  : 
		Unchanged: 
 Data sizes:     COMRAM   BANK0   BANK1   BANK2   BANK3   BANK4   BANK5   BANK6   BANK7
      Params:         0       0       0       0       0       0       0       0       0
      Locals:         0       1       0       0       0       0       0       0       0
      Temps:          0       0       0       0       0       0       0       0       0
      Totals:         0       1       0       0       0       0       0       0       0
Total ram usage:        1 bytes
 Hardware stack levels used:    1
 Hardware stack levels required when called:   11
 This function calls:
		Nothing
 This function is called by:
		_main
 This function uses a non-reentrant model


 *************** function _DATAEE_ReadByte *****************
 Defined at:
		line 188 in file "../Includes/MccGenerated/memory.c"
 Parameters:    Size  Location     Type
  bAdd            1    wreg     unsigned char 
 Auto vars:     Size  Location     Type
  bAdd            1    0[BANK0 ] unsigned char 
 Return value:  Size  Location     Type
                  1    wreg      unsigned char 
 Registers used:
		wreg, status,2
 Tracked objects:
		On entry : 
		On exit  : 
		Unchanged: 
 Data sizes:     COMRAM   BANK0   BANK1   BANK2   BANK3   BANK4   BANK5   BANK6   BANK7
      Params:         0       0       0       0       0       0       0       0       0
      Locals:         0       1       0       0       0       0       0       0       0
      Temps:          0       0       0       0       0       0       0       0       0
      Totals:         0       1       0       0       0       0       0       0       0
Total ram usage:        1 bytes
 Hardware stack levels used:    1
 Hardware stack levels required when called:   11
 This function calls:
		Nothing
 This function is called by:
		_main
 This function uses a non-reentrant model


 *************** function _INTERRUPT_InterruptManager *****************
 Defined at:
		line 55 in file "../Includes/MccGenerated/interrupt_manager.c"
 Parameters:    Size  Location     Type
		None
 Auto vars:     Size  Location     Type
		None
 Return value:  Size  Location     Type
		None               void
 Registers used:
		wreg, fsr1l, fsr1h, fsr2l, fsr2h, status,2, status,0, pclat, tosl, tblptrl, tblptrh, tblptru, prodl, prodh, cstack
 Tracked objects:
		On entry : 
		On exit  : 
		Unchanged: 
 Data sizes:     COMRAM   BANK0   BANK1   BANK2   BANK3   BANK4   BANK5   BANK6   BANK7
      Params:         0       0       0       0       0       0       0       0       0
      Locals:         0       0       0       0       0       0       0       0       0
      Temps:         12       0       0       0       0       0       0       0       0
      Totals:        12       0       0       0       0       0       0       0       0
Total ram usage:       12 bytes
 Hardware stack levels used:    1
 Hardware stack levels required when called:   10
 This function calls:
		_CMP1_ISR
		_EUSART_Receive_ISR
		_EUSART_Transmit_ISR
		_TMR1_ISR
		_TMRapp_Tick
		_USBDeviceTasks
		_USBapp_setrxByteFlag
 This function is called by:
		Interrupt level 2
 This function uses a non-reentrant model


 *************** function _USBapp_setrxByteFlag *****************
 Defined at:
		line 226 in file "../Includes/Board/USBapp.c"
 Parameters:    Size  Location     Type
		None
 Auto vars:     Size  Location     Type
		None
 Return value:  Size  Location     Type
		None               void
 Registers used:
		wreg, status,2
 Tracked objects:
		On entry : 
		On exit  : 
		Unchanged: 
 Data sizes:     COMRAM   BANK0   BANK1   BANK2   BANK3   BANK4   BANK5   BANK6   BANK7
      Params:         0       0       0       0       0       0       0       0       0
      Locals:         0       0       0       0       0       0       0       0       0
      Temps:          0       0       0       0       0       0       0       0       0
      Totals:         0       0       0       0       0       0       0       0       0
Total ram usage:        0 bytes
 Hardware stack levels used:    1
 This function calls:
		Nothing
 This function is called by:
		_INTERRUPT_InterruptManager
 This function uses a non-reentrant model


 *************** function _USBDeviceTasks *****************
 Defined at:
		line 428 in file "../Includes/Usb/Framework/usb_device.c"
 Parameters:    Size  Location     Type
		None
 Auto vars:     Size  Location     Type
  i               1   34[COMRAM] unsigned char 
 Return value:  Size  Location     Type
		None               void
 Registers used:
		wreg, fsr1l, fsr1h, fsr2l, fsr2h, status,2, status,0, pclat, tosl, tblptrl, tblptrh, tblptru, prodl, prodh, cstack
 Tracked objects:
		On entry : 
		On exit  : 
		Unchanged: 
 Data sizes:     COMRAM   BANK0   BANK1   BANK2   BANK3   BANK4   BANK5   BANK6   BANK7
      Params:         0       0       0       0       0       0       0       0       0
      Locals:         1       0       0       0       0       0       0       0       0
      Temps:          0       0       0       0       0       0       0       0       0
      Totals:         1       0       0       0       0       0       0       0       0
Total ram usage:        1 bytes
 Hardware stack levels used:    1
 Hardware stack levels required when called:    9
 This function calls:
		_USBCtrlEPAllowStatusStage
		_USBCtrlEPService
		_USBStallHandler
		_USBSuspend
		_USBWakeFromSuspend
		_USER_USB_CALLBACK_EVENT_HANDLER
		i2_USBDeviceInit
 This function is called by:
		_INTERRUPT_InterruptManager
 This function uses a non-reentrant model


 *************** function i2_USBDeviceInit *****************
 Defined at:
		line 237 in file "../Includes/Usb/Framework/usb_device.c"
 Parameters:    Size  Location     Type
		None
 Auto vars:     Size  Location     Type
  USBDeviceIni    1    8[COMRAM] unsigned char 
 Return value:  Size  Location     Type
		None               void
 Registers used:
		wreg, fsr2l, fsr2h, status,2, status,0, prodl, prodh, cstack
 Tracked objects:
		On entry : 
		On exit  : 
		Unchanged: 
 Data sizes:     COMRAM   BANK0   BANK1   BANK2   BANK3   BANK4   BANK5   BANK6   BANK7
      Params:         0       0       0       0       0       0       0       0       0
      Locals:         1       0       0       0       0       0       0       0       0
      Temps:          0       0       0       0       0       0       0       0       0
      Totals:         1       0       0       0       0       0       0       0       0
Total ram usage:        1 bytes
 Hardware stack levels used:    1
 Hardware stack levels required when called:    1
 This function calls:
		i2_memset
 This function is called by:
		_USBDeviceTasks
 This function uses a non-reentrant model


 *************** function _USBWakeFromSuspend *****************
 Defined at:
		line 1944 in file "../Includes/Usb/Framework/usb_device.c"
 Parameters:    Size  Location     Type
		None
 Auto vars:     Size  Location     Type
		None
 Return value:  Size  Location     Type
		None               void
 Registers used:
		wreg, fsr2l, fsr2h, status,2, status,0, prodl, prodh, cstack
 Tracked objects:
		On entry : 
		On exit  : 
		Unchanged: 
 Data sizes:     COMRAM   BANK0   BANK1   BANK2   BANK3   BANK4   BANK5   BANK6   BANK7
      Params:         0       0       0       0       0       0       0       0       0
      Locals:         0       0       0       0       0       0       0       0       0
      Temps:          0       0       0       0       0       0       0       0       0
      Totals:         0       0       0       0       0       0       0       0       0
Total ram usage:        0 bytes
 Hardware stack levels used:    1
 Hardware stack levels required when called:    5
 This function calls:
		_USER_USB_CALLBACK_EVENT_HANDLER
 This function is called by:
		_USBDeviceTasks
 This function uses a non-reentrant model


 *************** function _USBSuspend *****************
 Defined at:
		line 1889 in file "../Includes/Usb/Framework/usb_device.c"
 Parameters:    Size  Location     Type
		None
 Auto vars:     Size  Location     Type
		None
 Return value:  Size  Location     Type
		None               void
 Registers used:
		wreg, fsr2l, fsr2h, status,2, status,0, prodl, prodh, cstack
 Tracked objects:
		On entry : 
		On exit  : 
		Unchanged: 
 Data sizes:     COMRAM   BANK0   BANK1   BANK2   BANK3   BANK4   BANK5   BANK6   BANK7
      Params:         0       0       0       0       0       0       0       0       0
      Locals:         0       0       0       0       0       0       0       0       0
      Temps:          0       0       0       0       0       0       0       0       0
      Totals:         0       0       0       0       0       0       0       0       0
Total ram usage:        0 bytes
 Hardware stack levels used:    1
 Hardware stack levels required when called:    5
 This function calls:
		_USER_USB_CALLBACK_EVENT_HANDLER
 This function is called by:
		_USBDeviceTasks
 This function uses a non-reentrant model


 *************** function _USBStallHandler *****************
 Defined at:
		line 1846 in file "../Includes/Usb/Framework/usb_device.c"
 Parameters:    Size  Location     Type
		None
 Auto vars:     Size  Location     Type
		None
 Return value:  Size  Location     Type
		None               void
 Registers used:
		wreg, fsr2l, fsr2h, status,2, status,0
 Tracked objects:
		On entry : 
		On exit  : 
		Unchanged: 
 Data sizes:     COMRAM   BANK0   BANK1   BANK2   BANK3   BANK4   BANK5   BANK6   BANK7
      Params:         0       0       0       0       0       0       0       0       0
      Locals:         0       0       0       0       0       0       0       0       0
      Temps:          0       0       0       0       0       0       0       0       0
      Totals:         0       0       0       0       0       0       0       0       0
Total ram usage:        0 bytes
 Hardware stack levels used:    1
 This function calls:
		Nothing
 This function is called by:
		_USBDeviceTasks
 This function uses a non-reentrant model


 *************** function _USBCtrlEPService *****************
 Defined at:
		line 2004 in file "../Includes/Usb/Framework/usb_device.c"
 Parameters:    Size  Location     Type
		None
 Auto vars:     Size  Location     Type
  setup_cnt       1   33[COMRAM] unsigned char 
 Return value:  Size  Location     Type
		None               void
 Registers used:
		wreg, fsr1l, fsr1h, fsr2l, fsr2h, status,2, status,0, pclat, tosl, tblptrl, tblptrh, tblptru, prodl, prodh, cstack
 Tracked objects:
		On entry : 
		On exit  : 
		Unchanged: 
 Data sizes:     COMRAM   BANK0   BANK1   BANK2   BANK3   BANK4   BANK5   BANK6   BANK7
      Params:         0       0       0       0       0       0       0       0       0
      Locals:         1       0       0       0       0       0       0       0       0
      Temps:          2       0       0       0       0       0       0       0       0
      Totals:         3       0       0       0       0       0       0       0       0
Total ram usage:        3 bytes
 Hardware stack levels used:    1
 Hardware stack levels required when called:    8
 This function calls:
		_USBCtrlTrfInHandler
		_USBCtrlTrfOutHandler
		_USBCtrlTrfSetupHandler
 This function is called by:
		_USBDeviceTasks
 This function uses a non-reentrant model


 *************** function _USBCtrlTrfSetupHandler *****************
 Defined at:
		line 2097 in file "../Includes/Usb/Framework/usb_device.c"
 Parameters:    Size  Location     Type
		None
 Auto vars:     Size  Location     Type
		None
 Return value:  Size  Location     Type
		None               void
 Registers used:
		wreg, fsr1l, fsr1h, fsr2l, fsr2h, status,2, status,0, tblptrl, tblptrh, tblptru, prodl, prodh, cstack
 Tracked objects:
		On entry : 
		On exit  : 
		Unchanged: 
 Data sizes:     COMRAM   BANK0   BANK1   BANK2   BANK3   BANK4   BANK5   BANK6   BANK7
      Params:         0       0       0       0       0       0       0       0       0
      Locals:         0       0       0       0       0       0       0       0       0
      Temps:          0       0       0       0       0       0       0       0       0
      Totals:         0       0       0       0       0       0       0       0       0
Total ram usage:        0 bytes
 Hardware stack levels used:    1
 Hardware stack levels required when called:    7
 This function calls:
		_USBCheckStdRequest
		_USBCtrlEPServiceComplete
		_USER_USB_CALLBACK_EVENT_HANDLER
 This function is called by:
		_USBCtrlEPService
 This function uses a non-reentrant model


 *************** function _USBCtrlEPServiceComplete *****************
 Defined at:
		line 1282 in file "../Includes/Usb/Framework/usb_device.c"
 Parameters:    Size  Location     Type
		None
 Auto vars:     Size  Location     Type
		None
 Return value:  Size  Location     Type
		None               void
 Registers used:
		wreg, fsr1l, fsr1h, fsr2l, fsr2h, status,2, status,0, tblptrl, tblptrh, tblptru, cstack
 Tracked objects:
		On entry : 
		On exit  : 
		Unchanged: 
 Data sizes:     COMRAM   BANK0   BANK1   BANK2   BANK3   BANK4   BANK5   BANK6   BANK7
      Params:         0       0       0       0       0       0       0       0       0
      Locals:         0       0       0       0       0       0       0       0       0
      Temps:          0       0       0       0       0       0       0       0       0
      Totals:         0       0       0       0       0       0       0       0       0
Total ram usage:        0 bytes
 Hardware stack levels used:    1
 Hardware stack levels required when called:    2
 This function calls:
		_USBCtrlEPAllowDataStage
		_USBCtrlEPAllowStatusStage
 This function is called by:
		_USBCtrlTrfSetupHandler
 This function uses a non-reentrant model


 *************** function _USBCtrlEPAllowDataStage *****************
 Defined at:
		line 1173 in file "../Includes/Usb/Framework/usb_device.c"
 Parameters:    Size  Location     Type
		None
 Auto vars:     Size  Location     Type
		None
 Return value:  Size  Location     Type
		None               void
 Registers used:
		wreg, fsr1l, fsr1h, fsr2l, fsr2h, status,2, status,0, tblptrl, tblptrh, tblptru, cstack
 Tracked objects:
		On entry : 
		On exit  : 
		Unchanged: 
 Data sizes:     COMRAM   BANK0   BANK1   BANK2   BANK3   BANK4   BANK5   BANK6   BANK7
      Params:         0       0       0       0       0       0       0       0       0
      Locals:         0       0       0       0       0       0       0       0       0
      Temps:          0       0       0       0       0       0       0       0       0
      Totals:         0       0       0       0       0       0       0       0       0
Total ram usage:        0 bytes
 Hardware stack levels used:    1
 Hardware stack levels required when called:    1
 This function calls:
		_USBCtrlTrfTxService
 This function is called by:
		_USBCtrlEPServiceComplete
 This function uses a non-reentrant model


 *************** function _USBCheckStdRequest *****************
 Defined at:
		line 2317 in file "../Includes/Usb/Framework/usb_device.c"
 Parameters:    Size  Location     Type
		None
 Auto vars:     Size  Location     Type
		None
 Return value:  Size  Location     Type
		None               void
 Registers used:
		wreg, fsr1l, fsr1h, fsr2l, fsr2h, status,2, status,0, tblptrl, tblptrh, tblptru, prodl, prodh, cstack
 Tracked objects:
		On entry : 
		On exit  : 
		Unchanged: 
 Data sizes:     COMRAM   BANK0   BANK1   BANK2   BANK3   BANK4   BANK5   BANK6   BANK7
      Params:         0       0       0       0       0       0       0       0       0
      Locals:         0       0       0       0       0       0       0       0       0
      Temps:          1       0       0       0       0       0       0       0       0
      Totals:         1       0       0       0       0       0       0       0       0
Total ram usage:        1 bytes
 Hardware stack levels used:    1
 Hardware stack levels required when called:    6
 This function calls:
		_USBStdFeatureReqHandler
		_USBStdGetDscHandler
		_USBStdGetStatusHandler
		_USBStdSetCfgHandler
		_USER_USB_CALLBACK_EVENT_HANDLER
 This function is called by:
		_USBCtrlTrfSetupHandler
 This function uses a non-reentrant model


 *************** function _USBStdSetCfgHandler *****************
 Defined at:
		line 1629 in file "../Includes/Usb/Framework/usb_device.c"
 Parameters:    Size  Location     Type
		None
 Auto vars:     Size  Location     Type
  i               1   23[COMRAM] unsigned char 
 Return value:  Size  Location     Type
		None               void
 Registers used:
		wreg, fsr2l, fsr2h, status,2, status,0, prodl, prodh, cstack
 Tracked objects:
		On entry : 
		On exit  : 
		Unchanged: 
 Data sizes:     COMRAM   BANK0   BANK1   BANK2   BANK3   BANK4   BANK5   BANK6   BANK7
      Params:         0       0       0       0       0       0       0       0       0
      Locals:         1       0       0       0       0       0       0       0       0
      Temps:          0       0       0       0       0       0       0       0       0
      Totals:         1       0       0       0       0       0       0       0       0
Total ram usage:        1 bytes
 Hardware stack levels used:    1
 Hardware stack levels required when called:    5
 This function calls:
		_USER_USB_CALLBACK_EVENT_HANDLER
		i2_memset
 This function is called by:
		_USBCheckStdRequest
 This function uses a non-reentrant model


 *************** function i2_memset *****************
 Defined at:
		line 8 in file "C:\Program Files (x86)\Microchip\xc8\v1.33\sources\common\memset.c"
 Parameters:    Size  Location     Type
  p1              2    0[COMRAM] PTR void 
		 -> USBAlternateInterface(2), BDT(48), UEP1(1), 
  c               2    2[COMRAM] int 
  n               2    4[COMRAM] unsigned int 
 Auto vars:     Size  Location     Type
  memset          2    6[COMRAM] PTR unsigned char 
		 -> USBAlternateInterface(2), BDT(48), UEP1(1), 
 Return value:  Size  Location     Type
                  2    0[COMRAM] PTR void 
 Registers used:
		wreg, fsr2l, fsr2h, status,2, status,0
 Tracked objects:
		On entry : 
		On exit  : 
		Unchanged: 
 Data sizes:     COMRAM   BANK0   BANK1   BANK2   BANK3   BANK4   BANK5   BANK6   BANK7
      Params:         6       0       0       0       0       0       0       0       0
      Locals:         2       0       0       0       0       0       0       0       0
      Temps:          0       0       0       0       0       0       0       0       0
      Totals:         8       0       0       0       0       0       0       0       0
Total ram usage:        8 bytes
 Hardware stack levels used:    1
 This function calls:
		Nothing
 This function is called by:
		_USBStdSetCfgHandler
		i2_USBDeviceInit
 This function uses a non-reentrant model


 *************** function _USBStdGetStatusHandler *****************
 Defined at:
		line 1773 in file "../Includes/Usb/Framework/usb_device.c"
 Parameters:    Size  Location     Type
		None
 Auto vars:     Size  Location     Type
  p               2    0[COMRAM] PTR struct __BDT
		 -> BDT(48), NULL(0), 
 Return value:  Size  Location     Type
		None               void
 Registers used:
		wreg, fsr2l, fsr2h, status,2, status,0, prodl, prodh
 Tracked objects:
		On entry : 
		On exit  : 
		Unchanged: 
 Data sizes:     COMRAM   BANK0   BANK1   BANK2   BANK3   BANK4   BANK5   BANK6   BANK7
      Params:         0       0       0       0       0       0       0       0       0
      Locals:         2       0       0       0       0       0       0       0       0
      Temps:          0       0       0       0       0       0       0       0       0
      Totals:         2       0       0       0       0       0       0       0       0
Total ram usage:        2 bytes
 Hardware stack levels used:    1
 This function calls:
		Nothing
 This function is called by:
		_USBCheckStdRequest
 This function uses a non-reentrant model


 *************** function _USBStdGetDscHandler *****************
 Defined at:
		line 1704 in file "../Includes/Usb/Framework/usb_device.c"
 Parameters:    Size  Location     Type
		None
 Auto vars:     Size  Location     Type
		None
 Return value:  Size  Location     Type
		None               void
 Registers used:
		wreg, fsr1l, fsr1h, status,2, status,0, tblptrl, tblptrh, tblptru, prodl, prodh
 Tracked objects:
		On entry : 
		On exit  : 
		Unchanged: 
 Data sizes:     COMRAM   BANK0   BANK1   BANK2   BANK3   BANK4   BANK5   BANK6   BANK7
      Params:         0       0       0       0       0       0       0       0       0
      Locals:         0       0       0       0       0       0       0       0       0
      Temps:          2       0       0       0       0       0       0       0       0
      Totals:         2       0       0       0       0       0       0       0       0
Total ram usage:        2 bytes
 Hardware stack levels used:    1
 This function calls:
		Nothing
 This function is called by:
		_USBCheckStdRequest
 This function uses a non-reentrant model


 *************** function _USBStdFeatureReqHandler *****************
 Defined at:
		line 2385 in file "../Includes/Usb/Framework/usb_device.c"
 Parameters:    Size  Location     Type
		None
 Auto vars:     Size  Location     Type
  p               2   28[COMRAM] PTR struct __BDT
		 -> BDT(48), NULL(0), 
  pUEP            2   25[COMRAM] PTR unsigned char 
		 -> UEP0(1), 
  current_ep_d    1   27[COMRAM] struct .
 Return value:  Size  Location     Type
		None               void
 Registers used:
		wreg, fsr2l, fsr2h, status,2, status,0, prodl, prodh, cstack
 Tracked objects:
		On entry : 
		On exit  : 
		Unchanged: 
 Data sizes:     COMRAM   BANK0   BANK1   BANK2   BANK3   BANK4   BANK5   BANK6   BANK7
      Params:         0       0       0       0       0       0       0       0       0
      Locals:         5       0       0       0       0       0       0       0       0
      Temps:          2       0       0       0       0       0       0       0       0
      Totals:         7       0       0       0       0       0       0       0       0
Total ram usage:        7 bytes
 Hardware stack levels used:    1
 Hardware stack levels required when called:    5
 This function calls:
		_USER_USB_CALLBACK_EVENT_HANDLER
 This function is called by:
		_USBCheckStdRequest
 This function uses a non-reentrant model


 *************** function _USER_USB_CALLBACK_EVENT_HANDLER *****************
 Defined at:
		line 271 in file "../Includes/Board/USBapp.c"
 Parameters:    Size  Location     Type
  event           2   15[COMRAM] enum E7256
  pdata           2   17[COMRAM] PTR void 
		 -> USTATcopy(1), USBActiveConfiguration(1), BDT(48), NULL(0), 
  size            2   19[COMRAM] unsigned int 
 Auto vars:     Size  Location     Type
		None
 Return value:  Size  Location     Type
                  1    wreg      unsigned char 
 Registers used:
		wreg, fsr2l, fsr2h, status,2, status,0, prodl, prodh, cstack
 Tracked objects:
		On entry : 
		On exit  : 
		Unchanged: 
 Data sizes:     COMRAM   BANK0   BANK1   BANK2   BANK3   BANK4   BANK5   BANK6   BANK7
      Params:         6       0       0       0       0       0       0       0       0
      Locals:         0       0       0       0       0       0       0       0       0
      Temps:          2       0       0       0       0       0       0       0       0
      Totals:         8       0       0       0       0       0       0       0       0
Total ram usage:        8 bytes
 Hardware stack levels used:    1
 Hardware stack levels required when called:    4
 This function calls:
		_USBCheckCDCRequest
		_USBapp_CdcEmulatorInitialize
 This function is called by:
		_USBDeviceTasks
		_USBStdSetCfgHandler
		_USBSuspend
		_USBWakeFromSuspend
		_USBCtrlTrfSetupHandler
		_USBCheckStdRequest
		_USBStdFeatureReqHandler
 This function uses a non-reentrant model


 *************** function _USBapp_CdcEmulatorInitialize *****************
 Defined at:
		line 107 in file "../Includes/Board/USBapp.c"
 Parameters:    Size  Location     Type
		None
 Auto vars:     Size  Location     Type
  i               1   14[COMRAM] unsigned char 
 Return value:  Size  Location     Type
		None               void
 Registers used:
		wreg, fsr2l, fsr2h, status,2, status,0, prodl, prodh, cstack
 Tracked objects:
		On entry : 
		On exit  : 
		Unchanged: 
 Data sizes:     COMRAM   BANK0   BANK1   BANK2   BANK3   BANK4   BANK5   BANK6   BANK7
      Params:         0       0       0       0       0       0       0       0       0
      Locals:         1       0       0       0       0       0       0       0       0
      Temps:          0       0       0       0       0       0       0       0       0
      Totals:         1       0       0       0       0       0       0       0       0
Total ram usage:        1 bytes
 Hardware stack levels used:    1
 Hardware stack levels required when called:    3
 This function calls:
		_CDCInitEP
		i2_EUSART_Initialize
 This function is called by:
		_USER_USB_CALLBACK_EVENT_HANDLER
 This function uses a non-reentrant model


 *************** function _CDCInitEP *****************
 Defined at:
		line 296 in file "../Includes/Usb/Framework/usb_device_cdc.c"
 Parameters:    Size  Location     Type
		None
 Auto vars:     Size  Location     Type
		None
 Return value:  Size  Location     Type
		None               void
 Registers used:
		wreg, fsr2l, fsr2h, status,2, status,0, prodl, prodh, cstack
 Tracked objects:
		On entry : 
		On exit  : 
		Unchanged: 
 Data sizes:     COMRAM   BANK0   BANK1   BANK2   BANK3   BANK4   BANK5   BANK6   BANK7
      Params:         0       0       0       0       0       0       0       0       0
      Locals:         0       0       0       0       0       0       0       0       0
      Temps:          0       0       0       0       0       0       0       0       0
      Totals:         0       0       0       0       0       0       0       0       0
Total ram usage:        0 bytes
 Hardware stack levels used:    1
 Hardware stack levels required when called:    2
 This function calls:
		_USBEnableEndpoint
		i2_USBTransferOnePacket
 This function is called by:
		_USBapp_CdcEmulatorInitialize
 This function uses a non-reentrant model


 *************** function i2_USBTransferOnePacket *****************
 Defined at:
		line 757 in file "../Includes/Usb/Framework/usb_device.c"
 Parameters:    Size  Location     Type
  ep              1    wreg     unsigned char 
  dir             1    0[COMRAM] unsigned char 
  data            2    1[COMRAM] PTR unsigned char 
		 -> cdc_data_tx(64), cdc_data_rx(64), NULL(0), 
  len             1    3[COMRAM] unsigned char 
 Auto vars:     Size  Location     Type
  ep              1    4[COMRAM] unsigned char 
  USBTransferO    2    5[COMRAM] PTR volatile struct __BD
		 -> BDT(48), NULL(0), 
 Return value:  Size  Location     Type
                  2    0[COMRAM] PTR void 
 Registers used:
		wreg, fsr2l, fsr2h, status,2, status,0, prodl, prodh
 Tracked objects:
		On entry : 
		On exit  : 
		Unchanged: 
 Data sizes:     COMRAM   BANK0   BANK1   BANK2   BANK3   BANK4   BANK5   BANK6   BANK7
      Params:         4       0       0       0       0       0       0       0       0
      Locals:         3       0       0       0       0       0       0       0       0
      Temps:          0       0       0       0       0       0       0       0       0
      Totals:         7       0       0       0       0       0       0       0       0
Total ram usage:        7 bytes
 Hardware stack levels used:    1
 This function calls:
		Nothing
 This function is called by:
		_CDCInitEP
 This function uses a non-reentrant model


 *************** function _USBEnableEndpoint *****************
 Defined at:
		line 645 in file "../Includes/Usb/Framework/usb_device.c"
 Parameters:    Size  Location     Type
  ep              1    wreg     unsigned char 
  options         1    8[COMRAM] unsigned char 
 Auto vars:     Size  Location     Type
  ep              1   13[COMRAM] unsigned char 
  p               2   11[COMRAM] PTR unsigned char 
		 -> UEP0(1), 
 Return value:  Size  Location     Type
		None               void
 Registers used:
		wreg, fsr2l, fsr2h, status,2, status,0, prodl, prodh, cstack
 Tracked objects:
		On entry : 
		On exit  : 
		Unchanged: 
 Data sizes:     COMRAM   BANK0   BANK1   BANK2   BANK3   BANK4   BANK5   BANK6   BANK7
      Params:         1       0       0       0       0       0       0       0       0
      Locals:         3       0       0       0       0       0       0       0       0
      Temps:          2       0       0       0       0       0       0       0       0
      Totals:         6       0       0       0       0       0       0       0       0
Total ram usage:        6 bytes
 Hardware stack levels used:    1
 Hardware stack levels required when called:    1
 This function calls:
		_USBConfigureEndpoint
 This function is called by:
		_CDCInitEP
 This function uses a non-reentrant model


 *************** function _USBConfigureEndpoint *****************
 Defined at:
		line 1228 in file "../Includes/Usb/Framework/usb_device.c"
 Parameters:    Size  Location     Type
  EPNum           1    wreg     unsigned char 
  direction       1    0[COMRAM] unsigned char 
 Auto vars:     Size  Location     Type
  EPNum           1    5[COMRAM] unsigned char 
  handle          2    6[COMRAM] PTR volatile struct __BD
		 -> BDT(48), 
 Return value:  Size  Location     Type
		None               void
 Registers used:
		wreg, fsr2l, fsr2h, status,2, status,0, prodl, prodh
 Tracked objects:
		On entry : 
		On exit  : 
		Unchanged: 
 Data sizes:     COMRAM   BANK0   BANK1   BANK2   BANK3   BANK4   BANK5   BANK6   BANK7
      Params:         1       0       0       0       0       0       0       0       0
      Locals:         3       0       0       0       0       0       0       0       0
      Temps:          4       0       0       0       0       0       0       0       0
      Totals:         8       0       0       0       0       0       0       0       0
Total ram usage:        8 bytes
 Hardware stack levels used:    1
 This function calls:
		Nothing
 This function is called by:
		_USBEnableEndpoint
 This function uses a non-reentrant model


 *************** function _USBCheckCDCRequest *****************
 Defined at:
		line 184 in file "../Includes/Usb/Framework/usb_device_cdc.c"
 Parameters:    Size  Location     Type
		None
 Auto vars:     Size  Location     Type
		None
 Return value:  Size  Location     Type
		None               void
 Registers used:
		wreg, status,2, status,0
 Tracked objects:
		On entry : 
		On exit  : 
		Unchanged: 
 Data sizes:     COMRAM   BANK0   BANK1   BANK2   BANK3   BANK4   BANK5   BANK6   BANK7
      Params:         0       0       0       0       0       0       0       0       0
      Locals:         0       0       0       0       0       0       0       0       0
      Temps:          1       0       0       0       0       0       0       0       0
      Totals:         1       0       0       0       0       0       0       0       0
Total ram usage:        1 bytes
 Hardware stack levels used:    1
 This function calls:
		Nothing
 This function is called by:
		_USER_USB_CALLBACK_EVENT_HANDLER
 This function uses a non-reentrant model


 *************** function _USBCtrlTrfOutHandler *****************
 Defined at:
		line 2169 in file "../Includes/Usb/Framework/usb_device.c"
 Parameters:    Size  Location     Type
		None
 Auto vars:     Size  Location     Type
		None
 Return value:  Size  Location     Type
		None               void
 Registers used:
		wreg, fsr1l, fsr1h, fsr2l, fsr2h, status,2, status,0, pclat, tosl, cstack
 Tracked objects:
		On entry : 
		On exit  : 
		Unchanged: 
 Data sizes:     COMRAM   BANK0   BANK1   BANK2   BANK3   BANK4   BANK5   BANK6   BANK7
      Params:         0       0       0       0       0       0       0       0       0
      Locals:         0       0       0       0       0       0       0       0       0
      Temps:          0       0       0       0       0       0       0       0       0
      Totals:         0       0       0       0       0       0       0       0       0
Total ram usage:        0 bytes
 Hardware stack levels used:    1
 Hardware stack levels required when called:    3
 This function calls:
		_USBCtrlTrfRxService
 This function is called by:
		_USBCtrlEPService
 This function uses a non-reentrant model


 *************** function _USBCtrlTrfRxService *****************
 Defined at:
		line 1518 in file "../Includes/Usb/Framework/usb_device.c"
 Parameters:    Size  Location     Type
		None
 Auto vars:     Size  Location     Type
  byteToRead      1   22[COMRAM] unsigned char 
  i               1   21[COMRAM] unsigned char 
 Return value:  Size  Location     Type
		None               void
 Registers used:
		wreg, fsr1l, fsr1h, fsr2l, fsr2h, status,2, status,0, pclat, tosl, cstack
 Tracked objects:
		On entry : 
		On exit  : 
		Unchanged: 
 Data sizes:     COMRAM   BANK0   BANK1   BANK2   BANK3   BANK4   BANK5   BANK6   BANK7
      Params:         0       0       0       0       0       0       0       0       0
      Locals:         2       0       0       0       0       0       0       0       0
      Temps:          0       0       0       0       0       0       0       0       0
      Totals:         2       0       0       0       0       0       0       0       0
Total ram usage:        2 bytes
 Hardware stack levels used:    1
 Hardware stack levels required when called:    2
 This function calls:
		_USART_mySetLineCodingHandler
		_USBCtrlEPAllowStatusStage
 This function is called by:
		_USBCtrlTrfOutHandler
 This function uses a non-reentrant model


 *************** function _USBCtrlEPAllowStatusStage *****************
 Defined at:
		line 1104 in file "../Includes/Usb/Framework/usb_device.c"
 Parameters:    Size  Location     Type
		None
 Auto vars:     Size  Location     Type
		None
 Return value:  Size  Location     Type
		None               void
 Registers used:
		wreg, fsr2l, fsr2h, status,2, status,0
 Tracked objects:
		On entry : 
		On exit  : 
		Unchanged: 
 Data sizes:     COMRAM   BANK0   BANK1   BANK2   BANK3   BANK4   BANK5   BANK6   BANK7
      Params:         0       0       0       0       0       0       0       0       0
      Locals:         0       0       0       0       0       0       0       0       0
      Temps:          0       0       0       0       0       0       0       0       0
      Totals:         0       0       0       0       0       0       0       0       0
Total ram usage:        0 bytes
 Hardware stack levels used:    1
 This function calls:
		Nothing
 This function is called by:
		_USBDeviceTasks
		_USBCtrlEPServiceComplete
		_USBCtrlTrfRxService
 This function uses a non-reentrant model


 *************** function _USBCtrlTrfInHandler *****************
 Defined at:
		line 2223 in file "../Includes/Usb/Framework/usb_device.c"
 Parameters:    Size  Location     Type
		None
 Auto vars:     Size  Location     Type
  lastDTS         1   21[COMRAM] unsigned char 
 Return value:  Size  Location     Type
		None               void
 Registers used:
		wreg, fsr1l, fsr1h, fsr2l, fsr2h, status,2, status,0, pclat, tosl, tblptrl, tblptrh, tblptru, cstack
 Tracked objects:
		On entry : 
		On exit  : 
		Unchanged: 
 Data sizes:     COMRAM   BANK0   BANK1   BANK2   BANK3   BANK4   BANK5   BANK6   BANK7
      Params:         0       0       0       0       0       0       0       0       0
      Locals:         1       0       0       0       0       0       0       0       0
      Temps:          0       0       0       0       0       0       0       0       0
      Totals:         1       0       0       0       0       0       0       0       0
Total ram usage:        1 bytes
 Hardware stack levels used:    1
 Hardware stack levels required when called:    2
 This function calls:
		_USART_mySetLineCodingHandler
		_USBCtrlTrfTxService
 This function is called by:
		_USBCtrlEPService
 This function uses a non-reentrant model


 *************** function _USBCtrlTrfTxService *****************
 Defined at:
		line 1437 in file "../Includes/Usb/Framework/usb_device.c"
 Parameters:    Size  Location     Type
		None
 Auto vars:     Size  Location     Type
  byteToSend      1    0[COMRAM] unsigned char 
 Return value:  Size  Location     Type
		None               void
 Registers used:
		wreg, fsr1l, fsr1h, fsr2l, fsr2h, status,2, status,0, tblptrl, tblptrh, tblptru
 Tracked objects:
		On entry : 
		On exit  : 
		Unchanged: 
 Data sizes:     COMRAM   BANK0   BANK1   BANK2   BANK3   BANK4   BANK5   BANK6   BANK7
      Params:         0       0       0       0       0       0       0       0       0
      Locals:         1       0       0       0       0       0       0       0       0
      Temps:          0       0       0       0       0       0       0       0       0
      Totals:         1       0       0       0       0       0       0       0       0
Total ram usage:        1 bytes
 Hardware stack levels used:    1
 This function calls:
		Nothing
 This function is called by:
		_USBCtrlEPAllowDataStage
		_USBCtrlTrfInHandler
 This function uses a non-reentrant model


 *************** function _USART_mySetLineCodingHandler *****************
 Defined at:
		line 236 in file "../Includes/Board/USBapp.c"
 Parameters:    Size  Location     Type
		None
 Auto vars:     Size  Location     Type
  dwBaud          4   17[COMRAM] unsigned long 
 Return value:  Size  Location     Type
		None               void
 Registers used:
		wreg, status,2, status,0, cstack
 Tracked objects:
		On entry : 
		On exit  : 
		Unchanged: 
 Data sizes:     COMRAM   BANK0   BANK1   BANK2   BANK3   BANK4   BANK5   BANK6   BANK7
      Params:         0       0       0       0       0       0       0       0       0
      Locals:         4       0       0       0       0       0       0       0       0
      Temps:          4       0       0       0       0       0       0       0       0
      Totals:         8       0       0       0       0       0       0       0       0
Total ram usage:        8 bytes
 Hardware stack levels used:    1
 Hardware stack levels required when called:    1
 This function calls:
		___lldiv
		i2_EUSART_Initialize
 This function is called by:
		_USBCheckCDCRequest
		_USBCtrlTrfRxService
		_USBCtrlTrfInHandler
 This function uses a non-reentrant model


 *************** function i2_EUSART_Initialize *****************
 Defined at:
		line 77 in file "../Includes/MccGenerated/eusart.c"
 Parameters:    Size  Location     Type
		None
 Auto vars:     Size  Location     Type
		None
 Return value:  Size  Location     Type
		None               void
 Registers used:
		wreg, status,2
 Tracked objects:
		On entry : 
		On exit  : 
		Unchanged: 
 Data sizes:     COMRAM   BANK0   BANK1   BANK2   BANK3   BANK4   BANK5   BANK6   BANK7
      Params:         0       0       0       0       0       0       0       0       0
      Locals:         0       0       0       0       0       0       0       0       0
      Temps:          0       0       0       0       0       0       0       0       0
      Totals:         0       0       0       0       0       0       0       0       0
Total ram usage:        0 bytes
 Hardware stack levels used:    1
 This function calls:
		Nothing
 This function is called by:
		_USBapp_CdcEmulatorInitialize
		_USART_mySetLineCodingHandler
 This function uses a non-reentrant model


 *************** function ___lldiv *****************
 Defined at:
		line 8 in file "C:\Program Files (x86)\Microchip\xc8\v1.33\sources\common\lldiv.c"
 Parameters:    Size  Location     Type
  dividend        4    0[COMRAM] unsigned long 
  divisor         4    4[COMRAM] unsigned long 
 Auto vars:     Size  Location     Type
  quotient        4    8[COMRAM] unsigned long 
  counter         1   12[COMRAM] unsigned char 
 Return value:  Size  Location     Type
                  4    0[COMRAM] unsigned long 
 Registers used:
		wreg, status,2, status,0
 Tracked objects:
		On entry : 
		On exit  : 
		Unchanged: 
 Data sizes:     COMRAM   BANK0   BANK1   BANK2   BANK3   BANK4   BANK5   BANK6   BANK7
      Params:         8       0       0       0       0       0       0       0       0
      Locals:         5       0       0       0       0       0       0       0       0
      Temps:          0       0       0       0       0       0       0       0       0
      Totals:        13       0       0       0       0       0       0       0       0
Total ram usage:       13 bytes
 Hardware stack levels used:    1
 This function calls:
		Nothing
 This function is called by:
		_USART_mySetLineCodingHandler
 This function uses a non-reentrant model


 *************** function _TMRapp_Tick *****************
 Defined at:
		line 10 in file "../Includes/Drivers/TMRapp.c"
 Parameters:    Size  Location     Type
		None
 Auto vars:     Size  Location     Type
		None
 Return value:  Size  Location     Type
		None               void
 Registers used:
		None
 Tracked objects:
		On entry : 
		On exit  : 
		Unchanged: 
 Data sizes:     COMRAM   BANK0   BANK1   BANK2   BANK3   BANK4   BANK5   BANK6   BANK7
      Params:         0       0       0       0       0       0       0       0       0
      Locals:         0       0       0       0       0       0       0       0       0
      Temps:          0       0       0       0       0       0       0       0       0
      Totals:         0       0       0       0       0       0       0       0       0
Total ram usage:        0 bytes
 Hardware stack levels used:    1
 This function calls:
		Nothing
 This function is called by:
		_INTERRUPT_InterruptManager
 This function uses a non-reentrant model


 *************** function _TMR1_ISR *****************
 Defined at:
		line 152 in file "../Includes/MccGenerated/tmr1.c"
 Parameters:    Size  Location     Type
		None
 Auto vars:     Size  Location     Type
		None
 Return value:  Size  Location     Type
		None               void
 Registers used:
		wreg, status,2
 Tracked objects:
		On entry : 
		On exit  : 
		Unchanged: 
 Data sizes:     COMRAM   BANK0   BANK1   BANK2   BANK3   BANK4   BANK5   BANK6   BANK7
      Params:         0       0       0       0       0       0       0       0       0
      Locals:         0       0       0       0       0       0       0       0       0
      Temps:          3       0       0       0       0       0       0       0       0
      Totals:         3       0       0       0       0       0       0       0       0
Total ram usage:        3 bytes
 Hardware stack levels used:    1
 This function calls:
		Nothing
 This function is called by:
		_INTERRUPT_InterruptManager
 This function uses a non-reentrant model


 *************** function _EUSART_Transmit_ISR *****************
 Defined at:
		line 162 in file "../Includes/MccGenerated/eusart.c"
 Parameters:    Size  Location     Type
		None
 Auto vars:     Size  Location     Type
		None
 Return value:  Size  Location     Type
		None               void
 Registers used:
		wreg, fsr2l, fsr2h, status,2, status,0
 Tracked objects:
		On entry : 
		On exit  : 
		Unchanged: 
 Data sizes:     COMRAM   BANK0   BANK1   BANK2   BANK3   BANK4   BANK5   BANK6   BANK7
      Params:         0       0       0       0       0       0       0       0       0
      Locals:         0       0       0       0       0       0       0       0       0
      Temps:          0       0       0       0       0       0       0       0       0
      Totals:         0       0       0       0       0       0       0       0       0
Total ram usage:        0 bytes
 Hardware stack levels used:    1
 This function calls:
		Nothing
 This function is called by:
		_INTERRUPT_InterruptManager
 This function uses a non-reentrant model


 *************** function _EUSART_Receive_ISR *****************
 Defined at:
		line 181 in file "../Includes/MccGenerated/eusart.c"
 Parameters:    Size  Location     Type
		None
 Auto vars:     Size  Location     Type
		None
 Return value:  Size  Location     Type
		None               void
 Registers used:
		wreg, fsr2l, fsr2h, status,2, status,0
 Tracked objects:
		On entry : 
		On exit  : 
		Unchanged: 
 Data sizes:     COMRAM   BANK0   BANK1   BANK2   BANK3   BANK4   BANK5   BANK6   BANK7
      Params:         0       0       0       0       0       0       0       0       0
      Locals:         0       0       0       0       0       0       0       0       0
      Temps:          0       0       0       0       0       0       0       0       0
      Totals:         0       0       0       0       0       0       0       0       0
Total ram usage:        0 bytes
 Hardware stack levels used:    1
 This function calls:
		Nothing
 This function is called by:
		_INTERRUPT_InterruptManager
 This function uses a non-reentrant model


 *************** function _CMP1_ISR *****************
 Defined at:
		line 95 in file "../Includes/MccGenerated/cmp1.c"
 Parameters:    Size  Location     Type
		None
 Auto vars:     Size  Location     Type
		None
 Return value:  Size  Location     Type
		None               void
 Registers used:
		None
 Tracked objects:
		On entry : 
		On exit  : 
		Unchanged: 
 Data sizes:     COMRAM   BANK0   BANK1   BANK2   BANK3   BANK4   BANK5   BANK6   BANK7
      Params:         0       0       0       0       0       0       0       0       0
      Locals:         0       0       0       0       0       0       0       0       0
      Temps:          0       0       0       0       0       0       0       0       0
      Totals:         0       0       0       0       0       0       0       0       0
Total ram usage:        0 bytes
 Hardware stack levels used:    1
 This function calls:
		Nothing
 This function is called by:
		_INTERRUPT_InterruptManager
 This function uses a non-reentrant model



MODULE INFORMATION

Module		Function		Class		Link	Load	Size
../Includes/MccGenerated/cmp1.c
		_CMP1_ISR      		CODE           	33B6	0000	4
		_CMP1_Initializ		CODE           	345E	0000	18

../Includes/MccGenerated/cmp1.c estimated size: 22

../Includes/MccGenerated/pin_manager.c
		_PIN_MANAGER_In		CODE           	3AC8	0000	70

../Includes/MccGenerated/pin_manager.c estimated size: 70

C:\Program Files (x86)\Microchip\xc8\v1.33\sources\common\lwmod.c
		___lwmod       		CODE           	3A48	0000	62

C:\Program Files (x86)\Microchip\xc8\v1.33\sources\common\lwmod.c estimated size: 62

../Includes/Usb/Framework/usb_device.c
		_USBCtrlTrfInHa		CODE           	4E68	0000	206
		_USBTransferOne		CODE           	4788	0000	158
		_USBDeviceAttac		CODE           	36D8	0000	42
		_USBStdGetDscHa		CODE           	5824	0000	260
		_USBCtrlEPAllow		CODE           	4536	0000	142
		_USBStdFeatureR		CODE           	5CF6	0000	514
		_USBCtrlEPAllow		CODE           	4AC8	0000	182
		_USBCtrlTrfSetu		CODE           	3EE2	0000	98
		_USBCtrlTrfOutH		CODE           	3CD2	0000	82
		_USBCtrlEPServi		CODE           	5008	0000	212
		_USBSuspend    		CODE           	3596	0000	30
		_USBStdSetCfgHa		CODE           	4968	0000	174
		_USBStdGetStatu		CODE           	43A0	0000	132
		_USBWakeFromSus		CODE           	3614	0000	36
		_USBCtrlTrfRxSe		CODE           	5A32	0000	282
		_USBCtrlTrfTxSe		CODE           	4DA8	0000	192
		_USBEnableEndpo		CODE           	3A86	0000	66
		_USBConfigureEn		CODE           	44AA	0000	140
		_USBDeviceInit 		CODE           	51B4	0000	216
		_USBCtrlEPServi		CODE           	4CEE	0000	186
		_USBStallHandle		CODE           	3A0A	0000	62
		_USBDeviceTasks		CODE           	5722	0000	258
		_USBCheckStdReq		CODE           	4826	0000	160

../Includes/Usb/Framework/usb_device.c estimated size: 3830

../Includes/Drivers/buttons.c
		_service_pushbu		CODE           	3C36	0000	76

../Includes/Drivers/buttons.c estimated size: 76

../Includes/MccGenerated/interrupt_manager.c
		_INTERRUPT_Inte		CODE           	1008	0000	158

../Includes/MccGenerated/interrupt_manager.c estimated size: 158

../Includes/Board/USBapp.c
		_USBapp_DeviceC		CODE           	4B7E	0000	184
		_USBapp_handler		CODE           	33E2	0000	8
		_USART_mySetLin		CODE           	3F44	0000	102
		_USER_USB_CALLB		CODE           	3B9E	0000	76
		_USBapp_getrxBy		CODE           	33C6	0000	4
		_USBapp_setrxBy		CODE           	33D4	0000	6
		_USBapp_Handler		CODE           	4232	0000	118
		_USBapp_CdcEmul		CODE           	39CE	0000	60

../Includes/Board/USBapp.c estimated size: 558

../Includes/MccGenerated/memory.c
		_DATAEE_WriteBy		CODE           	3928	0000	54
		_DATAEE_ReadByt		CODE           	34B8	0000	20

../Includes/MccGenerated/memory.c estimated size: 74

../Includes/Drivers/SSD1306oLED.c
		_oled_displayOf		CODE           	3482	0000	18
		_oled_putUint16		CODE           	552E	0000	244
		_Set_Column_Add		CODE           	3528	0000	26
		_oled_putString		CODE           	4010	0000	104
		_oled_clear    		CODE           	3510	0000	24
		_oled_clearRow 		CODE           	355E	0000	28
		_oled_writeComm		CODE           	340C	0000	12
		_Set_Page_Addre		CODE           	3470	0000	18
		_oled_writeData		CODE           	3402	0000	10
		_oled_setDispla		CODE           	3494	0000	18
		_oled_init     		CODE           	35F4	0000	32
		_oled_devInit  		CODE           	528C	0000	216
		_oled_putChar  		CODE           	414C	0000	112
		_oled_setFont  		CODE           	34A6	0000	18
		_oled_putUint8 		CODE           	3D78	0000	88

../Includes/Drivers/SSD1306oLED.c estimated size: 968

../Includes/Board/MOTEapp.c
		_moteApp_add16b		CODE           	5928	0000	266
		_modemResync   		CODE           	3FAA	0000	102
		_moteRunningPro		CODE           	6438	0000	4616
		_MOTEapp_setRes		CODE           	1004	0000	2
		_hexToStr      		CODE           	365E	0000	38
		_MOTEapp_getMod		CODE           	3BEA	0000	76
		_moteApp_clearB		CODE           	3B0E	0000	70
		_sendDataComman		CODE           	4658	0000	148
		_modemSleep    		CODE           	357A	0000	28
		_moteJoiningPro		CODE           	5EF8	0000	1344
		_MOTEapp_SetDat		CODE           	33F2	0000	8
		_MOTEapp_TimerB		CODE           	3418	0000	12
		_moteApp_GoToSl		CODE           	4322	0000	126
		_EndLine       		CODE           	3424	0000	12
		_MOTEapp_handle		CODE           	33DA	0000	8
		_unhex         		CODE           	3756	0000	42
		_sendCommand   		CODE           	372C	0000	42
		_MOTEapp_SetADR		CODE           	33EA	0000	8
		_moteApp_toggle		CODE           	4078	0000	104
		_moteApp_delaym		CODE           	3702	0000	42
		_moteApp_add8bT		CODE           	3E84	0000	94
		_moteHandler   		CODE           	5B4C	0000	426
		_MOTEapp_WriteD		CODE           	5442	0000	236

../Includes/Board/MOTEapp.c estimated size: 7850

../Includes/MccGenerated/tmr1.c
		_TMR1_Initializ		CODE           	37AC	0000	44
		_TMR1_StartTime		CODE           	33BE	0000	4
		_TMR1_ISR      		CODE           	34F8	0000	24

../Includes/MccGenerated/tmr1.c estimated size: 72

C:\Program Files (x86)\Microchip\xc8\v1.33\sources\common\lwdiv.c
		___lwdiv       		CODE           	3B54	0000	74

C:\Program Files (x86)\Microchip\xc8\v1.33\sources\common\lwdiv.c estimated size: 74

../Includes/MccGenerated/adc.c
		_ADC_TempConver		CODE           	35D4	0000	32
		_ADC_Initialize		CODE           	34CC	0000	22
		_ADC_GetConvers		CODE           	395E	0000	56

../Includes/MccGenerated/adc.c estimated size: 110

C:\Program Files (x86)\Microchip\xc8\v1.33\sources\common\lbmod.c
		___lbmod       		CODE           	3638	0000	38

C:\Program Files (x86)\Microchip\xc8\v1.33\sources\common\lbmod.c estimated size: 38

C:\Program Files (x86)\Microchip\xc8\v1.33\sources\common\lldiv.c
		___lldiv       		CODE           	41BC	0000	118

C:\Program Files (x86)\Microchip\xc8\v1.33\sources\common\lldiv.c estimated size: 118

shared
		_configDescript		MEDIUMCONST    	7949	0000	67
		_USB_CD_Ptr    		MEDIUMCONST    	7647	0000	2
		_sd001         		MEDIUMCONST    	798C	0000	52
		_OledFont0     		MEDIUMCONST    	7649	0000	768
		__stringdata   		MEDIUMCONST    	7A0A	0000	1525
		_sd002         		MEDIUMCONST    	79C0	0000	52
		i2_EUSART_Initi		CODE           	37D8	0000	46
		i2_USBDeviceIni		CODE           	50DC	0000	216
		__initializatio		CODE           	3E2A	0000	80
		_device_dsc    		MEDIUMCONST    	79F4	0000	18
		_USB_SD_Ptr    		MEDIUMCONST    	7641	0000	6
		i2_memset      		CODE           	3780	0000	44
		_sd000         		MEDIUMCONST    	7A06	0000	4
		i2_USBTransferO		CODE           	48C6	0000	162

shared estimated size: 3042

../Includes/MccGenerated/eusart.c
		_EUSART_Read   		CODE           	3862	0000	46
		_EUSART_Write  		CODE           	38F2	0000	54
		_EUSART_Transmi		CODE           	36AE	0000	42
		_EUSART_Initial		CODE           	3806	0000	46
		_EUSART_Receive		CODE           	3684	0000	42
		_EUSART_FlushBu		CODE           	3890	0000	46

../Includes/MccGenerated/eusart.c estimated size: 276

C:\Program Files (x86)\Microchip\xc8\v1.33\sources\common\strcmp.c
		_strcmp        		CODE           	4424	0000	134

C:\Program Files (x86)\Microchip\xc8\v1.33\sources\common\strcmp.c estimated size: 134

../Includes/MccGenerated/spi.c
		_SPI_Exchange8b		CODE           	344E	0000	16
		_SPI_Initialize		CODE           	3430	0000	14

../Includes/MccGenerated/spi.c estimated size: 30

C:\Program Files (x86)\Microchip\xc8\v1.33\sources\common\memset.c
		_memset        		CODE           	3834	0000	46

C:\Program Files (x86)\Microchip\xc8\v1.33\sources\common\memset.c estimated size: 46

../Includes/Drivers/TMRapp.c
		_TMRapp_ClearBi		CODE           	33CA	0000	4
		_TMRapp_Tick   		CODE           	33BA	0000	4
		_TMRapp_Handler		CODE           	5364	0000	222

../Includes/Drivers/TMRapp.c estimated size: 230

C:\Program Files (x86)\Microchip\xc8\v1.33\sources\common\strncmp.c
		_strncmp       		CODE           	40E0	0000	108

C:\Program Files (x86)\Microchip\xc8\v1.33\sources\common\strncmp.c estimated size: 108

../Includes/MccGenerated/mcc.c
		_OSCILLATOR_Ini		CODE           	34E2	0000	22
		_SYSTEM_Initial		CODE           	35B4	0000	32

../Includes/MccGenerated/mcc.c estimated size: 54

main.c
		_main          		CODE           	4F36	0000	210

main.c estimated size: 210

../Includes/Usb/Framework/usb_device_cdc.c
		_CDCTxService  		CODE           	5622	0000	256
		_CDCInitEP     		CODE           	3C82	0000	80
		_putUSBUSART   		CODE           	3542	0000	28
		_getsUSBUSART  		CODE           	45C4	0000	148
		_USBCheckCDCReq		CODE           	46EC	0000	156

../Includes/Usb/Framework/usb_device_cdc.c estimated size: 668

../Includes/Board/poweruptest.c
		_test_comms    		CODE           	3DD0	0000	90
		_test_switch   		CODE           	4A16	0000	178
		_test_oled     		CODE           	42A8	0000	122
		_test_leds     		CODE           	3D24	0000	84
		_test_powerup  		CODE           	3996	0000	56
		_test_adc      		CODE           	4C36	0000	184

../Includes/Board/poweruptest.c estimated size: 714

C:\Program Files (x86)\Microchip\xc8\v1.33\sources\common\lbdiv.c
		___lbdiv       		CODE           	38BE	0000	52

C:\Program Files (x86)\Microchip\xc8\v1.33\sources\common\lbdiv.c estimated size: 52

../Includes/MccGenerated/tmr2.c
		_TMR2_Initializ		CODE           	343E	0000	16
		_TMR2_StartTime		CODE           	33C2	0000	4
		_TMR2_ReadTimer		CODE           	33FA	0000	8

../Includes/MccGenerated/tmr2.c estimated size: 28

