Microchip MPLAB XC8 Compiler V1.36 ()

Linker command line:

--edf=/opt/microchip/xc8/v1.36/dat/en_msgs.txt -cs \
  -h+dist/PIC18LF25K50_XC8/production/MPLAB.X.production.sym \
  --cmf=dist/PIC18LF25K50_XC8/production/MPLAB.X.production.cmf -z -w9 \
  --norlf -Q18LF25K50 -o/tmp/xcXaef5Ej \
  -Mdist/PIC18LF25K50_XC8/production/MPLAB.X.production.map -E1 -ver=XC8 \
  --acfsm=1493 -ACODE=00h-07h,0Ch-017h,020h-0FFFh \
  -ACONST=00h-07h,0Ch-017h,020h-0FFFh -ASMALLCONST=0800h-08FFhx8 \
  -AMEDIUMCONST=0800h-0FFFh -ACOMRAM=01h-05Fh -AABS1=00h-07FFh \
  -ABIGRAM=01h-07FFh -ARAM=060h-0FFh,0100h-01FFhx7 -ABANK0=060h-0FFh \
  -ABANK1=0100h-01FFh -ABANK2=0200h-02FFh -ABANK3=0300h-03FFh \
  -ABANK4=0400h-04FFh -ABANK5=0500h-05FFh -ABANK6=0600h-06FFh \
  -ABANK7=0700h-07FFh -ASFR=0F53h-0F5Fh,0F60h-0FFFh \
  -preset_vec=00h,intcode,intcodelo,powerup,init,end_init -pramtop=0800h \
  -psmallconst=SMALLCONST -pmediumconst=MEDIUMCONST -pconst=CONST \
  -AFARRAM=00h-00h -ACONFIG=0300000h-030000Dh -pconfig=CONFIG \
  -AIDLOC=0200000h-0200007h -pidloc=IDLOC -AEEDATA=0F00000h-0F000FFh \
  -peeprom_data=EEDATA \
  -prdata=COMRAM,nvrram=COMRAM,nvbit=COMRAM,rbss=COMRAM,rbit=COMRAM \
  -pfarbss=FARRAM,fardata=FARRAM,nvFARRAM=FARRAM \
  -pintsave_regs=BIGRAM,bigbss=BIGRAM,bigdata=BIGRAM -pbss=RAM \
  -pidata=CODE,irdata=CODE,ibigdata=CODE,ifardata=CODE /tmp/xcXc34879.obj \
  dist/PIC18LF25K50_XC8/production/MPLAB.X.production.obj \
  build/PIC18LF25K50_XC8/production/_ext/1360937237/VectorRemap.obj 

Object code version is 3.11

Machine type is 18LF25K50

Call graph: (short form)




                Name                               Link     Load   Length Selector   Space Scale
/tmp/xcXc34879.obj
                end_init                              0        0        4        0       0
dist/PIC18LF25K50_XC8/production/MPLAB.X.production.obj
                smallconst                          800      800       BE      400       0
                text42                                0        0       5A        0       0
                text41                                4        4        4        0       0
                text40                               5A       5A       16        0       0
                text39                               70       70       16        0       0
                text38                               86       86       4C        0       0
                text37                               D2       D2       38        0       0
                text36                              10A      10A       16        0       0
                text35                              120      120       12        0       0
                text34                               E8       E8       64       74       0
                text33                              132      132       24        0       0
                text32                              156      156       10        0       0
                text31                              FF0      FF0       10      45F       0
                text30                              166      166       26        0       0
                text29                              226      226       82      113       0
                text28                              1B2      1B2       74       D9       0
                text27                              18C      18C        C        0       0
                text26                              198      198       28        0       0
                text25                              D72      D72       F0      45F       0
                text24                              340      340       BA      1A0       0
                text23                              1C0      1C0       4E        0       0
                text22                              20E      20E        2        0       0
                text21                              210      210        2        0       0
                text20                              720      720       E0      390       0
                text19                              212      212        6        0       0
                text18                              578      578       CC      2BC       0
                text17                              2A8      2A8       98      154       0
                text16                              F4C      F4C       A4      45F       0
                text15                               8A       8A       5E       45       0
                text14                              3FA      3FA       BC      1FD       0
                text13                              4B6      4B6       C2      25B       0
                text12                              218      218       4A        0       0
                text11                                C        C        C        6       0
                text10                              262      262       1C        0       0
                text9                                20       20        E       10       0
                text8                               27E      27E       12        0       0
                text7                               644      644       DC      322       0
                text6                               14C      14C       66       A6       0
                text5                                2E       2E       5C       17       0
                text4                               E62      E62       EA      45F       0
                text3                               8BE      8BE      4B4      45F       0
                _BootMain_text                      290      290       1C        0       0
                text1                               2AC      2AC       38        0       0
                text0                               2E4      2E4       20        0       0
                cstackCOMRAM                         4A       4A        D        1       1
                bssBANK1                            100      100       40      100       1
                bssBANK0                             60       60       82       60       1
                bssCOMRAM                             1        1       49        1       1
                cinit                               304      304       2E        0       0
                _FlashSignatureWord_const           332      332        2        0       0
build/PIC18LF25K50_XC8/production/_ext/1360937237/VectorRemap.obj
                LoVector                              0        0       20        0       0
                HiVector                              0        0        C        0       0

TOTAL           Name                               Link     Load   Length     Space
        CLASS   CODE           
                end_init                              0        0        4         0
                text42                                0        0       5A         0
                text41                                4        4        4         0
                text40                               5A       5A       16         0
                text39                               70       70       16         0
                text38                               86       86       4C         0
                text37                               D2       D2       38         0
                text36                              10A      10A       16         0
                text35                              120      120       12         0
                text34                               E8       E8       64         0
                text33                              132      132       24         0
                text32                              156      156       10         0
                text31                              FF0      FF0       10         0
                text30                              166      166       26         0
                text29                              226      226       82         0
                text28                              1B2      1B2       74         0
                text27                              18C      18C        C         0
                text26                              198      198       28         0
                text25                              D72      D72       F0         0
                text24                              340      340       BA         0
                text23                              1C0      1C0       4E         0
                text22                              20E      20E        2         0
                text21                              210      210        2         0
                text20                              720      720       E0         0
                text19                              212      212        6         0
                text18                              578      578       CC         0
                text17                              2A8      2A8       98         0
                text16                              F4C      F4C       A4         0
                text15                               8A       8A       5E         0
                text14                              3FA      3FA       BC         0
                text13                              4B6      4B6       C2         0
                text12                              218      218       4A         0
                text11                                C        C        C         0
                text10                              262      262       1C         0
                text9                                20       20        E         0
                text8                               27E      27E       12         0
                text7                               644      644       DC         0
                text6                               14C      14C       66         0
                text5                                2E       2E       5C         0
                text4                               E62      E62       EA         0
                text3                               8BE      8BE      4B4         0
                _BootMain_text                      290      290       1C         0
                text1                               2AC      2AC       38         0
                text0                               2E4      2E4       20         0
                cinit                               304      304       2E         0
                _FlashSignatureWord_const           332      332        2         0
                LoVector                              0        0       20         0
                HiVector                              0        0        C         0

        CLASS   CONST          

        CLASS   SMALLCONST     
                smallconst                          800      800       BE         0

        CLASS   MEDIUMCONST    

        CLASS   COMRAM         
                cstackCOMRAM                         4A       4A        D         1
                bssCOMRAM                             1        1       49         1

        CLASS   ABS1           
                abs_s1                              400      400       AC         1

        CLASS   BIGRAM         

        CLASS   RAM            

        CLASS   BANK0          
                bssBANK0                             60       60       82         1

        CLASS   BANK1          
                bssBANK1                            100      100       40         1

        CLASS   BANK2          

        CLASS   BANK3          

        CLASS   BANK4          

        CLASS   BANK5          

        CLASS   BANK6          

        CLASS   BANK7          

        CLASS   SFR            

        CLASS   FARRAM         

        CLASS   CONFIG         

        CLASS   IDLOC          

        CLASS   EEDATA         

        CLASS   STACK          



SEGMENTS        Name                           Load    Length   Top    Selector   Space  Class

                reset_vec                      000000  000008  000008         0       0  CODE    
                bssCOMRAM                      000001  000056  000057         1       1  COMRAM  
                text11                         00000C  00000C  000018         6       0  CODE    
                text9                          000020  00000E  00002E        10       0  CODE    
                text5                          00002E  00005C  00008A        17       0  CODE    
                bssBANK0                       000060  000082  0000E2        60       1  BANK0   
                text15                         00008A  00005E  0000E8        45       0  CODE    
                text34                         0000E8  000064  00014C        74       0  CODE    
                bssBANK1                       000100  000040  000140       100       1  BANK1   
                text6                          00014C  000066  0001B2        A6       0  CODE    
                text28                         0001B2  000074  000226        D9       0  CODE    
                text29                         000226  000082  0002A8       113       0  CODE    
                text17                         0002A8  000098  000340       154       0  CODE    
                text24                         000340  0000BA  0003FA       1A0       0  CODE    
                text14                         0003FA  0000BC  0004B6       1FD       0  CODE    
                text13                         0004B6  0000C2  000578       25B       0  CODE    
                text18                         000578  0000CC  000644       2BC       0  CODE    
                text7                          000644  0000DC  000720       322       0  CODE    
                text20                         000720  0000E0  000800       390       0  CODE    
                smallconst                     000800  0000BE  0008BE       400       0  SMALLCON
                text3                          0008BE  000742  001000       45F       0  CODE    


UNUSED ADDRESS RANGES

        Name                Unused          Largest block    Delta
        BANK0            00E2-00FF             1E
        BANK1            0140-01FF             C0
        BANK2            0200-02FF            100
        BANK3            0300-03FF            100
        BANK4            04AC-04FF             54
        BANK5            0500-05FF            100
        BANK6            0600-06FF            100
        BANK7            0700-07FF            100
        BIGRAM           0057-005F              9
                         00E2-00FF             1E
                         0140-03FF            2C0
                         04AC-07FF            354
        COMRAM           0057-005F              9
        CONFIG           300000-30000D              E
        EEDATA           F00000-F000FF            100
        IDLOC            200000-200007              8
        RAM              00E2-00FF             1E
                         0140-03FF            100
                         04AC-07FF            100
        SFR              0F53-0FFF              D

                                  Symbol Table

_BlinkUSBStatus                      text42                    0000
__CFG_BOREN$SBORDIS                  (abs)                     0000
__CFG_BORV$190                       (abs)                     0000
__CFG_CCP2MX$RC1                     (abs)                     0000
__CFG_CFGPLLEN$OFF                   (abs)                     0000
__CFG_CP0$OFF                        (abs)                     0000
__CFG_CP1$OFF                        (abs)                     0000
__CFG_CP2$OFF                        (abs)                     0000
__CFG_CP3$OFF                        (abs)                     0000
__CFG_CPB$OFF                        (abs)                     0000
__CFG_CPD$OFF                        (abs)                     0000
__CFG_CPUDIV$NOCLKDIV                (abs)                     0000
__CFG_EBTR0$OFF                      (abs)                     0000
__CFG_EBTR1$OFF                      (abs)                     0000
__CFG_EBTR2$OFF                      (abs)                     0000
__CFG_EBTR3$OFF                      (abs)                     0000
__CFG_EBTRB$OFF                      (abs)                     0000
__CFG_FCMEN$OFF                      (abs)                     0000
__CFG_FOSC$INTOSCIO                  (abs)                     0000
__CFG_ICPRT$OFF                      (abs)                     0000
__CFG_IESO$OFF                       (abs)                     0000
__CFG_LS48MHZ$SYS48X8                (abs)                     0000
__CFG_LVP$OFF                        (abs)                     0000
__CFG_MCLRE$ON                       (abs)                     0000
__CFG_PBADEN$OFF                     (abs)                     0000
__CFG_PCLKEN$OFF                     (abs)                     0000
__CFG_PLLSEL$PLL3X                   (abs)                     0000
__CFG_SDOMX$RB3                      (abs)                     0000
__CFG_STVREN$ON                      (abs)                     0000
__CFG_T3CMX$RC0                      (abs)                     0000
__CFG_WDTEN$SWON                     (abs)                     0000
__CFG_WDTPS$32768                    (abs)                     0000
__CFG_WRT0$OFF                       (abs)                     0000
__CFG_WRT1$OFF                       (abs)                     0000
__CFG_WRT2$OFF                       (abs)                     0000
__CFG_WRT3$OFF                       (abs)                     0000
__CFG_WRTB$OFF                       (abs)                     0000
__CFG_WRTC$OFF                       (abs)                     0000
__CFG_WRTD$OFF                       (abs)                     0000
__CFG_XINST$OFF                      (abs)                     0000
__CFG_nLPBOR$ON                      (abs)                     0000
__CFG_nPWRTEN$OFF                    (abs)                     0000
__HHiVector                          HiVector                  0000
__HLoVector                          LoVector                  0000
__HRAM                               (abs)                     0000
__Habs1                              abs1                      0000
__Hbank0                             bank0                     0000
__Hbank1                             bank1                     0000
__Hbank2                             bank2                     0000
__Hbank3                             bank3                     0000
__Hbank4                             bank4                     0000
__Hbank5                             bank5                     0000
__Hbank6                             bank6                     0000
__Hbank7                             bank7                     0000
__Hbigbss                            bigbss                    0000
__Hbigdata                           bigdata                   0000
__Hbigram                            bigram                    0000
__Hbss                               bss                       0000
__Hclrtext                           clrtext                   0000
__Hcomram                            comram                    0000
__Hconfig                            config                    0000
__Hconst                             const                     0000
__Hdata                              data                      0000
__Heeprom_data                       eeprom_data               0000
__Hfarbss                            farbss                    0000
__Hfardata                           fardata                   0000
__Hibigdata                          ibigdata                  0000
__Hidata                             idata                     0000
__Hidloc                             idloc                     0000
__Hifardata                          ifardata                  0000
__Hinit                              init                      0000
__Hintcode                           intcode                   0000
__Hintcode_body                      intcode_body              0000
__Hintcodelo                         intcodelo                 0000
__Hintentry                          intentry                  0000
__Hintret                            intret                    0000
__Hintsave_regs                      intsave_regs              0000
__Hirdata                            irdata                    0000
__Hmediumconst                       mediumconst               0000
__HnvFARRAM                          nvFARRAM                  0000
__Hnvbit                             nvbit                     0000
__Hnvrram                            nvrram                    0000
__Hparam                             rparam                    0000
__Hpowerup                           powerup                   0000
__Hram                               ram                       0000
__Hrbit                              rbit                      0000
__Hrbss                              rbss                      0000
__Hrdata                             rdata                     0000
__Hreset_vec                         reset_vec                 0000
__Hrparam                            rparam                    0000
__Hsfr                               sfr                       0000
__Hspace_2                           (abs)                     0000
__Hstack                             stack                     0000
__Hstruct                            struct                    0000
__Htemp                              temp                      0000
__Htext                              text                      0000
__Htext42                            text42                    0000
__LHiVector                          HiVector                  0000
__LLoVector                          LoVector                  0000
__Labs1                              abs1                      0000
__Lbank0                             bank0                     0000
__Lbank1                             bank1                     0000
__Lbank2                             bank2                     0000
__Lbank3                             bank3                     0000
__Lbank4                             bank4                     0000
__Lbank5                             bank5                     0000
__Lbank6                             bank6                     0000
__Lbank7                             bank7                     0000
__Lbigbss                            bigbss                    0000
__Lbigdata                           bigdata                   0000
__Lbigram                            bigram                    0000
__Lbss                               bss                       0000
__Lclrtext                           clrtext                   0000
__Lcomram                            comram                    0000
__Lconfig                            config                    0000
__Lconst                             const                     0000
__Ldata                              data                      0000
__Leeprom_data                       eeprom_data               0000
__Lend_init                          end_init                  0000
__Lfarbss                            farbss                    0000
__Lfardata                           fardata                   0000
__Libigdata                          ibigdata                  0000
__Lidata                             idata                     0000
__Lidloc                             idloc                     0000
__Lifardata                          ifardata                  0000
__Linit                              init                      0000
__Lintcode                           intcode                   0000
__Lintcode_body                      intcode_body              0000
__Lintcodelo                         intcodelo                 0000
__Lintentry                          intentry                  0000
__Lintret                            intret                    0000
__Lintsave_regs                      intsave_regs              0000
__Lirdata                            irdata                    0000
__Lmediumconst                       mediumconst               0000
__LnvFARRAM                          nvFARRAM                  0000
__Lnvbit                             nvbit                     0000
__Lnvrram                            nvrram                    0000
__Lparam                             rparam                    0000
__Lpowerup                           powerup                   0000
__Lram                               ram                       0000
__Lrbit                              rbit                      0000
__Lrbss                              rbss                      0000
__Lrdata                             rdata                     0000
__Lreset_vec                         reset_vec                 0000
__Lrparam                            rparam                    0000
__Lsfr                               sfr                       0000
__Lspace_0                           (abs)                     0000
__Lspace_1                           (abs)                     0000
__Lspace_2                           (abs)                     0000
__Lstack                             stack                     0000
__Lstruct                            struct                    0000
__Ltemp                              temp                      0000
__Ltext                              text                      0000
__Ltext42                            text42                    0000
___inthi_sp                          stack                     0000
___intlo_sp                          stack                     0000
___sp                                stack                     0000
__mediumconst                        mediumconst               0000
__ptext42                            text42                    0000
__size_of_BlinkUSBStatus             (abs)                     0000
__size_of_BootMain                   (abs)                     0000
__size_of_ClearWatchdog              (abs)                     0000
__size_of_DelayRoutine               (abs)                     0000
__size_of_DoSignatureCheck           (abs)                     0000
__size_of_HIDGetReportHandler        (abs)                     0000
__size_of_HIDInitEP                  (abs)                     0000
__size_of_HIDRxReport                (abs)                     0000
__size_of_HIDSetReportHandler        (abs)                     0000
__size_of_HIDTxReport                (abs)                     0000
__size_of_InitializeSystem           (abs)                     0000
__size_of_LoadBDTandSetUOWN          (abs)                     0000
__size_of_ProcessIO                  (abs)                     0000
__size_of_ResetDeviceCleanly         (abs)                     0000
__size_of_SignFlash                  (abs)                     0000
__size_of_USBCBCheckOtherReq         (abs)                     0000
__size_of_USBCBInitEP                (abs)                     0000
__size_of_USBCBSuspend               (abs)                     0000
__size_of_USBCBWakeFromSuspend       (abs)                     0000
__size_of_USBCheckBusStatus          (abs)                     0000
__size_of_USBCheckHIDRequest         (abs)                     0000
__size_of_USBCheckStdRequest         (abs)                     0000
__size_of_USBCtrlEPServiceComplete   (abs)                     0000
__size_of_USBCtrlTrfInHandler        (abs)                     0000
__size_of_USBCtrlTrfSetupHandler     (abs)                     0000
__size_of_USBCtrlTrfTxService        (abs)                     0000
__size_of_USBDeviceInit              (abs)                     0000
__size_of_USBDeviceTasks             (abs)                     0000
__size_of_USBDisableWithLongDelay    (abs)                     0000
__size_of_USBProtocolResetHandler    (abs)                     0000
__size_of_USBSoftAttach              (abs)                     0000
__size_of_USBStdFeatureReqHandler    (abs)                     0000
__size_of_USBStdGetDscHandler        (abs)                     0000
__size_of_USBStdGetStatusHandler     (abs)                     0000
__size_of_USBStdSetCfgHandler        (abs)                     0000
__size_of_USBSuspend                 (abs)                     0000
__size_of_USBWakeFromSuspend         (abs)                     0000
__size_of_UnlockAndActivate          (abs)                     0000
__size_of_UserInit                   (abs)                     0000
__size_of_WriteConfigBits            (abs)                     0000
__size_of_WriteEEPROM                (abs)                     0000
__size_of_WriteFlashBlock            (abs)                     0000
__size_of_main                       (abs)                     0000
intlevel0                            text                      0000
intlevel1                            text                      0000
intlevel2                            text                      0000
intlevel3                            text                      0000
stackhi                              (abs)                     0000
stacklo                              (abs)                     0000
start                                init                      0000
_SetupPkt                            bssCOMRAM                 0001
__LRAM                               (abs)                     0001
___rparam_used                       (abs)                     0001
__pbssCOMRAM                         bssCOMRAM                 0001
__activetblptr                       (abs)                     0002
_ClearWatchdog                       text41                    0004
__Hend_init                          end_init                  0004
__ptext41                            text41                    0004
__end_of_ClearWatchdog               text41                    0008
_ProgrammedPointer                   bssCOMRAM                 0009
_USBCBSuspend                        text11                    000C
__ptext11                            text11                    000C
_TempBDT                             bssCOMRAM                 000D
___param_bank                        (abs)                     0010
ProcessIO@pROM                       bssCOMRAM                 0011
SignFlash@pROM                       bssCOMRAM                 0014
WriteFlashBlock@pROM                 bssCOMRAM                 0017
__end_of_USBCBSuspend                text11                    0018
_pDst                                bssCOMRAM                 001A
_pSrc                                bssCOMRAM                 001D
BlinkUSBStatus@led_count             bssCOMRAM                 0020
_USBCBWakeFromSuspend                text9                     0020
__ptext9                             text9                     0020
LoadBDTandSetUOWN@pBDTEntry          bssCOMRAM                 0022
USBDeviceTasks@pBDTEntry             bssCOMRAM                 0024
_Counter                             bssCOMRAM                 0026
_ErasePageTracker                    bssCOMRAM                 0028
_uint_delay_counter                  bssCOMRAM                 002A
_wCount                              bssCOMRAM                 002C
ProcessIO@i                          bssCOMRAM                 002E
_WriteEEPROM                         text5                     002E
__end_of_USBCBWakeFromSuspend        text9                     002E
__ptext5                             text5                     002E
SignFlash@i                          bssCOMRAM                 002F
USBCtrlTrfTxService@bytes_to_send    bssCOMRAM                 0030
_BootMain_absaddr                    (abs)                     0030
USBDeviceTasks@i                     bssCOMRAM                 0031
USBStdSetCfgHandler@i                bssCOMRAM                 0032
USBSuspend@UIESave                   bssCOMRAM                 0033
WriteConfigBits@i                    bssCOMRAM                 0034
WriteEEPROM@i                        bssCOMRAM                 0035
WriteFlashBlock@BytesTakenFromBuffer bssCOMRAM                 0036
WriteFlashBlock@CorrectionFactor     bssCOMRAM                 0037
WriteFlashBlock@i                    bssCOMRAM                 0038
_BootState                           bssCOMRAM                 0039
_BufferedDataIndex                   bssCOMRAM                 003A
_ConfigsLockValue                    bssCOMRAM                 003B
_DeviceIsSoftDetached                bssCOMRAM                 003C
_EP0OutOddNeedsArmingNext            bssCOMRAM                 003D
_USTATSave                           bssCOMRAM                 003E
_bTRNIFCount                         bssCOMRAM                 003F
_ctrl_trf_session_owner              bssCOMRAM                 0040
_ctrl_trf_state                      bssCOMRAM                 0041
_hid_rpt_rx_len                      bssCOMRAM                 0042
_short_pkt_status                    bssCOMRAM                 0043
_usb_device_state                    bssCOMRAM                 0044
_usb_stat                            bssCOMRAM                 0045
_active_protocol                     bssCOMRAM                 0046
_idle_rate                           bssCOMRAM                 0047
_usb_active_cfg                      bssCOMRAM                 0048
_usb_alt_intf                        bssCOMRAM                 0049
DelayRoutine@DelayAmount             cstackCOMRAM              004A
HIDRxReport@buffer                   cstackCOMRAM              004A
HIDTxReport@buffer                   cstackCOMRAM              004A
LoadBDTandSetUOWN@BDTIndexToLoad     cstackCOMRAM              004A
USBCBInitEP@ConfigurationIndex       cstackCOMRAM              004A
UnlockAndActivate@UnlockKey          cstackCOMRAM              004A
__pcstackCOMRAM                      cstackCOMRAM              004A
HIDRxReport@len                      cstackCOMRAM              004C
HIDTxReport@len                      cstackCOMRAM              004C
HIDTxReport@i                        cstackCOMRAM              004E
_DelayRoutine                        text40                    005A
__Htext40                            text40                    005A
__Htext41                            text41                    005A
__Ltext40                            text40                    005A
__Ltext41                            text41                    005A
__end_of_BlinkUSBStatus              text42                    005A
__ptext40                            text40                    005A
_PacketFromPC                        bssBANK0                  0060
__accesstop                          (abs)                     0060
__pbssBANK0                          bssBANK0                  0060
_USBDisableWithLongDelay             text39                    0070
__Htext39                            text39                    0070
__Ltext39                            text39                    0070
__end_of_DelayRoutine                text40                    0070
__ptext39                            text39                    0070
_LoadBDTandSetUOWN                   text38                    0086
__Htext38                            text38                    0086
__Ltext38                            text38                    0086
__end_of_USBDisableWithLongDelay     text39                    0086
__ptext38                            text38                    0086
_USBStdSetCfgHandler                 text15                    008A
__end_of_WriteEEPROM                 text5                     008A
__ptext15                            text15                    008A
_PacketToPC                          bssBANK0                  00A1
_HIDInitEP                           text37                    00D2
__Htext37                            text37                    00D2
__Ltext37                            text37                    00D2
__end_of_LoadBDTandSetUOWN           text38                    00D2
__ptext37                            text37                    00D2
_USBProtocolResetHandler             text34                    00E8
__end_of_USBStdSetCfgHandler         text15                    00E8
__ptext34                            text34                    00E8
_ProgrammingBuffer                   bssBANK1                  0100
__pbssBANK1                          bssBANK1                  0100
_UserInit                            text36                    010A
__Htext36                            text36                    010A
__Ltext36                            text36                    010A
__end_of_HIDInitEP                   text37                    010A
__ptext36                            text36                    010A
_USBCBInitEP                         text35                    0120
__Htext35                            text35                    0120
__Ltext35                            text35                    0120
__end_of_UserInit                    text36                    0120
__ptext35                            text35                    0120
_USBSoftAttach                       text33                    0132
__Htext33                            text33                    0132
__Htext34                            text34                    0132
__Ltext33                            text33                    0132
__Ltext34                            text34                    0132
__end_of_USBCBInitEP                 text35                    0132
__ptext33                            text33                    0132
__Hspace_1                           (abs)                     0140
__S1                                 (abs)                     0140
_WriteConfigBits                     text6                     014C
__end_of_USBProtocolResetHandler     text34                    014C
__ptext6                             text6                     014C
_USBCheckBusStatus                   text32                    0156
__Htext32                            text32                    0156
__Ltext32                            text32                    0156
__end_of_USBSoftAttach               text33                    0156
__ptext32                            text32                    0156
_InitializeSystem                    text30                    0166
__Htext30                            text30                    0166
__Htext31                            text31                    0166
__Ltext30                            text30                    0166
__Ltext31                            text31                    0166
__end_of_USBCheckBusStatus           text32                    0166
__ptext30                            text30                    0166
_ResetDeviceCleanly                  text27                    018C
__Htext27                            text27                    018C
__Htext28                            text28                    018C
__Htext29                            text29                    018C
__Ltext27                            text27                    018C
__Ltext28                            text28                    018C
__Ltext29                            text29                    018C
__end_of_InitializeSystem            text30                    018C
__ptext27                            text27                    018C
_UnlockAndActivate                   text26                    0198
__Htext26                            text26                    0198
__Ltext26                            text26                    0198
__end_of_ResetDeviceCleanly          text27                    0198
__ptext26                            text26                    0198
_HIDTxReport                         text28                    01B2
__end_of_WriteConfigBits             text6                     01B2
__ptext28                            text28                    01B2
_USBCtrlTrfInHandler                 text23                    01C0
__Htext23                            text23                    01C0
__Htext24                            text24                    01C0
__Htext25                            text25                    01C0
__Ltext23                            text23                    01C0
__Ltext24                            text24                    01C0
__Ltext25                            text25                    01C0
__end_of_UnlockAndActivate           text26                    01C0
__ptext23                            text23                    01C0
_HIDGetReportHandler                 text22                    020E
__Htext22                            text22                    020E
__Ltext22                            text22                    020E
__end_of_USBCtrlTrfInHandler         text23                    020E
__ptext22                            text22                    020E
_HIDSetReportHandler                 text21                    0210
__Htext21                            text21                    0210
__Ltext21                            text21                    0210
__end_of_HIDGetReportHandler         text22                    0210
__ptext21                            text21                    0210
_USBCBCheckOtherReq                  text19                    0212
__Htext19                            text19                    0212
__Htext20                            text20                    0212
__Ltext19                            text19                    0212
__Ltext20                            text20                    0212
__end_of_HIDSetReportHandler         text21                    0212
__ptext19                            text19                    0212
_USBCtrlTrfSetupHandler              text12                    0218
__Htext12                            text12                    0218
__Htext13                            text13                    0218
__Htext14                            text14                    0218
__Htext15                            text15                    0218
__Htext16                            text16                    0218
__Htext17                            text17                    0218
__Htext18                            text18                    0218
__Ltext12                            text12                    0218
__Ltext13                            text13                    0218
__Ltext14                            text14                    0218
__Ltext15                            text15                    0218
__Ltext16                            text16                    0218
__Ltext17                            text17                    0218
__Ltext18                            text18                    0218
__end_of_USBCBCheckOtherReq          text19                    0218
__ptext12                            text12                    0218
_HIDRxReport                         text29                    0226
__end_of_HIDTxReport                 text28                    0226
__ptext29                            text29                    0226
_USBSuspend                          text10                    0262
__Htext10                            text10                    0262
__Htext11                            text11                    0262
__Ltext10                            text10                    0262
__Ltext11                            text11                    0262
__end_of_USBCtrlTrfSetupHandler      text12                    0262
__ptext10                            text10                    0262
_USBWakeFromSuspend                  text8                     027E
__Htext8                             text8                     027E
__Htext9                             text9                     027E
__Ltext8                             text8                     027E
__Ltext9                             text9                     027E
__end_of_USBSuspend                  text10                    027E
__ptext8                             text8                     027E
_BootMain                            _BootMain_text            0290
__Htext3                             text3                     0290
__Htext4                             text4                     0290
__Htext5                             text5                     0290
__Htext6                             text6                     0290
__Htext7                             text7                     0290
__L_BootMain_text                    _BootMain_text            0290
__Ltext3                             text3                     0290
__Ltext4                             text4                     0290
__Ltext5                             text5                     0290
__Ltext6                             text6                     0290
__Ltext7                             text7                     0290
__end_of_USBWakeFromSuspend          text8                     0290
__p_BootMain_text                    _BootMain_text            0290
_USBStdGetDscHandler                 text17                    02A8
__end_of_HIDRxReport                 text29                    02A8
__ptext17                            text17                    02A8
_DoSignatureCheck                    text1                     02AC
__H_BootMain_text                    _BootMain_text            02AC
__Htext1                             text1                     02AC
__Ltext1                             text1                     02AC
__end_of_BootMain                    _BootMain_text            02AC
__ptext1                             text1                     02AC
__Htext0                             text0                     02E4
__Ltext0                             text0                     02E4
__end_of_DoSignatureCheck            text1                     02E4
__ptext0                             text0                     02E4
_main                                text0                     02E4
__HbssBANK0                          bssBANK0                  0304
__HbssBANK1                          bssBANK1                  0304
__HbssCOMRAM                         bssCOMRAM                 0304
__Hcinit                             cinit                     0304
__HcstackCOMRAM                      cstackCOMRAM              0304
__LbssBANK0                          bssBANK0                  0304
__LbssBANK1                          bssBANK1                  0304
__LbssCOMRAM                         bssCOMRAM                 0304
__Lcinit                             cinit                     0304
__LcstackCOMRAM                      cstackCOMRAM              0304
__end_of_main                        text0                     0304
__initialization                     cinit                     0304
__pcinit                             cinit                     0304
start_initialization                 cinit                     0304
__end_of__initialization             cinit                     0328
end_of_initialization                cinit                     0328
_FlashSignatureWord                  _FlashSignatureWord_const 0332
__L_FlashSignatureWord_const         _FlashSignatureWord_const 0332
__p_FlashSignatureWord_const         _FlashSignatureWord_const 0332
__H_FlashSignatureWord_const         _FlashSignatureWord_const 0334
__end_of_FlashSignatureWord          _FlashSignatureWord_const 0334
_USBCtrlTrfTxService                 text24                    0340
__end_of_USBStdGetDscHandler         text17                    0340
__ptext24                            text24                    0340
_USBCheckStdRequest                  text14                    03FA
__end_of_USBCtrlTrfTxService         text24                    03FA
__ptext14                            text14                    03FA
_ep0BoEven                           (abs)                     0400
_ep0BoOdd                            (abs)                     0404
_ep0Bi                               (abs)                     0408
_ep1Bo                               (abs)                     040C
_ep1Bi                               (abs)                     0410
_EP0OutEvenBuf                       (abs)                     0414
_EP0OutOddBuf                        (abs)                     041C
_CtrlTrfData                         (abs)                     0424
_hid_report_out                      (abs)                     042C
_hid_report_in                       (abs)                     046C
_USBCtrlEPServiceComplete            text13                    04B6
__end_of_USBCheckStdRequest          text14                    04B6
__ptext13                            text13                    04B6
_USBStdFeatureReqHandler             text18                    0578
__end_of_USBCtrlEPServiceComplete    text13                    0578
__ptext18                            text18                    0578
_USBDeviceTasks                      text7                     0644
__end_of_USBStdFeatureReqHandler     text18                    0644
__ptext7                             text7                     0644
_USBCheckHIDRequest                  text20                    0720
__end_of_USBDeviceTasks              text7                     0720
__ptext20                            text20                    0720
__Hramtop                            ramtop                    0800
__Lramtop                            ramtop                    0800
__Lsmallconst                        smallconst                0800
__end_of_USBCheckHIDRequest          text20                    0800
__psmallconst                        smallconst                0800
__ramtop                             ramtop                    0800
__smallconst                         smallconst                0800
_USB_SD_Ptr                          smallconst                0801
__end_of_USB_SD_Ptr                  smallconst                0807
_sd001                               smallconst                0807
_CFG01                               smallconst                083B
__end_of_sd001                       smallconst                083B
__end_of_CFG01                       smallconst                0864
_sd002                               smallconst                0864
__end_of_sd002                       smallconst                088A
_hid_rpt01                           smallconst                088A
__end_of_hid_rpt01                   smallconst                08A7
_device_dsc                          smallconst                08A7
__end_of_device_dsc                  smallconst                08B9
_sd000                               smallconst                08B9
__end_of_sd000                       smallconst                08BD
_ProcessIO                           text3                     08BE
__Hsmallconst                        smallconst                08BE
__ptext3                             text3                     08BE
_SignFlash                           text25                    0D72
__end_of_ProcessIO                   text3                     0D72
__ptext25                            text25                    0D72
_WriteFlashBlock                     text4                     0E62
__end_of_SignFlash                   text25                    0E62
__ptext4                             text4                     0E62
_USBStdGetStatusHandler              text16                    0F4C
__end_of_WriteFlashBlock             text4                     0F4C
__ptext16                            text16                    0F4C
_UCON                                (abs)                     0F60
_UCONbits                            (abs)                     0F60
_USTAT                               (abs)                     0F61
_USTATbits                           (abs)                     0F61
_UCFG                                (abs)                     0F62
_UADDR                               (abs)                     0F63
_UIE                                 (abs)                     0F64
_UIEbits                             (abs)                     0F64
_UIR                                 (abs)                     0F65
_UIRbits                             (abs)                     0F65
_UEIE                                (abs)                     0F66
_UEP0                                (abs)                     0F6A
_UEP1                                (abs)                     0F6B
_UEP2                                (abs)                     0F6C
_UEP3                                (abs)                     0F6D
_UEP4                                (abs)                     0F6E
_UEP5                                (abs)                     0F6F
_UEP6                                (abs)                     0F70
_UEP7                                (abs)                     0F71
_PORTCbits                           (abs)                     0F82
_LATAbits                            (abs)                     0F89
_TRISAbits                           (abs)                     0F92
_TRISCbits                           (abs)                     0F94
_OSCTUNE                             (abs)                     0F9B
_PIE3bits                            (abs)                     0FA3
_PIR3bits                            (abs)                     0FA4
_EECON1                              (abs)                     0FA6
_EECON1bits                          (abs)                     0FA6
_EECON2                              (abs)                     0FA7
_EEDATA                              (abs)                     0FA8
_EEADR                               (abs)                     0FA9
_ACTCON                              (abs)                     0FB5
_RCONbits                            (abs)                     0FD0
_OSCCON2                             (abs)                     0FD2
_OSCCON2bits                         (abs)                     0FD2
_OSCCON                              (abs)                     0FD3
_USBDeviceInit                       text31                    0FF0
__end_of_USBStdGetStatusHandler      text16                    0FF0
__ptext31                            text31                    0FF0
_INTCON                              (abs)                     0FF2
_INTCONbits                          (abs)                     0FF2
_TABLAT                              (abs)                     0FF5
_TBLPTRL                             (abs)                     0FF6
_TBLPTRH                             (abs)                     0FF7
_TBLPTRU                             (abs)                     0FF8
_STKPTR                              (abs)                     0FFC
__Hspace_0                           (abs)                     1000
__S0                                 (abs)                     1000
__end_of_USBDeviceInit               text31                    1000
_FlashSignatureWord_absconstaddr     (abs)                     1006
