

Microchip Technology PIC18 LITE Macro Assembler V1.36 build -262312587 
                                                                                               Sat Feb 27 20:29:02 2016

Microchip Technology Omniscient Code Generator v1.36 (Free mode) build 201601150325
     1                           	processor	18LF25K50
     2                           	fnconf	rparam,??,?,0
     3                           	opt	pw 120
     4                           	opt	lm
     5                           	psect	smallconst,global,reloc=2,class=SMALLCONST,delta=1
     6                           	psect	_FlashSignatureWord_const,global,ovrld,reloc=2,class=CODE,delta=1
     7                           	psect	cinit,global,reloc=2,class=CODE,delta=1
     8                           	psect	bssCOMRAM,global,class=COMRAM,space=1,delta=1
     9                           	psect	bssBANK0,global,class=BANK0,space=1,delta=1
    10                           	psect	bssBANK1,global,class=BANK1,space=1,delta=1
    11                           	psect	cstackCOMRAM,global,class=COMRAM,space=1,delta=1
    12                           	psect	text0,global,reloc=2,class=CODE,delta=1
    13                           	psect	text1,global,reloc=2,class=CODE,delta=1
    14                           	psect	_BootMain_text,global,ovrld,reloc=2,class=CODE,delta=1
    15                           	psect	text3,global,reloc=2,class=CODE,delta=1
    16                           	psect	text4,global,reloc=2,class=CODE,delta=1
    17                           	psect	text5,global,reloc=2,class=CODE,delta=1
    18                           	psect	text6,global,reloc=2,class=CODE,delta=1
    19                           	psect	text7,global,reloc=2,class=CODE,delta=1
    20                           	psect	text8,global,reloc=2,class=CODE,delta=1
    21                           	psect	text9,global,reloc=2,class=CODE,delta=1
    22                           	psect	text10,global,reloc=2,class=CODE,delta=1
    23                           	psect	text11,global,reloc=2,class=CODE,delta=1
    24                           	psect	text12,global,reloc=2,class=CODE,delta=1
    25                           	psect	text13,global,reloc=2,class=CODE,delta=1
    26                           	psect	text14,global,reloc=2,class=CODE,delta=1
    27                           	psect	text15,global,reloc=2,class=CODE,delta=1
    28                           	psect	text16,global,reloc=2,class=CODE,delta=1
    29                           	psect	text17,global,reloc=2,class=CODE,delta=1
    30                           	psect	text18,global,reloc=2,class=CODE,delta=1
    31                           	psect	text19,global,reloc=2,class=CODE,delta=1
    32                           	psect	text20,global,reloc=2,class=CODE,delta=1
    33                           	psect	text21,global,reloc=2,class=CODE,delta=1
    34                           	psect	text22,global,reloc=2,class=CODE,delta=1
    35                           	psect	text23,global,reloc=2,class=CODE,delta=1
    36                           	psect	text24,global,reloc=2,class=CODE,delta=1
    37                           	psect	text25,global,reloc=2,class=CODE,delta=1
    38                           	psect	text26,global,reloc=2,class=CODE,delta=1
    39                           	psect	text27,global,reloc=2,class=CODE,delta=1
    40                           	psect	text28,global,reloc=2,class=CODE,delta=1
    41                           	psect	text29,global,reloc=2,class=CODE,delta=1
    42                           	psect	text30,global,reloc=2,class=CODE,delta=1
    43                           	psect	text31,global,reloc=2,class=CODE,delta=1
    44                           	psect	text32,global,reloc=2,class=CODE,delta=1
    45                           	psect	text33,global,reloc=2,class=CODE,delta=1
    46                           	psect	text34,global,reloc=2,class=CODE,delta=1
    47                           	psect	text35,global,reloc=2,class=CODE,delta=1
    48                           	psect	text36,global,reloc=2,class=CODE,delta=1
    49                           	psect	text37,global,reloc=2,class=CODE,delta=1
    50                           	psect	text38,global,reloc=2,class=CODE,delta=1
    51                           	psect	text39,global,reloc=2,class=CODE,delta=1
    52                           	psect	text40,global,reloc=2,class=CODE,delta=1
    53                           	psect	text41,global,reloc=2,class=CODE,delta=1
    54                           	psect	text42,global,reloc=2,class=CODE,delta=1
    55                           	psect	intsave_regs,global,class=BIGRAM,space=1,delta=1
    56                           	psect	rparam,global,class=COMRAM,space=1,delta=1
    57                           	dabs	1,0x408,4,_ep0Bi
    58                           	dabs	1,0x410,4,_ep1Bi
    59                           	dabs	1,0x414,8,_EP0OutEvenBuf
    60                           	dabs	1,0x404,4,_ep0BoOdd
    61                           	dabs	1,0x40C,4,_ep1Bo
    62                           	dabs	1,0x400,4,_ep0BoEven
    63                           	dabs	1,0x46C,64,_hid_report_in
    64                           	dabs	1,0x42C,64,_hid_report_out
    65                           	dabs	1,0x424,8,_CtrlTrfData
    66                           	dabs	1,0x41C,8,_EP0OutOddBuf
    67  0000                     
    68                           	psect	smallconst
    69  0000'                    __psmallconst:
    70                           	opt stack 0
    71  0000' 00                 	db	0
    72  0001'                    _USB_SD_Ptr:
    73                           	opt stack 0
    74  0001' 00'                	db	low _sd000
    75  0002' 00'                	db	high _sd000
    76  0003' 00'                	db	low _sd001
    77  0004' 00'                	db	high _sd001
    78  0005' 00'                	db	low _sd002
    79  0006' 00'                	db	high _sd002
    80  0007'                    __end_of_USB_SD_Ptr:
    81                           	opt stack 0
    82  0000                     _FlashSignatureWord_absconstaddr	set	4102
    83  0007'                    _sd001:
    84                           	opt stack 0
    85  0007' 34                 	db	52
    86  0008' 03                 	db	3
    87  0009' 004D               	dw	77
    88  000B' 0069               	dw	105
    89  000D' 0063               	dw	99
    90  000F' 0072               	dw	114
    91  0011' 006F               	dw	111
    92  0013' 0063               	dw	99
    93  0015' 0068               	dw	104
    94  0017' 0069               	dw	105
    95  0019' 0070               	dw	112
    96  001B' 0020               	dw	32
    97  001D' 0054               	dw	84
    98  001F' 0065               	dw	101
    99  0021' 0063               	dw	99
   100  0023' 0068               	dw	104
   101  0025' 006E               	dw	110
   102  0027' 006F               	dw	111
   103  0029' 006C               	dw	108
   104  002B' 006F               	dw	111
   105  002D' 0067               	dw	103
   106  002F' 0079               	dw	121
   107  0031' 0020               	dw	32
   108  0033' 0049               	dw	73
   109  0035' 006E               	dw	110
   110  0037' 0063               	dw	99
   111  0039' 002E               	dw	46
   112  003B'                    __end_of_sd001:
   113                           	opt stack 0
   114  003B'                    _CFG01:
   115                           	opt stack 0
   116  003B' 09                 	db	9
   117  003C' 02                 	db	2
   118  003D' 29                 	db	41
   119  003E' 00                 	db	0
   120  003F' 01                 	db	1
   121  0040' 01                 	db	1
   122  0041' 00                 	db	0
   123  0042' 80                 	db	128
   124  0043' 32                 	db	50
   125  0044' 09                 	db	9
   126  0045' 04                 	db	4
   127  0046' 00                 	db	0
   128  0047' 00                 	db	0
   129  0048' 02                 	db	2
   130  0049' 03                 	db	3
   131  004A' 00                 	db	0
   132  004B' 00                 	db	0
   133  004C' 00                 	db	0
   134  004D' 09                 	db	9
   135  004E' 21                 	db	33
   136  004F' 11                 	db	17
   137  0050' 01                 	db	1
   138  0051' 00                 	db	0
   139  0052' 01                 	db	1
   140  0053' 22                 	db	34
   141  0054' 1D                 	db	29
   142  0055' 00                 	db	0
   143  0056' 07                 	db	7
   144  0057' 05                 	db	5
   145  0058' 81                 	db	129
   146  0059' 03                 	db	3
   147  005A' 40                 	db	64
   148  005B' 00                 	db	0
   149  005C' 01                 	db	1
   150  005D' 07                 	db	7
   151  005E' 05                 	db	5
   152  005F' 01                 	db	1
   153  0060' 03                 	db	3
   154  0061' 40                 	db	64
   155  0062' 00                 	db	0
   156  0063' 01                 	db	1
   157  0064'                    __end_of_CFG01:
   158                           	opt stack 0
   159  0064'                    _sd002:
   160                           	opt stack 0
   161  0064' 26                 	db	38
   162  0065' 03                 	db	3
   163  0066' 0048               	dw	72
   164  0068' 0049               	dw	73
   165  006A' 0044               	dw	68
   166  006C' 0020               	dw	32
   167  006E' 0055               	dw	85
   168  0070' 0053               	dw	83
   169  0072' 0042               	dw	66
   170  0074' 0020               	dw	32
   171  0076' 0042               	dw	66
   172  0078' 006F               	dw	111
   173  007A' 006F               	dw	111
   174  007C' 0074               	dw	116
   175  007E' 006C               	dw	108
   176  0080' 006F               	dw	111
   177  0082' 0061               	dw	97
   178  0084' 0064               	dw	100
   179  0086' 0065               	dw	101
   180  0088' 0072               	dw	114
   181  008A'                    __end_of_sd002:
   182                           	opt stack 0
   183  008A'                    _hid_rpt01:
   184                           	opt stack 0
   185  008A' 06                 	db	6
   186  008B' 00                 	db	0
   187  008C' FF                 	db	255
   188  008D' 09                 	db	9
   189  008E' 01                 	db	1
   190  008F' A1                 	db	161
   191  0090' 01                 	db	1
   192  0091' 19                 	db	25
   193  0092' 01                 	db	1
   194  0093' 29                 	db	41
   195  0094' 40                 	db	64
   196  0095' 15                 	db	21
   197  0096' 00                 	db	0
   198  0097' 26                 	db	38
   199  0098' FF                 	db	255
   200  0099' 00                 	db	0
   201  009A' 75                 	db	117
   202  009B' 08                 	db	8
   203  009C' 95                 	db	149
   204  009D' 40                 	db	64
   205  009E' 81                 	db	129
   206  009F' 00                 	db	0
   207  00A0' 19                 	db	25
   208  00A1' 01                 	db	1
   209  00A2' 29                 	db	41
   210  00A3' 40                 	db	64
   211  00A4' 91                 	db	145
   212  00A5' 00                 	db	0
   213  00A6' C0                 	db	192
   214  00A7'                    __end_of_hid_rpt01:
   215                           	opt stack 0
   216  00A7'                    _device_dsc:
   217                           	opt stack 0
   218  00A7' 12                 	db	18
   219  00A8' 01                 	db	1
   220  00A9' 0200               	dw	512
   221  00AB' 00                 	db	0
   222  00AC' 00                 	db	0
   223  00AD' 00                 	db	0
   224  00AE' 08                 	db	8
   225  00AF' 04D8               	dw	1240
   226  00B1' 003C               	dw	60
   227  00B3' 0101               	dw	257
   228  00B5' 01                 	db	1
   229  00B6' 02                 	db	2
   230  00B7' 00                 	db	0
   231  00B8' 01                 	db	1
   232  00B9'                    __end_of_device_dsc:
   233                           	opt stack 0
   234  00B9'                    _sd000:
   235                           	opt stack 0
   236  00B9' 04                 	db	4
   237  00BA' 03                 	db	3
   238  00BB' 0409               	dw	1033
   239  00BD'                    __end_of_sd000:
   240                           	opt stack 0
   241  0000                     _FlashSignatureWord_absconstaddr	set	4102
   242  00BD' 00                 	db	0	; dummy byte at the end
   243  0000                     
   244                           	psect	_FlashSignatureWord_const
   245  0000'                    __p_FlashSignatureWord_const:
   246                           	opt stack 0
   247  0000'                    _FlashSignatureWord:
   248                           	opt stack 0
   249  0000' 600D               	dw	24589
   250  0002'                    __end_of_FlashSignatureWord:
   251                           	opt stack 0
   252  0000                     _ACTCON	set	4021
   253  0000                     _EEADR	set	4009
   254  0000                     _EECON1	set	4006
   255  0000                     _EECON1bits	set	4006
   256  0000                     _EECON2	set	4007
   257  0000                     _EEDATA	set	4008
   258  0000                     _INTCON	set	4082
   259  0000                     _INTCONbits	set	4082
   260  0000                     _LATAbits	set	3977
   261  0000                     _OSCCON	set	4051
   262  0000                     _OSCCON2	set	4050
   263  0000                     _OSCCON2bits	set	4050
   264  0000                     _OSCTUNE	set	3995
   265  0000                     _PIE3bits	set	4003
   266  0000                     _PIR3bits	set	4004
   267  0000                     _PORTCbits	set	3970
   268  0000                     _RCONbits	set	4048
   269  0000                     _STKPTR	set	4092
   270  0000                     _TABLAT	set	4085
   271  0000                     _TBLPTRH	set	4087
   272  0000                     _TBLPTRL	set	4086
   273  0000                     _TBLPTRU	set	4088
   274  0000                     _TRISAbits	set	3986
   275  0000                     _TRISCbits	set	3988
   276  0000                     _UADDR	set	3939
   277  0000                     _UCFG	set	3938
   278  0000                     _UCON	set	3936
   279  0000                     _UCONbits	set	3936
   280  0000                     _UEIE	set	3942
   281  0000                     _UEP0	set	3946
   282  0000                     _UEP1	set	3947
   283  0000                     _UEP2	set	3948
   284  0000                     _UEP3	set	3949
   285  0000                     _UEP4	set	3950
   286  0000                     _UEP5	set	3951
   287  0000                     _UEP6	set	3952
   288  0000                     _UEP7	set	3953
   289  0000                     _UIE	set	3940
   290  0000                     _UIEbits	set	3940
   291  0000                     _UIR	set	3941
   292  0000                     _UIRbits	set	3941
   293  0000                     _USTAT	set	3937
   294  0000                     _USTATbits	set	3937
   295                           
   296                           ; #config settings
   297  0000                     
   298                           	psect	cinit
   299  0000'                    __pcinit:
   300                           	opt stack 0
   301  0000'                    start_initialization:
   302                           	opt stack 0
   303  0000'                    __initialization:
   304                           	opt stack 0
   305                           
   306                           ; Clear objects allocated to BANK1 (64 bytes)
   307  0000' EE00' F000'        	lfsr	0,__pbssBANK1
   308  0004' 0E40               	movlw	64
   309  0006'                    clear_0:
   310  0006' 6AEE               	clrf	postinc0,c
   311  0008' 06E8               	decf	wreg,f,c
   312  000A' E1FD               	bnz	clear_0
   313                           
   314                           ; Clear objects allocated to BANK0 (130 bytes)
   315  000C' EE00' F000'        	lfsr	0,__pbssBANK0
   316  0010' 0E82               	movlw	130
   317  0012'                    clear_1:
   318  0012' 6AEE               	clrf	postinc0,c
   319  0014' 06E8               	decf	wreg,f,c
   320  0016' E1FD               	bnz	clear_1
   321                           
   322                           ; Clear objects allocated to COMRAM (73 bytes)
   323  0018' EE00' F000'        	lfsr	0,__pbssCOMRAM
   324  001C' 0E49               	movlw	73
   325  001E'                    clear_2:
   326  001E' 6AEE               	clrf	postinc0,c
   327  0020' 06E8               	decf	wreg,f,c
   328  0022' E1FD               	bnz	clear_2
   329  0024'                    end_of_initialization:
   330                           	opt stack 0
   331  0024'                    __end_of__initialization:
   332                           	opt stack 0
   333  0024' 0E00'              	movlw	low (__Lmediumconst shr (0+16))
   334  0026' 6EF8               	movwf	tblptru,c
   335  0028' 0100               	movlb	0
   336  002A' EF00' F000'        	goto	_main	;jump to C main() function
   337                           tblptru	equ	0xFF8
   338                           postinc0	equ	0xFEE
   339                           wreg	equ	0xFE8
   340                           
   341                           	psect	bssCOMRAM
   342  0000'                    __pbssCOMRAM:
   343                           	opt stack 0
   344  0000'                    _SetupPkt:
   345                           	opt stack 0
   346  0000'                    	ds	8
   347  0008'                    _ProgrammedPointer:
   348                           	opt stack 0
   349  0008'                    	ds	4
   350  000C'                    _TempBDT:
   351                           	opt stack 0
   352  000C'                    	ds	4
   353  0010'                    ProcessIO@pROM:
   354                           	opt stack 0
   355  0010'                    	ds	3
   356  0013'                    SignFlash@pROM:
   357                           	opt stack 0
   358  0013'                    	ds	3
   359  0016'                    WriteFlashBlock@pROM:
   360                           	opt stack 0
   361  0016'                    	ds	3
   362  0019'                    _pDst:
   363                           	opt stack 0
   364  0019'                    	ds	3
   365  001C'                    _pSrc:
   366                           	opt stack 0
   367  001C'                    	ds	3
   368  001F'                    BlinkUSBStatus@led_count:
   369                           	opt stack 0
   370  001F'                    	ds	2
   371  0021'                    LoadBDTandSetUOWN@pBDTEntry:
   372                           	opt stack 0
   373  0021'                    	ds	2
   374  0023'                    USBDeviceTasks@pBDTEntry:
   375                           	opt stack 0
   376  0023'                    	ds	2
   377  0025'                    _Counter:
   378                           	opt stack 0
   379  0025'                    	ds	2
   380  0027'                    _ErasePageTracker:
   381                           	opt stack 0
   382  0027'                    	ds	2
   383  0029'                    _uint_delay_counter:
   384                           	opt stack 0
   385  0029'                    	ds	2
   386  002B'                    _wCount:
   387                           	opt stack 0
   388  002B'                    	ds	2
   389  002D'                    ProcessIO@i:
   390                           	opt stack 0
   391  002D'                    	ds	1
   392  002E'                    SignFlash@i:
   393                           	opt stack 0
   394  002E'                    	ds	1
   395  002F'                    USBCtrlTrfTxService@bytes_to_send:
   396                           	opt stack 0
   397  002F'                    	ds	1
   398  0030'                    USBDeviceTasks@i:
   399                           	opt stack 0
   400  0030'                    	ds	1
   401  0031'                    USBStdSetCfgHandler@i:
   402                           	opt stack 0
   403  0031'                    	ds	1
   404  0032'                    USBSuspend@UIESave:
   405                           	opt stack 0
   406  0032'                    	ds	1
   407  0033'                    WriteConfigBits@i:
   408                           	opt stack 0
   409  0033'                    	ds	1
   410  0034'                    WriteEEPROM@i:
   411                           	opt stack 0
   412  0034'                    	ds	1
   413  0035'                    WriteFlashBlock@BytesTakenFromBuffer:
   414                           	opt stack 0
   415  0035'                    	ds	1
   416  0036'                    WriteFlashBlock@CorrectionFactor:
   417                           	opt stack 0
   418  0036'                    	ds	1
   419  0037'                    WriteFlashBlock@i:
   420                           	opt stack 0
   421  0037'                    	ds	1
   422  0038'                    _BootState:
   423                           	opt stack 0
   424  0038'                    	ds	1
   425  0039'                    _BufferedDataIndex:
   426                           	opt stack 0
   427  0039'                    	ds	1
   428  003A'                    _ConfigsLockValue:
   429                           	opt stack 0
   430  003A'                    	ds	1
   431  003B'                    _DeviceIsSoftDetached:
   432                           	opt stack 0
   433  003B'                    	ds	1
   434  003C'                    _EP0OutOddNeedsArmingNext:
   435                           	opt stack 0
   436  003C'                    	ds	1
   437  003D'                    _USTATSave:
   438                           	opt stack 0
   439  003D'                    	ds	1
   440  003E'                    _bTRNIFCount:
   441                           	opt stack 0
   442  003E'                    	ds	1
   443  003F'                    _ctrl_trf_session_owner:
   444                           	opt stack 0
   445  003F'                    	ds	1
   446  0040'                    _ctrl_trf_state:
   447                           	opt stack 0
   448  0040'                    	ds	1
   449  0041'                    _hid_rpt_rx_len:
   450                           	opt stack 0
   451  0041'                    	ds	1
   452  0042'                    _short_pkt_status:
   453                           	opt stack 0
   454  0042'                    	ds	1
   455  0043'                    _usb_device_state:
   456                           	opt stack 0
   457  0043'                    	ds	1
   458  0044'                    _usb_stat:
   459                           	opt stack 0
   460  0044'                    	ds	1
   461  0045'                    _active_protocol:
   462                           	opt stack 0
   463  0045'                    	ds	1
   464  0046'                    _idle_rate:
   465                           	opt stack 0
   466  0046'                    	ds	1
   467  0047'                    _usb_active_cfg:
   468                           	opt stack 0
   469  0047'                    	ds	1
   470  0048'                    _usb_alt_intf:
   471                           	opt stack 0
   472  0048'                    	ds	1
   473                           tblptru	equ	0xFF8
   474                           postinc0	equ	0xFEE
   475                           wreg	equ	0xFE8
   476                           
   477                           	psect	bssBANK0
   478  0000'                    __pbssBANK0:
   479                           	opt stack 0
   480  0000'                    _PacketFromPC:
   481                           	opt stack 0
   482  0000'                    	ds	65
   483  0041'                    _PacketToPC:
   484                           	opt stack 0
   485  0041'                    	ds	65
   486                           tblptru	equ	0xFF8
   487                           postinc0	equ	0xFEE
   488                           wreg	equ	0xFE8
   489                           
   490                           	psect	bssBANK1
   491  0000'                    __pbssBANK1:
   492                           	opt stack 0
   493  0000'                    _ProgrammingBuffer:
   494                           	opt stack 0
   495  0000'                    	ds	64
   496                           tblptru	equ	0xFF8
   497                           postinc0	equ	0xFEE
   498                           wreg	equ	0xFE8
   499                           
   500                           	psect	cstackCOMRAM
   501  0000'                    __pcstackCOMRAM:
   502                           	opt stack 0
   503  0000'                    ??_BlinkUSBStatus:
   504  0000'                    ??_USBStdGetDscHandler:
   505  0000'                    ??_USBStdGetStatusHandler:
   506  0000'                    ??_USBStdFeatureReqHandler:
   507  0000'                    UnlockAndActivate@UnlockKey:
   508                           	opt stack 0
   509  0000'                    USBCBInitEP@ConfigurationIndex:
   510                           	opt stack 0
   511  0000'                    LoadBDTandSetUOWN@BDTIndexToLoad:
   512                           	opt stack 0
   513  0000'                    DelayRoutine@DelayAmount:
   514                           	opt stack 0
   515  0000'                    HIDTxReport@buffer:
   516                           	opt stack 0
   517  0000'                    HIDRxReport@buffer:
   518                           	opt stack 0
   519                           
   520                           ; 2 bytes @ 0x0
   521  0000'                    	ds	1
   522  0001'                    ??_WriteConfigBits:
   523  0001'                    ??_WriteEEPROM:
   524  0001'                    ??_WriteFlashBlock:
   525  0001'                    ??_SignFlash:
   526  0001'                    
   527                           ; 1 bytes @ 0x1
   528  0001'                    	ds	1
   529  0002'                    HIDTxReport@len:
   530                           	opt stack 0
   531  0002'                    HIDRxReport@len:
   532                           	opt stack 0
   533                           
   534                           ; 1 bytes @ 0x2
   535  0002'                    	ds	1
   536  0003'                    ??_HIDRxReport:
   537  0003'                    ??_HIDTxReport:
   538                           
   539                           ; 1 bytes @ 0x3
   540  0003'                    	ds	1
   541  0004'                    ??_USBDeviceTasks:
   542  0004'                    HIDTxReport@i:
   543                           	opt stack 0
   544                           
   545                           ; 1 bytes @ 0x4
   546  0004'                    	ds	5
   547  0009'                    ??_ProcessIO:
   548                           
   549                           ; 1 bytes @ 0x9
   550  0009'                    	ds	4
   551  000D'                    tblptru	equ	0xFF8
   552                           postinc0	equ	0xFEE
   553                           wreg	equ	0xFE8
   554                           
   555                           ; 1 bytes @ 0xD
   556 ;;
   557 ;;Main: autosize = 0, tempsize = 0, incstack = 0, save=0
   558 ;;
   559 ;; *************** function _main *****************
   560 ;; Defined at:
   561 ;;		line 325 in file "../src/main.c"
   562 ;; Parameters:    Size  Location     Type
   563 ;;		None
   564 ;; Auto vars:     Size  Location     Type
   565 ;;		None
   566 ;; Return value:  Size  Location     Type
   567 ;;                  1    wreg      void 
   568 ;; Registers used:
   569 ;;		wreg, fsr1l, fsr1h, fsr2l, fsr2h, status,2, status,0, tblptrl, tblptrh, tblptru, prodl, prodh, cstack
   570 ;; Tracked objects:
   571 ;;		On entry : 0/0
   572 ;;		On exit  : 0/0
   573 ;;		Unchanged: 0/0
   574 ;; Data sizes:     COMRAM   BANK0   BANK1   BANK2   BANK3  BANK4h   BANK5   BANK6   BANK7
   575 ;;      Params:         0       0       0       0       0       0       0       0       0
   576 ;;      Locals:         0       0       0       0       0       0       0       0       0
   577 ;;      Temps:          0       0       0       0       0       0       0       0       0
   578 ;;      Totals:         0       0       0       0       0       0       0       0       0
   579 ;;Total ram usage:        0 bytes
   580 ;; Hardware stack levels required when called:    8
   581 ;; This function calls:
   582 ;;		_BootMain
   583 ;;		_DoSignatureCheck
   584 ;; This function is called by:
   585 ;;		Startup code after reset
   586 ;; This function uses a non-reentrant model
   587 ;;
   588                           
   589                           	psect	text0
   590  0000'                    __ptext0:
   591                           	opt stack 0
   592  0000'                    _main:
   593                           	opt stack 23
   594                           
   595                           ;main.c: 327: TRISCbits.TRISC0 = 1;
   596                           
   597                           ;incstack = 0
   598  0000' 8094               	bsf	3988,0,c	;volatile
   599                           
   600                           ;main.c: 328: TRISCbits.TRISC1 = 1;
   601  0002' 8294               	bsf	3988,1,c	;volatile
   602                           
   603                           ;main.c: 332: if ( (PORTCbits.RC0 == 1) && (PORTCbits.RC1 == 1) )
   604  0004' B082               	btfsc	3970,0,c	;volatile
   605  0006' A282               	btfss	3970,1,c	;volatile
   606  0008' D004               	goto	l247
   607                           
   608                           ;main.c: 333: {
   609                           ;main.c: 335: __nop();
   610  000A' F000               	nop	
   611                           
   612                           ;main.c: 336: DoSignatureCheck();
   613  000C' EC00' F000'        	call	_DoSignatureCheck	;wreg free
   614                           
   615                           ;main.c: 337: }
   616  0010' D003               	goto	l248
   617  0012'                    l247:
   618                           
   619                           ;main.c: 338: else
   620                           ;main.c: 339: {
   621                           ;main.c: 341: __nop();
   622  0012' F000               	nop	
   623                           
   624                           ;main.c: 342: BootMain();
   625  0014' EC00' F000'        	call	_BootMain	;wreg free
   626  0018'                    l248:
   627                           
   628                           ;main.c: 343: }
   629                           ;main.c: 350: BootMain();
   630  0018' EC00' F000'        	call	_BootMain	;wreg free
   631  001C' EF00' F000'        	goto	start
   632  0020'                    __end_of_main:
   633                           	opt stack 0
   634                           tblptru	equ	0xFF8
   635                           postinc0	equ	0xFEE
   636                           wreg	equ	0xFE8
   637                           
   638 ;; *************** function _DoSignatureCheck *****************
   639 ;; Defined at:
   640 ;;		line 354 in file "../src/main.c"
   641 ;; Parameters:    Size  Location     Type
   642 ;;		None
   643 ;; Auto vars:     Size  Location     Type
   644 ;;		None
   645 ;; Return value:  Size  Location     Type
   646 ;;                  1    wreg      void 
   647 ;; Registers used:
   648 ;;		wreg, status,2, status,0, tblptrl, tblptrh, tblptru
   649 ;; Tracked objects:
   650 ;;		On entry : 0/0
   651 ;;		On exit  : 0/0
   652 ;;		Unchanged: 0/0
   653 ;; Data sizes:     COMRAM   BANK0   BANK1   BANK2   BANK3  BANK4h   BANK5   BANK6   BANK7
   654 ;;      Params:         0       0       0       0       0       0       0       0       0
   655 ;;      Locals:         0       0       0       0       0       0       0       0       0
   656 ;;      Temps:          0       0       0       0       0       0       0       0       0
   657 ;;      Totals:         0       0       0       0       0       0       0       0       0
   658 ;;Total ram usage:        0 bytes
   659 ;; Hardware stack levels used:    1
   660 ;; This function calls:
   661 ;;		Nothing
   662 ;; This function is called by:
   663 ;;		_main
   664 ;; This function uses a non-reentrant model
   665 ;;
   666                           
   667                           	psect	text1
   668  0000'                    __ptext1:
   669                           	opt stack 0
   670  0000'                    _DoSignatureCheck:
   671                           	opt stack 30
   672                           
   673                           ;main.c: 357: if(*(const unsigned int*)0x1006 == 0x600D)
   674                           
   675                           ;incstack = 0
   676  0000' 0E06               	movlw	6
   677  0002' 6EF6               	movwf	tblptrl,c
   678  0004'                    	if	1	;There is more than 1 active tblptr byte
   679  0004' 0E10               	movlw	16
   680  0006' 6EF7               	movwf	tblptrh,c
   681  0008'                    	endif
   682  0008'                    	if	0	;There are less than 3 active tblptr bytes
   683  0008'                    	endif
   684  0008' 0009               	tblrd		*+
   685  000A' 0E0D               	movlw	13
   686  000C' 18F5               	xorwf	tablat,w,c
   687  000E' E113               	bnz	l254
   688  0010' 0009               	tblrd		*+
   689  0012' 0E60               	movlw	96
   690  0014' 18F5               	xorwf	tablat,w,c
   691  0016' A4D8               	btfss	status,2,c
   692  0018' 0012               	return	
   693                           
   694                           ;main.c: 358: {
   695                           ;main.c: 364: if(*(const unsigned int*)0x1000 != 0xFFFF)
   696  001A' 0E00               	movlw	0
   697  001C' 6EF6               	movwf	tblptrl,c
   698  001E'                    	if	1	;There is more than 1 active tblptr byte
   699  001E' 0E10               	movlw	16
   700  0020' 6EF7               	movwf	tblptrh,c
   701  0022'                    	endif
   702  0022'                    	if	0	;There are less than 3 active tblptr bytes
   703  0022'                    	endif
   704  0022' 0009               	tblrd		*+
   705  0024' 28F5               	incf	tablat,w,c
   706  0026' E104               	bnz	u1270
   707  0028' 0009               	tblrd		*+
   708  002A' 28F5               	incf	tablat,w,c
   709  002C' B4D8               	btfsc	status,2,c
   710  002E' 0012               	return	
   711  0030'                    u1270:
   712  0030' EF00 F008          	goto	4096	;# 
   713  0034' 0012               	return	
   714  0036'                    l254:
   715  0036' 0012               	return		;funcret
   716  0038'                    __end_of_DoSignatureCheck:
   717                           	opt stack 0
   718                           tblptru	equ	0xFF8
   719                           tblptrh	equ	0xFF7
   720                           tblptrl	equ	0xFF6
   721                           tablat	equ	0xFF5
   722                           postinc0	equ	0xFEE
   723                           wreg	equ	0xFE8
   724                           status	equ	0xFD8
   725                           
   726 ;; *************** function _BootMain *****************
   727 ;; Defined at:
   728 ;;		line 397 in file "../src/main.c"
   729 ;; Parameters:    Size  Location     Type
   730 ;;		None
   731 ;; Auto vars:     Size  Location     Type
   732 ;;		None
   733 ;; Return value:  Size  Location     Type
   734 ;;                  1    wreg      void 
   735 ;; Registers used:
   736 ;;		wreg, fsr1l, fsr1h, fsr2l, fsr2h, status,2, status,0, tblptrl, tblptrh, tblptru, prodl, prodh, cstack
   737 ;; Tracked objects:
   738 ;;		On entry : 0/0
   739 ;;		On exit  : 0/0
   740 ;;		Unchanged: 0/0
   741 ;; Data sizes:     COMRAM   BANK0   BANK1   BANK2   BANK3  BANK4h   BANK5   BANK6   BANK7
   742 ;;      Params:         0       0       0       0       0       0       0       0       0
   743 ;;      Locals:         0       0       0       0       0       0       0       0       0
   744 ;;      Temps:          0       0       0       0       0       0       0       0       0
   745 ;;      Totals:         0       0       0       0       0       0       0       0       0
   746 ;;Total ram usage:        0 bytes
   747 ;; Hardware stack levels used:    1
   748 ;; Hardware stack levels required when called:    7
   749 ;; This function calls:
   750 ;;		_BlinkUSBStatus
   751 ;;		_InitializeSystem
   752 ;;		_ProcessIO
   753 ;;		_USBDeviceTasks
   754 ;; This function is called by:
   755 ;;		_main
   756 ;; This function uses a non-reentrant model
   757 ;;
   758                           
   759                           	psect	_BootMain_text
   760  0000'                    __p_BootMain_text:
   761                           	opt stack 0
   762  0000'                    _BootMain:
   763                           	opt stack 0
   764                           
   765                           ;incstack = 0
   766  0000                     
   767                           ;main.c: 401: INTCON = 0x00;
   768  0000' 0E00               	movlw	0
   769  0002' 6EF2               	movwf	intcon,c	;volatile
   770                           
   771                           ;main.c: 405: STKPTR = 0x00;
   772  0004' 0E00               	movlw	0
   773  0006' 6EFC               	movwf	stkptr,c	;volatile
   774                           
   775                           ;main.c: 408: InitializeSystem();
   776  0008' EC00' F000'        	call	_InitializeSystem	;wreg free
   777  000C'                    l257:
   778  000C' 0004               	clrwdt		;# 
   779                           
   780                           ;main.c: 418: USBDeviceTasks();
   781  000E' EC00' F000'        	call	_USBDeviceTasks	;wreg free
   782                           
   783                           ;main.c: 420: BlinkUSBStatus();
   784  0012' EC00' F000'        	call	_BlinkUSBStatus	;wreg free
   785                           
   786                           ;main.c: 422: ProcessIO();
   787  0016' EC00' F000'        	call	_ProcessIO	;wreg free
   788  001A' D7F8               	goto	l257
   789  001C'                    __end_of_BootMain:
   790                           	opt stack 0
   791                           stkptr	equ	0xFFC
   792                           tblptru	equ	0xFF8
   793                           tblptrh	equ	0xFF7
   794                           tblptrl	equ	0xFF6
   795                           tablat	equ	0xFF5
   796                           intcon	equ	0xFF2
   797                           postinc0	equ	0xFEE
   798                           wreg	equ	0xFE8
   799                           status	equ	0xFD8
   800                           
   801 ;; *************** function _ProcessIO *****************
   802 ;; Defined at:
   803 ;;		line 357 in file "../src/BootPIC18NonJ.c"
   804 ;; Parameters:    Size  Location     Type
   805 ;;		None
   806 ;; Auto vars:     Size  Location     Type
   807 ;;		None
   808 ;; Return value:  Size  Location     Type
   809 ;;                  1    wreg      void 
   810 ;; Registers used:
   811 ;;		wreg, fsr1l, fsr1h, fsr2l, fsr2h, status,2, status,0, tblptrl, tblptrh, tblptru, prodl, prodh, cstack
   812 ;; Tracked objects:
   813 ;;		On entry : 0/0
   814 ;;		On exit  : 0/0
   815 ;;		Unchanged: 0/0
   816 ;; Data sizes:     COMRAM   BANK0   BANK1   BANK2   BANK3  BANK4h   BANK5   BANK6   BANK7
   817 ;;      Params:         0       0       0       0       0       0       0       0       0
   818 ;;      Locals:         0       0       0       0       0       0       0       0       0
   819 ;;      Temps:          4       0       0       0       0       0       0       0       0
   820 ;;      Totals:         4       0       0       0       0       0       0       0       0
   821 ;;Total ram usage:        4 bytes
   822 ;; Hardware stack levels used:    1
   823 ;; Hardware stack levels required when called:    6
   824 ;; This function calls:
   825 ;;		_ClearWatchdog
   826 ;;		_HIDRxReport
   827 ;;		_HIDTxReport
   828 ;;		_ResetDeviceCleanly
   829 ;;		_SignFlash
   830 ;;		_USBDeviceTasks
   831 ;;		_UnlockAndActivate
   832 ;;		_WriteConfigBits
   833 ;;		_WriteEEPROM
   834 ;;		_WriteFlashBlock
   835 ;; This function is called by:
   836 ;;		_BootMain
   837 ;; This function uses a non-reentrant model
   838 ;;
   839                           
   840                           	psect	text3
   841  0000'                    __ptext3:
   842                           	opt stack 0
   843  0000'                    _ProcessIO:
   844                           	opt stack 23
   845                           
   846                           ;BootPIC18NonJ.c: 359: static unsigned char i;
   847                           ;BootPIC18NonJ.c: 360: static const uint8_t* pROM;
   848                           ;BootPIC18NonJ.c: 365: if((usb_device_state != 6) || (UCONbits.SUSPND == 1))
   849                           
   850                           ;incstack = 0
   851  0000' 0E06               	movlw	6
   852  0002' 1843'              	xorwf	_usb_device_state,w,c
   853  0004' A4D8               	btfss	status,2,c
   854  0006' 0012               	return	
   855  0008' B260               	btfsc	3936,1,c	;volatile
   856  000A' 0012               	return	
   857                           
   858                           ;BootPIC18NonJ.c: 370: }
   859                           ;BootPIC18NonJ.c: 375: if(BootState == 0x00)
   860                           
   861                           ;BootPIC18NonJ.c: 366: {
   862                           ;BootPIC18NonJ.c: 369: return;
   863  000C' 5038'              	movf	_BootState,w,c
   864  000E' A4D8               	btfss	status,2,c
   865  0010' D233               	goto	l3315
   866                           
   867                           ;BootPIC18NonJ.c: 376: {
   868                           ;BootPIC18NonJ.c: 379: if(!ep1Bo.Stat.UOWN)
   869  0012' 0104               	movlb	4	; () banked
   870  0014' BF0C               	btfsc	12,7,b	;volatile
   871  0016' 0012               	return	
   872                           
   873                           ; BSR set to: 4
   874                           ;BootPIC18NonJ.c: 380: {
   875                           ;BootPIC18NonJ.c: 383: HIDRxReport((char *)&PacketFromPC, 0x40);
   876  0018' 0E00'              	movlw	low _PacketFromPC
   877  001A' 6E00'              	movwf	HIDRxReport@buffer,c
   878  001C' 0E00'              	movlw	high _PacketFromPC
   879  001E' 6E01'              	movwf	HIDRxReport@buffer+1,c
   880  0020' 0E40               	movlw	64
   881  0022' 6E02'              	movwf	HIDRxReport@len,c
   882  0024' EC00' F000'        	call	_HIDRxReport	;wreg free
   883                           
   884                           ;BootPIC18NonJ.c: 384: BootState = 0x01;
   885  0028' 0E01               	movlw	1
   886  002A' 6E38'              	movwf	_BootState,c
   887                           
   888                           ;BootPIC18NonJ.c: 387: for(i = 0; i < 0x40; i++)
   889  002C' 0E00               	movlw	0
   890  002E' 6E2D'              	movwf	ProcessIO@i,c
   891  0030'                    l3121:
   892  0030' 0E3F               	movlw	63
   893  0032' 642D'              	cpfsgt	ProcessIO@i,c
   894  0034' D001               	goto	l3125
   895  0036' 0012               	return	
   896  0038'                    l3125:
   897                           
   898                           ;BootPIC18NonJ.c: 388: PacketToPC.Contents[i] = 0;
   899  0038' 502D'              	movf	ProcessIO@i,w,c
   900  003A' 0D01               	mullw	1
   901  003C' 0E00'              	movlw	low _PacketToPC
   902  003E' 24F3               	addwf	prodl,w,c
   903  0040' 6ED9               	movwf	fsr2l,c
   904  0042' 0E00'              	movlw	high _PacketToPC
   905  0044' 20F4               	addwfc	prodh,w,c
   906  0046' 6EDA               	movwf	fsr2h,c
   907  0048' 0E00               	movlw	0
   908  004A' 6EDF               	movwf	indf2,c
   909  004C' 2A2D'              	incf	ProcessIO@i,f,c
   910  004E' D7F0               	goto	l3121
   911  0050'                    l90:
   912                           
   913                           ; BSR set to: 0
   914                           ;BootPIC18NonJ.c: 400: if(!ep1Bi.Stat.UOWN)
   915  0050' 0104               	movlb	4	; () banked
   916  0052' BF10               	btfsc	16,7,b	;volatile
   917  0054' 0012               	return	
   918                           
   919                           ; BSR set to: 4
   920                           ;BootPIC18NonJ.c: 401: {
   921                           ;BootPIC18NonJ.c: 403: PacketToPC.Command = 0x02;
   922  0056' 0E02               	movlw	2
   923  0058' 0100               	movlb	0	; () banked
   924  005A' 6F00'              	movwf	_PacketToPC& (0+255),b
   925                           
   926                           ;BootPIC18NonJ.c: 404: PacketToPC.PacketDataFieldSize = 0x3A;
   927  005C' 0E3A               	movlw	58
   928  005E' 0100               	movlb	0	; () banked
   929  0060' 6F00'              	movwf	(_PacketToPC+1)& (0+255),b
   930                           
   931                           ;BootPIC18NonJ.c: 405: PacketToPC.BytesPerAddress = 0x01;
   932  0062' 0E01               	movlw	1
   933  0064' 0100               	movlb	0	; () banked
   934  0066' 6F00'              	movwf	(_PacketToPC+2)& (0+255),b
   935                           
   936                           ;BootPIC18NonJ.c: 406: PacketToPC.Type1 = 0x01;
   937  0068' 0E01               	movlw	1
   938  006A' 0100               	movlb	0	; () banked
   939  006C' 6F00'              	movwf	(_PacketToPC+3)& (0+255),b
   940                           
   941                           ;BootPIC18NonJ.c: 407: PacketToPC.Address1 = (unsigned long)0x1000;
   942  006E' 0E00               	movlw	0
   943  0070' 0100               	movlb	0	; () banked
   944  0072' 6F00'              	movwf	(_PacketToPC+4)& (0+255),b
   945  0074' 0E10               	movlw	16
   946  0076' 6F00'              	movwf	(_PacketToPC+5)& (0+255),b
   947  0078' 0E00               	movlw	0
   948  007A' 6F00'              	movwf	(_PacketToPC+6)& (0+255),b
   949  007C' 0E00               	movlw	0
   950  007E' 6F00'              	movwf	(_PacketToPC+7)& (0+255),b
   951                           
   952                           ;BootPIC18NonJ.c: 408: PacketToPC.Length1 = (unsigned long)(0x008000 - 0x1000);
   953  0080' 0E00               	movlw	0
   954  0082' 0100               	movlb	0	; () banked
   955  0084' 6F00'              	movwf	(_PacketToPC+8)& (0+255),b
   956  0086' 0E70               	movlw	112
   957  0088' 6F00'              	movwf	(_PacketToPC+9)& (0+255),b
   958  008A' 0E00               	movlw	0
   959  008C' 6F00'              	movwf	(_PacketToPC+10)& (0+255),b
   960  008E' 0E00               	movlw	0
   961  0090' 6F00'              	movwf	(_PacketToPC+11)& (0+255),b
   962                           
   963                           ;BootPIC18NonJ.c: 409: PacketToPC.Type2 = 0x03;
   964  0092' 0E03               	movlw	3
   965  0094' 0100               	movlb	0	; () banked
   966  0096' 6F00'              	movwf	(_PacketToPC+12)& (0+255),b
   967                           
   968                           ;BootPIC18NonJ.c: 410: PacketToPC.Address2 = (unsigned long)0x300000;
   969  0098' 0E00               	movlw	0
   970  009A' 0100               	movlb	0	; () banked
   971  009C' 6F00'              	movwf	(_PacketToPC+13)& (0+255),b
   972  009E' 0E00               	movlw	0
   973  00A0' 6F00'              	movwf	(_PacketToPC+14)& (0+255),b
   974  00A2' 0E30               	movlw	48
   975  00A4' 6F00'              	movwf	(_PacketToPC+15)& (0+255),b
   976  00A6' 0E00               	movlw	0
   977  00A8' 6F00'              	movwf	(_PacketToPC+16)& (0+255),b
   978                           
   979                           ;BootPIC18NonJ.c: 411: PacketToPC.Length2 = (unsigned long)14;
   980  00AA' 0E0E               	movlw	14
   981  00AC' 0100               	movlb	0	; () banked
   982  00AE' 6F00'              	movwf	(_PacketToPC+17)& (0+255),b
   983  00B0' 0E00               	movlw	0
   984  00B2' 6F00'              	movwf	(_PacketToPC+18)& (0+255),b
   985  00B4' 0E00               	movlw	0
   986  00B6' 6F00'              	movwf	(_PacketToPC+19)& (0+255),b
   987  00B8' 0E00               	movlw	0
   988  00BA' 6F00'              	movwf	(_PacketToPC+20)& (0+255),b
   989                           
   990                           ;BootPIC18NonJ.c: 412: PacketToPC.Type3 = 0x04;
   991  00BC' 0E04               	movlw	4
   992  00BE' 0100               	movlb	0	; () banked
   993  00C0' 6F00'              	movwf	(_PacketToPC+21)& (0+255),b
   994                           
   995                           ;BootPIC18NonJ.c: 413: PacketToPC.Address3 = (unsigned long)0x200000;
   996  00C2' 0E00               	movlw	0
   997  00C4' 0100               	movlb	0	; () banked
   998  00C6' 6F00'              	movwf	(_PacketToPC+22)& (0+255),b
   999  00C8' 0E00               	movlw	0
  1000  00CA' 6F00'              	movwf	(_PacketToPC+23)& (0+255),b
  1001  00CC' 0E20               	movlw	32
  1002  00CE' 6F00'              	movwf	(_PacketToPC+24)& (0+255),b
  1003  00D0' 0E00               	movlw	0
  1004  00D2' 6F00'              	movwf	(_PacketToPC+25)& (0+255),b
  1005                           
  1006                           ;BootPIC18NonJ.c: 414: PacketToPC.Length3 = (unsigned long)(8);
  1007  00D4' 0E08               	movlw	8
  1008  00D6' 0100               	movlb	0	; () banked
  1009  00D8' 6F00'              	movwf	(_PacketToPC+26)& (0+255),b
  1010  00DA' 0E00               	movlw	0
  1011  00DC' 6F00'              	movwf	(_PacketToPC+27)& (0+255),b
  1012  00DE' 0E00               	movlw	0
  1013  00E0' 6F00'              	movwf	(_PacketToPC+28)& (0+255),b
  1014  00E2' 0E00               	movlw	0
  1015  00E4' 6F00'              	movwf	(_PacketToPC+29)& (0+255),b
  1016                           
  1017                           ; BSR set to: 0
  1018                           ;BootPIC18NonJ.c: 415: PacketToPC.Type4 = 0xFF;
  1019  00E6' 0100               	movlb	0	; () banked
  1020  00E8' 6900'              	setf	(_PacketToPC+30)& (0+255),b
  1021                           
  1022                           ;BootPIC18NonJ.c: 417: PacketToPC.Type4 = 0x02;
  1023  00EA' 0E02               	movlw	2
  1024  00EC' 0100               	movlb	0	; () banked
  1025  00EE' 6F00'              	movwf	(_PacketToPC+30)& (0+255),b
  1026                           
  1027                           ;BootPIC18NonJ.c: 418: PacketToPC.Address4 = (unsigned long)0xF00000;
  1028  00F0' 0E00               	movlw	0
  1029  00F2' 0100               	movlb	0	; () banked
  1030  00F4' 6F00'              	movwf	(_PacketToPC+31)& (0+255),b
  1031  00F6' 0E00               	movlw	0
  1032  00F8' 6F00'              	movwf	(_PacketToPC+32)& (0+255),b
  1033  00FA' 0EF0               	movlw	240
  1034  00FC' 6F00'              	movwf	(_PacketToPC+33)& (0+255),b
  1035  00FE' 0E00               	movlw	0
  1036  0100' 6F00'              	movwf	(_PacketToPC+34)& (0+255),b
  1037                           
  1038                           ;BootPIC18NonJ.c: 419: PacketToPC.Length4 = (unsigned long)0x100;
  1039  0102' 0E00               	movlw	0
  1040  0104' 0100               	movlb	0	; () banked
  1041  0106' 6F00'              	movwf	(_PacketToPC+35)& (0+255),b
  1042  0108' 0E01               	movlw	1
  1043  010A' 6F00'              	movwf	(_PacketToPC+36)& (0+255),b
  1044  010C' 0E00               	movlw	0
  1045  010E' 6F00'              	movwf	(_PacketToPC+37)& (0+255),b
  1046  0110' 0E00               	movlw	0
  1047  0112' 6F00'              	movwf	(_PacketToPC+38)& (0+255),b
  1048                           
  1049                           ; BSR set to: 0
  1050                           ;BootPIC18NonJ.c: 420: PacketToPC.Type5 = 0xFF;
  1051  0114' 0100               	movlb	0	; () banked
  1052  0116' 6900'              	setf	(_PacketToPC+39)& (0+255),b
  1053                           
  1054                           ;BootPIC18NonJ.c: 422: PacketToPC.VersionFlag = 0xA5;
  1055  0118' 0EA5               	movlw	165
  1056  011A' 0100               	movlb	0	; () banked
  1057  011C' 6F00'              	movwf	(_PacketToPC+57)& (0+255),b
  1058                           
  1059                           ; BSR set to: 0
  1060                           ;BootPIC18NonJ.c: 426: HIDTxReport((char *)&PacketToPC, 0x40);
  1061  011E' 0E00'              	movlw	low _PacketToPC
  1062  0120' 6E00'              	movwf	HIDTxReport@buffer,c
  1063  0122' 0E00'              	movlw	high _PacketToPC
  1064  0124' 6E01'              	movwf	HIDTxReport@buffer+1,c
  1065  0126' 0E40               	movlw	64
  1066  0128' 6E02'              	movwf	HIDTxReport@len,c
  1067  012A' EC00' F000'        	call	_HIDTxReport	;wreg free
  1068                           
  1069                           ;BootPIC18NonJ.c: 427: BootState = 0x00;
  1070  012E' 0E00               	movlw	0
  1071  0130' 6E38'              	movwf	_BootState,c
  1072                           
  1073                           ;BootPIC18NonJ.c: 428: }
  1074                           ;BootPIC18NonJ.c: 429: break;
  1075  0132' 0012               	return	
  1076  0134'                    l3141:
  1077                           
  1078                           ;BootPIC18NonJ.c: 431: ConfigsLockValue = 1;
  1079  0134' 0E01               	movlw	1
  1080  0136' 6E3A'              	movwf	_ConfigsLockValue,c
  1081                           
  1082                           ;BootPIC18NonJ.c: 432: if(PacketFromPC.LockValue == 0x00)
  1083  0138' 0100               	movlb	0	; () banked
  1084  013A' 5100'              	movf	(_PacketFromPC+1)& (0+255),w,b
  1085  013C' A4D8               	btfss	status,2,c
  1086  013E' D002               	goto	l94
  1087                           
  1088                           ; BSR set to: 0
  1089                           ;BootPIC18NonJ.c: 433: {
  1090                           ;BootPIC18NonJ.c: 434: ConfigsLockValue = 0;
  1091  0140' 0E00               	movlw	0
  1092  0142' 6E3A'              	movwf	_ConfigsLockValue,c
  1093  0144'                    l94:
  1094                           
  1095                           ; BSR set to: 0
  1096                           ;BootPIC18NonJ.c: 435: }
  1097                           ;BootPIC18NonJ.c: 436: BootState = 0x00;
  1098  0144' 0E00               	movlw	0
  1099  0146' 6E38'              	movwf	_BootState,c
  1100                           
  1101                           ;BootPIC18NonJ.c: 437: break;
  1102  0148' 0012               	return	
  1103  014A'                    l3145:
  1104                           
  1105                           ; BSR set to: 0
  1106                           ;BootPIC18NonJ.c: 440: for(ErasePageTracker = (0x1000/64); ErasePageTracker < (unsigned 
      +                          int)(511 + 1); ErasePageTracker++)
  1107  014A' 0E00               	movlw	0
  1108  014C' 6E28'              	movwf	_ErasePageTracker+1,c
  1109  014E' 0E40               	movlw	64
  1110  0150' 6E27'              	movwf	_ErasePageTracker,c
  1111  0152'                    l3147:
  1112                           
  1113                           ; BSR set to: 0
  1114  0152' 0E02               	movlw	2
  1115  0154' 5C28'              	subwf	_ErasePageTracker+1,w,c
  1116  0156' B0D8               	btfsc	status,0,c
  1117  0158' D01E               	goto	l3169
  1118                           
  1119                           ;BootPIC18NonJ.c: 441: {
  1120                           ;BootPIC18NonJ.c: 442: ClearWatchdog();
  1121                           
  1122                           ; BSR set to: 0
  1123                           
  1124                           ; BSR set to: 0
  1125  015A' EC00' F000'        	call	_ClearWatchdog	;wreg free
  1126                           
  1127                           ;BootPIC18NonJ.c: 444: TBLPTRU = 0x00;
  1128  015E' 0E00               	movlw	0
  1129  0160' 6EF8               	movwf	tblptru,c	;volatile
  1130                           
  1131                           ;BootPIC18NonJ.c: 445: TBLPTRH = (uint8_t)((uint32_t)ErasePageTracker >> 2);
  1132  0162' C027' F009'        	movff	_ErasePageTracker,??_ProcessIO
  1133  0166' C028' F00A'        	movff	_ErasePageTracker+1,??_ProcessIO+1
  1134  016A' 90D8               	bcf	status,0,c
  1135  016C' 320A'              	rrcf	??_ProcessIO+1,f,c
  1136  016E' 3209'              	rrcf	??_ProcessIO,f,c
  1137  0170' 90D8               	bcf	status,0,c
  1138  0172' 320A'              	rrcf	??_ProcessIO+1,f,c
  1139  0174' 3209'              	rrcf	??_ProcessIO,f,c
  1140  0176' 5009'              	movf	??_ProcessIO,w,c
  1141  0178' 6EF7               	movwf	tblptrh,c	;volatile
  1142                           
  1143                           ;BootPIC18NonJ.c: 446: TBLPTRL = (uint8_t)((uint32_t)ErasePageTracker << 6);
  1144  017A' 4027'              	rrncf	_ErasePageTracker,w,c
  1145  017C' 42E8               	rrncf	wreg,f,c
  1146  017E' 0BC0               	andlw	192
  1147  0180' 6EF6               	movwf	tblptrl,c	;volatile
  1148                           
  1149                           ;BootPIC18NonJ.c: 450: EECON1 = 0b10010100;
  1150  0182' 0E94               	movlw	148
  1151  0184' 6EA6               	movwf	4006,c	;volatile
  1152                           
  1153                           ;BootPIC18NonJ.c: 451: UnlockAndActivate(0xB5);
  1154  0186' 0EB5               	movlw	181
  1155  0188' EC00' F000'        	call	_UnlockAndActivate
  1156                           
  1157                           ;BootPIC18NonJ.c: 452: USBDeviceTasks();
  1158  018C' EC00' F000'        	call	_USBDeviceTasks	;wreg free
  1159  0190' 4A27'              	infsnz	_ErasePageTracker,f,c
  1160  0192' 2A28'              	incf	_ErasePageTracker+1,f,c
  1161  0194' D7DE               	goto	l3147
  1162  0196'                    l3169:
  1163                           
  1164                           ;BootPIC18NonJ.c: 453: }
  1165                           ;BootPIC18NonJ.c: 457: i = 0xF00000 & (0x100-1);
  1166  0196' 0E00               	movlw	0
  1167  0198' 6E2D'              	movwf	ProcessIO@i,c
  1168  019A'                    l3171:
  1169                           
  1170                           ;BootPIC18NonJ.c: 459: EEADR = i;
  1171  019A' C02D' FFA9         	movff	ProcessIO@i,4009	;volatile
  1172                           
  1173                           ;BootPIC18NonJ.c: 460: EEDATA = 0xFF;
  1174  019E' 68A8               	setf	4008,c	;volatile
  1175                           
  1176                           ;BootPIC18NonJ.c: 461: EECON1 = 0b00000100;
  1177  01A0' 0E04               	movlw	4
  1178  01A2' 6EA6               	movwf	4006,c	;volatile
  1179                           
  1180                           ;BootPIC18NonJ.c: 462: USBDeviceTasks();
  1181  01A4' EC00' F000'        	call	_USBDeviceTasks	;wreg free
  1182                           
  1183                           ;BootPIC18NonJ.c: 463: UnlockAndActivate(0xB5);
  1184  01A8' 0EB5               	movlw	181
  1185  01AA' EC00' F000'        	call	_UnlockAndActivate
  1186                           
  1187                           ;BootPIC18NonJ.c: 464: }while(i++<((0x100-1)+(0xF00000 & (0x100-1))));
  1188  01AE' 3E2D'              	incfsz	ProcessIO@i,f,c
  1189  01B0' D7F4               	goto	l3171
  1190                           
  1191                           ;BootPIC18NonJ.c: 469: TBLPTRU = 0x20;
  1192  01B2' 0E20               	movlw	32
  1193  01B4' 6EF8               	movwf	tblptru,c	;volatile
  1194                           
  1195                           ;BootPIC18NonJ.c: 470: TBLPTRH = 0x00;
  1196  01B6' 0E00               	movlw	0
  1197  01B8' 6EF7               	movwf	tblptrh,c	;volatile
  1198                           
  1199                           ;BootPIC18NonJ.c: 471: TBLPTRL = (uint8_t)0x200000;
  1200  01BA' 0E00               	movlw	0
  1201  01BC' 6EF6               	movwf	tblptrl,c	;volatile
  1202                           
  1203                           ;BootPIC18NonJ.c: 472: EECON1 = 0b10010100;
  1204  01BE' 0E94               	movlw	148
  1205  01C0' 6EA6               	movwf	4006,c	;volatile
  1206                           
  1207                           ;BootPIC18NonJ.c: 473: UnlockAndActivate(0xB5);
  1208  01C2' 0EB5               	movlw	181
  1209  01C4' EC00' F000'        	call	_UnlockAndActivate
  1210                           
  1211                           ;BootPIC18NonJ.c: 475: BootState = 0x00;
  1212  01C8' 0E00               	movlw	0
  1213  01CA' 6E38'              	movwf	_BootState,c
  1214                           
  1215                           ;BootPIC18NonJ.c: 476: break;
  1216  01CC' 0012               	return	
  1217  01CE'                    l3187:
  1218                           
  1219                           ;BootPIC18NonJ.c: 479: if(PacketFromPC.Contents[3] == 0x30)
  1220  01CE' 0E30               	movlw	48
  1221  01D0' 0100               	movlb	0	; () banked
  1222  01D2' 1900'              	xorwf	(_PacketFromPC+3)& (0+255),w,b
  1223  01D4' A4D8               	btfss	status,2,c
  1224  01D6' D007               	goto	l3195
  1225                           
  1226                           ; BSR set to: 0
  1227                           ;BootPIC18NonJ.c: 480: {
  1228                           ;BootPIC18NonJ.c: 481: if(ConfigsLockValue == 0)
  1229  01D8' 503A'              	movf	_ConfigsLockValue,w,c
  1230  01DA' B4D8               	btfsc	status,2,c
  1231                           
  1232                           ; BSR set to: 0
  1233                           ;BootPIC18NonJ.c: 482: {
  1234                           ;BootPIC18NonJ.c: 483: WriteConfigBits();
  1235  01DC' EC00' F000'        	call	_WriteConfigBits	;wreg free
  1236                           
  1237                           ;BootPIC18NonJ.c: 484: }
  1238                           ;BootPIC18NonJ.c: 485: BootState = 0x00;
  1239  01E0' 0E00               	movlw	0
  1240  01E2' 6E38'              	movwf	_BootState,c
  1241                           
  1242                           ;BootPIC18NonJ.c: 486: break;
  1243  01E4' 0012               	return	
  1244  01E6'                    l3195:
  1245                           
  1246                           ;BootPIC18NonJ.c: 487: }
  1247                           ;BootPIC18NonJ.c: 491: if(PacketFromPC.Contents[3] == 0xF0)
  1248  01E6' 0EF0               	movlw	240
  1249  01E8' 0100               	movlb	0	; () banked
  1250  01EA' 1900'              	xorwf	(_PacketFromPC+3)& (0+255),w,b
  1251  01EC' A4D8               	btfss	status,2,c
  1252  01EE' D005               	goto	l3201
  1253                           
  1254                           ; BSR set to: 0
  1255                           ;BootPIC18NonJ.c: 492: {
  1256                           ;BootPIC18NonJ.c: 493: WriteEEPROM();
  1257  01F0' EC00' F000'        	call	_WriteEEPROM	;wreg free
  1258                           
  1259                           ;BootPIC18NonJ.c: 494: BootState = 0x00;
  1260  01F4' 0E00               	movlw	0
  1261  01F6' 6E38'              	movwf	_BootState,c
  1262                           
  1263                           ;BootPIC18NonJ.c: 495: break;
  1264  01F8' 0012               	return	
  1265  01FA'                    l3201:
  1266                           
  1267                           ;BootPIC18NonJ.c: 496: }
  1268                           ;BootPIC18NonJ.c: 499: if(ProgrammedPointer == (uint32_t)0xFFFFFFFF)
  1269  01FA' 2808'              	incf	_ProgrammedPointer,w,c
  1270  01FC' E10F               	bnz	l3205
  1271  01FE' 2809'              	incf	_ProgrammedPointer+1,w,c
  1272  0200' E10D               	bnz	l3205
  1273  0202' 280A'              	incf	_ProgrammedPointer+2,w,c
  1274  0204' E10B               	bnz	l3205
  1275  0206' 280B'              	incf	_ProgrammedPointer+3,w,c
  1276  0208' A4D8               	btfss	status,2,c
  1277  020A' D008               	goto	l3205
  1278                           
  1279                           ;BootPIC18NonJ.c: 500: ProgrammedPointer = PacketFromPC.Address;
  1280  020C' C001' F008'        	movff	_PacketFromPC+1,_ProgrammedPointer
  1281  0210' C002' F009'        	movff	_PacketFromPC+2,_ProgrammedPointer+1
  1282  0214' C003' F00A'        	movff	_PacketFromPC+3,_ProgrammedPointer+2
  1283  0218' C004' F00B'        	movff	_PacketFromPC+4,_ProgrammedPointer+3
  1284  021C'                    l3205:
  1285                           
  1286                           ;BootPIC18NonJ.c: 502: if(ProgrammedPointer == (uint32_t)PacketFromPC.Address)
  1287  021C' 5008'              	movf	_ProgrammedPointer,w,c
  1288  021E' 0100               	movlb	0	; () banked
  1289  0220' 1900'              	xorwf	(_PacketFromPC+1)& (0+255),w,b
  1290  0222' E145               	bnz	l3223
  1291  0224' 5009'              	movf	_ProgrammedPointer+1,w,c
  1292  0226' 0100               	movlb	0	; () banked
  1293  0228' 1900'              	xorwf	(_PacketFromPC+2)& (0+255),w,b
  1294  022A' E141               	bnz	l3223
  1295  022C' 500A'              	movf	_ProgrammedPointer+2,w,c
  1296  022E' 0100               	movlb	0	; () banked
  1297  0230' 1900'              	xorwf	(_PacketFromPC+3)& (0+255),w,b
  1298  0232' E13D               	bnz	l3223
  1299  0234' 500B'              	movf	_ProgrammedPointer+3,w,c
  1300  0236' 0100               	movlb	0	; () banked
  1301  0238' 1900'              	xorwf	(_PacketFromPC+4)& (0+255),w,b
  1302  023A' A4D8               	btfss	status,2,c
  1303  023C' D038               	goto	l3223
  1304                           
  1305                           ; BSR set to: 0
  1306                           ;BootPIC18NonJ.c: 503: {
  1307                           ;BootPIC18NonJ.c: 504: for(i = 0; i < PacketFromPC.Size; i++)
  1308  023E' 0E00               	movlw	0
  1309  0240' 6E2D'              	movwf	ProcessIO@i,c
  1310  0242' D030               	goto	l3221
  1311  0244'                    l3209:
  1312                           
  1313                           ; BSR set to: 0
  1314                           ;BootPIC18NonJ.c: 505: {
  1315                           ;BootPIC18NonJ.c: 506: ProgrammingBuffer[BufferedDataIndex] = PacketFromPC.Data[i+(0x3A-
      +                          PacketFromPC.Size)];
  1316  0244' 0100               	movlb	0	; () banked
  1317  0246' 5100'              	movf	(_PacketFromPC+5)& (0+255),w,b
  1318  0248' 6E00'              	movwf	??_ProcessIO& (0+255),c
  1319  024A' 6A00'              	clrf	(??_ProcessIO+1)& (0+255),c
  1320  024C' 1E09'              	comf	??_ProcessIO,f,c
  1321  024E' 1E0A'              	comf	??_ProcessIO+1,f,c
  1322  0250' 4A09'              	infsnz	??_ProcessIO,f,c
  1323  0252' 2A0A'              	incf	??_ProcessIO+1,f,c
  1324  0254' 502D'              	movf	ProcessIO@i,w,c
  1325  0256' 6E00'              	movwf	(??_ProcessIO+2)& (0+255),c
  1326  0258' 6A00'              	clrf	(??_ProcessIO+3)& (0+255),c
  1327  025A' 5009'              	movf	??_ProcessIO,w,c
  1328  025C' 260B'              	addwf	??_ProcessIO+2,f,c
  1329  025E' 500A'              	movf	??_ProcessIO+1,w,c
  1330  0260' 220C'              	addwfc	??_ProcessIO+3,f,c
  1331  0262' 0E40               	movlw	64
  1332  0264' 260B'              	addwf	??_ProcessIO+2,f,c
  1333  0266' 0E00               	movlw	0
  1334  0268' 220C'              	addwfc	??_ProcessIO+3,f,c
  1335  026A' 0E00'              	movlw	low _PacketFromPC
  1336  026C' 240B'              	addwf	??_ProcessIO+2,w,c
  1337  026E' 6ED9               	movwf	fsr2l,c
  1338  0270' 0E00'              	movlw	high _PacketFromPC
  1339  0272' 200C'              	addwfc	??_ProcessIO+3,w,c
  1340  0274' 6EDA               	movwf	fsr2h,c
  1341  0276' 5039'              	movf	_BufferedDataIndex,w,c
  1342  0278' 0D01               	mullw	1
  1343  027A' 0E00'              	movlw	low _ProgrammingBuffer
  1344  027C' 24F3               	addwf	prodl,w,c
  1345  027E' 6EE1               	movwf	fsr1l,c
  1346  0280' 0E00'              	movlw	high _ProgrammingBuffer
  1347  0282' 20F4               	addwfc	prodh,w,c
  1348  0284' 6EE2               	movwf	fsr1h,c
  1349  0286' CFDF FFE7          	movff	indf2,indf1
  1350                           
  1351                           ; BSR set to: 0
  1352                           ;BootPIC18NonJ.c: 507: BufferedDataIndex++;
  1353  028A' 2A39'              	incf	_BufferedDataIndex,f,c
  1354                           
  1355                           ; BSR set to: 0
  1356                           ;BootPIC18NonJ.c: 508: ProgrammedPointer++;
  1357  028C' 0E01               	movlw	1
  1358  028E' 2608'              	addwf	_ProgrammedPointer,f,c
  1359  0290' 0E00               	movlw	0
  1360  0292' 2209'              	addwfc	_ProgrammedPointer+1,f,c
  1361  0294' 220A'              	addwfc	_ProgrammedPointer+2,f,c
  1362  0296' 220B'              	addwfc	_ProgrammedPointer+3,f,c
  1363                           
  1364                           ; BSR set to: 0
  1365                           ;BootPIC18NonJ.c: 509: if(BufferedDataIndex == 0x20)
  1366  0298' 0E20               	movlw	32
  1367  029A' 1839'              	xorwf	_BufferedDataIndex,w,c
  1368  029C' B4D8               	btfsc	status,2,c
  1369                           
  1370                           ; BSR set to: 0
  1371                           ;BootPIC18NonJ.c: 510: {
  1372                           ;BootPIC18NonJ.c: 511: WriteFlashBlock();
  1373  029E' EC00' F000'        	call	_WriteFlashBlock	;wreg free
  1374  02A2' 2A2D'              	incf	ProcessIO@i,f,c
  1375  02A4'                    l3221:
  1376  02A4' 0100               	movlb	0	; () banked
  1377  02A6' 5100'              	movf	(_PacketFromPC+5)& (0+255),w,b
  1378  02A8' 5C2D'              	subwf	ProcessIO@i,w,c
  1379  02AA' A0D8               	btfss	status,0,c
  1380  02AC' D7CB               	goto	l3209
  1381  02AE'                    l3223:
  1382                           
  1383                           ; BSR set to: 0
  1384                           ;BootPIC18NonJ.c: 512: }
  1385                           ;BootPIC18NonJ.c: 513: }
  1386                           ;BootPIC18NonJ.c: 514: }
  1387                           ;BootPIC18NonJ.c: 518: BootState = 0x00;
  1388  02AE' 0E00               	movlw	0
  1389  02B0' 6E38'              	movwf	_BootState,c
  1390                           
  1391                           ;BootPIC18NonJ.c: 519: break;
  1392  02B2' 0012               	return	
  1393  02B4'                    l3225:
  1394                           
  1395                           ; BSR set to: 0
  1396                           ;BootPIC18NonJ.c: 521: WriteFlashBlock();
  1397  02B4' EC00' F000'        	call	_WriteFlashBlock	;wreg free
  1398                           
  1399                           ;BootPIC18NonJ.c: 522: ProgrammedPointer = 0xFFFFFFFF;
  1400  02B8' 6808'              	setf	_ProgrammedPointer,c
  1401  02BA' 6809'              	setf	_ProgrammedPointer+1,c
  1402  02BC' 680A'              	setf	_ProgrammedPointer+2,c
  1403  02BE' 680B'              	setf	_ProgrammedPointer+3,c
  1404                           
  1405                           ;BootPIC18NonJ.c: 523: BootState = 0x00;
  1406  02C0' 0E00               	movlw	0
  1407  02C2' 6E38'              	movwf	_BootState,c
  1408                           
  1409                           ;BootPIC18NonJ.c: 524: break;
  1410  02C4' 0012               	return	
  1411  02C6'                    l3231:
  1412                           
  1413                           ;BootPIC18NonJ.c: 527: PacketToPC.Command = 0x07;
  1414  02C6' 0E07               	movlw	7
  1415  02C8' 0100               	movlb	0	; () banked
  1416  02CA' 6F00'              	movwf	_PacketToPC& (0+255),b
  1417                           
  1418                           ; BSR set to: 0
  1419                           ;BootPIC18NonJ.c: 528: PacketToPC.Address = PacketFromPC.Address;
  1420  02CC' C001' F042'        	movff	_PacketFromPC+1,_PacketToPC+1
  1421  02D0' C002' F043'        	movff	_PacketFromPC+2,_PacketToPC+2
  1422  02D4' C003' F044'        	movff	_PacketFromPC+3,_PacketToPC+3
  1423  02D8' C004' F045'        	movff	_PacketFromPC+4,_PacketToPC+4
  1424                           
  1425                           ; BSR set to: 0
  1426                           ;BootPIC18NonJ.c: 529: PacketToPC.Size = PacketFromPC.Size;
  1427  02DC' C005' F046'        	movff	_PacketFromPC+5,_PacketToPC+5
  1428                           
  1429                           ; BSR set to: 0
  1430                           ;BootPIC18NonJ.c: 531: pROM = (const uint8_t*)PacketFromPC.Address;
  1431  02E0' C001' F010'        	movff	_PacketFromPC+1,ProcessIO@pROM
  1432  02E4' C002' F011'        	movff	_PacketFromPC+2,ProcessIO@pROM+1
  1433  02E8' C003' F012'        	movff	_PacketFromPC+3,ProcessIO@pROM+2
  1434                           
  1435                           ; BSR set to: 0
  1436                           ;BootPIC18NonJ.c: 532: for(i = 0; i < PacketFromPC.Size; i++)
  1437  02EC' 0E00               	movlw	0
  1438  02EE' 6E2D'              	movwf	ProcessIO@i,c
  1439  02F0' D051               	goto	l3257
  1440  02F2'                    l3241:
  1441                           
  1442                           ; BSR set to: 0
  1443                           ;BootPIC18NonJ.c: 533: {
  1444                           ;BootPIC18NonJ.c: 534: if(PacketFromPC.Contents[3] == 0xF0)
  1445  02F2' 0EF0               	movlw	240
  1446  02F4' 0100               	movlb	0	; () banked
  1447  02F6' 1900'              	xorwf	(_PacketFromPC+3)& (0+255),w,b
  1448  02F8' A4D8               	btfss	status,2,c
  1449  02FA' D023               	goto	l3251
  1450                           
  1451                           ; BSR set to: 0
  1452                           ;BootPIC18NonJ.c: 535: {
  1453                           ;BootPIC18NonJ.c: 537: EEADR = (((unsigned char)PacketFromPC.Address) + i);
  1454  02FC' 0100               	movlb	0	; () banked
  1455  02FE' 5100'              	movf	(_PacketFromPC+1)& (0+255),w,b
  1456  0300' 242D'              	addwf	ProcessIO@i,w,c
  1457  0302' 6EA9               	movwf	4009,c	;volatile
  1458                           
  1459                           ; BSR set to: 0
  1460                           ;BootPIC18NonJ.c: 538: EECON1 = 0b00000000;
  1461  0304' 0E00               	movlw	0
  1462  0306' 6EA6               	movwf	4006,c	;volatile
  1463                           
  1464                           ; BSR set to: 0
  1465                           ;BootPIC18NonJ.c: 539: EECON1bits.RD = 1;
  1466  0308' 80A6               	bsf	4006,0,c	;volatile
  1467                           
  1468                           ; BSR set to: 0
  1469                           ;BootPIC18NonJ.c: 540: PacketToPC.Data[i+((0x40 - 6) - PacketFromPC.Size)] = EEDATA;
  1470  030A' 0100               	movlb	0	; () banked
  1471  030C' 5100'              	movf	(_PacketFromPC+5)& (0+255),w,b
  1472  030E' 6E00'              	movwf	??_ProcessIO& (0+255),c
  1473  0310' 6A00'              	clrf	(??_ProcessIO+1)& (0+255),c
  1474  0312' 1E09'              	comf	??_ProcessIO,f,c
  1475  0314' 1E0A'              	comf	??_ProcessIO+1,f,c
  1476  0316' 4A09'              	infsnz	??_ProcessIO,f,c
  1477  0318' 2A0A'              	incf	??_ProcessIO+1,f,c
  1478  031A' 502D'              	movf	ProcessIO@i,w,c
  1479  031C' 6E00'              	movwf	(??_ProcessIO+2)& (0+255),c
  1480  031E' 6A00'              	clrf	(??_ProcessIO+3)& (0+255),c
  1481  0320' 5009'              	movf	??_ProcessIO,w,c
  1482  0322' 260B'              	addwf	??_ProcessIO+2,f,c
  1483  0324' 500A'              	movf	??_ProcessIO+1,w,c
  1484  0326' 220C'              	addwfc	??_ProcessIO+3,f,c
  1485  0328' 0E40               	movlw	64
  1486  032A' 260B'              	addwf	??_ProcessIO+2,f,c
  1487  032C' 0E00               	movlw	0
  1488  032E' 220C'              	addwfc	??_ProcessIO+3,f,c
  1489  0330' 0E00'              	movlw	low _PacketToPC
  1490  0332' 240B'              	addwf	??_ProcessIO+2,w,c
  1491  0334' 6ED9               	movwf	fsr2l,c
  1492  0336' 0E00'              	movlw	high _PacketToPC
  1493  0338' 200C'              	addwfc	??_ProcessIO+3,w,c
  1494  033A' 6EDA               	movwf	fsr2h,c
  1495  033C' CFA8 FFDF          	movff	4008,indf2	;volatile
  1496                           
  1497                           ;BootPIC18NonJ.c: 542: }
  1498  0340' D028               	goto	l3255
  1499  0342'                    l3251:
  1500                           
  1501                           ; BSR set to: 0
  1502                           ;BootPIC18NonJ.c: 543: else
  1503                           ;BootPIC18NonJ.c: 544: {
  1504                           ;BootPIC18NonJ.c: 545: PacketToPC.Data[i+((0x40 - 6) - PacketFromPC.Size)] = *pROM++;
  1505  0342' C010' FFF6         	movff	ProcessIO@pROM,tblptrl
  1506  0346' C011' FFF7         	movff	ProcessIO@pROM+1,tblptrh
  1507  034A' C012' FFF8         	movff	ProcessIO@pROM+2,tblptru
  1508  034E' 0100               	movlb	0	; () banked
  1509  0350' 5100'              	movf	(_PacketFromPC+5)& (0+255),w,b
  1510  0352' 6E00'              	movwf	??_ProcessIO& (0+255),c
  1511  0354' 6A00'              	clrf	(??_ProcessIO+1)& (0+255),c
  1512  0356' 1E09'              	comf	??_ProcessIO,f,c
  1513  0358' 1E0A'              	comf	??_ProcessIO+1,f,c
  1514  035A' 4A09'              	infsnz	??_ProcessIO,f,c
  1515  035C' 2A0A'              	incf	??_ProcessIO+1,f,c
  1516  035E' 502D'              	movf	ProcessIO@i,w,c
  1517  0360' 6E00'              	movwf	(??_ProcessIO+2)& (0+255),c
  1518  0362' 6A00'              	clrf	(??_ProcessIO+3)& (0+255),c
  1519  0364' 5009'              	movf	??_ProcessIO,w,c
  1520  0366' 260B'              	addwf	??_ProcessIO+2,f,c
  1521  0368' 500A'              	movf	??_ProcessIO+1,w,c
  1522  036A' 220C'              	addwfc	??_ProcessIO+3,f,c
  1523  036C' 0E40               	movlw	64
  1524  036E' 260B'              	addwf	??_ProcessIO+2,f,c
  1525  0370' 0E00               	movlw	0
  1526  0372' 220C'              	addwfc	??_ProcessIO+3,f,c
  1527  0374' 0E00'              	movlw	low _PacketToPC
  1528  0376' 240B'              	addwf	??_ProcessIO+2,w,c
  1529  0378' 6ED9               	movwf	fsr2l,c
  1530  037A' 0E00'              	movlw	high _PacketToPC
  1531  037C' 200C'              	addwfc	??_ProcessIO+3,w,c
  1532  037E' 6EDA               	movwf	fsr2h,c
  1533  0380' 0008               	tblrd		*
  1534  0382' CFF5 FFDF          	movff	tablat,indf2
  1535                           
  1536                           ; BSR set to: 0
  1537  0386' 0E01               	movlw	1
  1538  0388' 2610'              	addwf	ProcessIO@pROM,f,c
  1539  038A' 0E00               	movlw	0
  1540  038C' 2211'              	addwfc	ProcessIO@pROM+1,f,c
  1541  038E' 0E00               	movlw	0
  1542  0390' 2212'              	addwfc	ProcessIO@pROM+2,f,c
  1543  0392'                    l3255:
  1544                           
  1545                           ; BSR set to: 0
  1546  0392' 2A2D'              	incf	ProcessIO@i,f,c
  1547  0394'                    l3257:
  1548                           
  1549                           ; BSR set to: 0
  1550  0394' 0100               	movlb	0	; () banked
  1551  0396' 5100'              	movf	(_PacketFromPC+5)& (0+255),w,b
  1552  0398' 5C2D'              	subwf	ProcessIO@i,w,c
  1553  039A' A0D8               	btfss	status,0,c
  1554  039C' D7AA               	goto	l3241
  1555                           
  1556                           ; BSR set to: 0
  1557                           ;BootPIC18NonJ.c: 546: }
  1558                           ;BootPIC18NonJ.c: 547: }
  1559                           ;BootPIC18NonJ.c: 551: if(!ep1Bi.Stat.UOWN)
  1560  039E' 0104               	movlb	4	; () banked
  1561  03A0' BF10               	btfsc	16,7,b	;volatile
  1562  03A2' 0012               	return	
  1563                           
  1564                           ; BSR set to: 4
  1565                           ;BootPIC18NonJ.c: 552: {
  1566                           ;BootPIC18NonJ.c: 553: HIDTxReport((char *)&PacketToPC, 0x40);
  1567  03A4' 0E00'              	movlw	low _PacketToPC
  1568  03A6' 6E00'              	movwf	HIDTxReport@buffer,c
  1569  03A8' 0E00'              	movlw	high _PacketToPC
  1570  03AA' 6E01'              	movwf	HIDTxReport@buffer+1,c
  1571  03AC' 0E40               	movlw	64
  1572  03AE' 6E02'              	movwf	HIDTxReport@len,c
  1573  03B0' EC00' F000'        	call	_HIDTxReport	;wreg free
  1574                           
  1575                           ;BootPIC18NonJ.c: 554: BootState = 0x00;
  1576  03B4' 0E00               	movlw	0
  1577  03B6' 6E38'              	movwf	_BootState,c
  1578                           
  1579                           ;BootPIC18NonJ.c: 555: }
  1580                           ;BootPIC18NonJ.c: 556: break;
  1581  03B8' 0012               	return	
  1582  03BA'                    l3263:
  1583                           
  1584                           ;BootPIC18NonJ.c: 558: SignFlash();
  1585  03BA' EC00' F000'        	call	_SignFlash	;wreg free
  1586                           
  1587                           ;BootPIC18NonJ.c: 559: BootState = 0x00;
  1588  03BE' 0E00               	movlw	0
  1589  03C0' 6E38'              	movwf	_BootState,c
  1590                           
  1591                           ;BootPIC18NonJ.c: 560: break;
  1592  03C2' 0012               	return	
  1593  03C4'                    l3267:
  1594                           
  1595                           ;BootPIC18NonJ.c: 567: PacketToPC.Command = 0x0C;
  1596  03C4' 0E0C               	movlw	12
  1597  03C6' 0100               	movlb	0	; () banked
  1598  03C8' 6F00'              	movwf	_PacketToPC& (0+255),b
  1599                           
  1600                           ;BootPIC18NonJ.c: 568: PacketToPC.BootloaderVersion = ((unsigned int)1 << 8)| 2;
  1601  03CA' 0E01               	movlw	1
  1602  03CC' 0100               	movlb	0	; () banked
  1603  03CE' 6F00'              	movwf	(_PacketToPC+2)& (0+255),b
  1604  03D0' 0E02               	movlw	2
  1605  03D2' 6F00'              	movwf	(_PacketToPC+1)& (0+255),b
  1606                           
  1607                           ; BSR set to: 0
  1608                           ;BootPIC18NonJ.c: 569: PacketToPC.ApplicationVersion = *(const unsigned int*)0x1016;
  1609  03D4' 0E16               	movlw	22
  1610  03D6' 6EF6               	movwf	tblptrl,c
  1611  03D8'                    	if	1	;There is more than 1 active tblptr byte
  1612  03D8' 0E10               	movlw	16
  1613  03DA' 6EF7               	movwf	tblptrh,c
  1614  03DC'                    	endif
  1615  03DC'                    	if	0	;There are less than 3 active tblptr bytes
  1616  03DC'                    	endif
  1617  03DC' 0009               	tblrd		*+
  1618  03DE' CFF5 F044'         	movff	tablat,_PacketToPC+3
  1619  03E2' 000A               	tblrd		*-
  1620  03E4' CFF5 F045'         	movff	tablat,_PacketToPC+4
  1621                           
  1622                           ; BSR set to: 0
  1623                           ;BootPIC18NonJ.c: 570: PacketToPC.SignatureAddress = 0x1006;
  1624  03E8' 0E06               	movlw	6
  1625  03EA' 0100               	movlb	0	; () banked
  1626  03EC' 6F00'              	movwf	(_PacketToPC+5)& (0+255),b
  1627  03EE' 0E10               	movlw	16
  1628  03F0' 6F00'              	movwf	(_PacketToPC+6)& (0+255),b
  1629  03F2' 0E00               	movlw	0
  1630  03F4' 6F00'              	movwf	(_PacketToPC+7)& (0+255),b
  1631  03F6' 0E00               	movlw	0
  1632  03F8' 6F00'              	movwf	(_PacketToPC+8)& (0+255),b
  1633                           
  1634                           ; BSR set to: 0
  1635                           ;BootPIC18NonJ.c: 571: PacketToPC.SignatureValue = 0x600D;
  1636  03FA' 0E60               	movlw	96
  1637  03FC' 0100               	movlb	0	; () banked
  1638  03FE' 6F00'              	movwf	(_PacketToPC+10)& (0+255),b
  1639  0400' 0E0D               	movlw	13
  1640  0402' 6F00'              	movwf	(_PacketToPC+9)& (0+255),b
  1641                           
  1642                           ; BSR set to: 0
  1643                           ;BootPIC18NonJ.c: 572: PacketToPC.ErasePageSize = 64;
  1644  0404' 0E40               	movlw	64
  1645  0406' 0100               	movlb	0	; () banked
  1646  0408' 6F00'              	movwf	(_PacketToPC+11)& (0+255),b
  1647  040A' 0E00               	movlw	0
  1648  040C' 6F00'              	movwf	(_PacketToPC+12)& (0+255),b
  1649  040E' 0E00               	movlw	0
  1650  0410' 6F00'              	movwf	(_PacketToPC+13)& (0+255),b
  1651  0412' 0E00               	movlw	0
  1652  0414' 6F00'              	movwf	(_PacketToPC+14)& (0+255),b
  1653                           
  1654                           ; BSR set to: 0
  1655                           ;BootPIC18NonJ.c: 573: PacketToPC.Config1LMask = 0xFF;
  1656  0416' 0100               	movlb	0	; () banked
  1657  0418' 6900'              	setf	(_PacketToPC+15)& (0+255),b
  1658                           
  1659                           ; BSR set to: 0
  1660                           ;BootPIC18NonJ.c: 574: PacketToPC.Config1HMask = 0xFF;
  1661  041A' 0100               	movlb	0	; () banked
  1662  041C' 6900'              	setf	(_PacketToPC+16)& (0+255),b
  1663                           
  1664                           ; BSR set to: 0
  1665                           ;BootPIC18NonJ.c: 575: PacketToPC.Config2LMask = 0xFF;
  1666  041E' 0100               	movlb	0	; () banked
  1667  0420' 6900'              	setf	(_PacketToPC+17)& (0+255),b
  1668                           
  1669                           ; BSR set to: 0
  1670                           ;BootPIC18NonJ.c: 576: PacketToPC.Config2HMask = 0xFF;
  1671  0422' 0100               	movlb	0	; () banked
  1672  0424' 6900'              	setf	(_PacketToPC+18)& (0+255),b
  1673                           
  1674                           ; BSR set to: 0
  1675                           ;BootPIC18NonJ.c: 577: PacketToPC.Config3LMask = 0x00;
  1676  0426' 0E00               	movlw	0
  1677  0428' 0100               	movlb	0	; () banked
  1678  042A' 6F00'              	movwf	(_PacketToPC+19)& (0+255),b
  1679                           
  1680                           ; BSR set to: 0
  1681                           ;BootPIC18NonJ.c: 578: PacketToPC.Config3HMask = 0xFF;
  1682  042C' 0100               	movlb	0	; () banked
  1683  042E' 6900'              	setf	(_PacketToPC+20)& (0+255),b
  1684                           
  1685                           ; BSR set to: 0
  1686                           ;BootPIC18NonJ.c: 579: PacketToPC.Config4LMask = 0xFF;
  1687  0430' 0100               	movlb	0	; () banked
  1688  0432' 6900'              	setf	(_PacketToPC+21)& (0+255),b
  1689                           
  1690                           ; BSR set to: 0
  1691                           ;BootPIC18NonJ.c: 580: PacketToPC.Config4HMask = 0x00;
  1692  0434' 0E00               	movlw	0
  1693  0436' 0100               	movlb	0	; () banked
  1694  0438' 6F00'              	movwf	(_PacketToPC+22)& (0+255),b
  1695                           
  1696                           ; BSR set to: 0
  1697                           ;BootPIC18NonJ.c: 581: PacketToPC.Config5LMask = 0xFF;
  1698  043A' 0100               	movlb	0	; () banked
  1699  043C' 6900'              	setf	(_PacketToPC+23)& (0+255),b
  1700                           
  1701                           ; BSR set to: 0
  1702                           ;BootPIC18NonJ.c: 582: PacketToPC.Config5HMask = 0xFF;
  1703  043E' 0100               	movlb	0	; () banked
  1704  0440' 6900'              	setf	(_PacketToPC+24)& (0+255),b
  1705                           
  1706                           ; BSR set to: 0
  1707                           ;BootPIC18NonJ.c: 583: PacketToPC.Config6LMask = 0xFF;
  1708  0442' 0100               	movlb	0	; () banked
  1709  0444' 6900'              	setf	(_PacketToPC+25)& (0+255),b
  1710                           
  1711                           ; BSR set to: 0
  1712                           ;BootPIC18NonJ.c: 584: PacketToPC.Config6HMask = 0xFF;
  1713  0446' 0100               	movlb	0	; () banked
  1714  0448' 6900'              	setf	(_PacketToPC+26)& (0+255),b
  1715                           
  1716                           ; BSR set to: 0
  1717                           ;BootPIC18NonJ.c: 585: PacketToPC.Config7LMask = 0xFF;
  1718  044A' 0100               	movlb	0	; () banked
  1719  044C' 6900'              	setf	(_PacketToPC+27)& (0+255),b
  1720                           
  1721                           ; BSR set to: 0
  1722                           ;BootPIC18NonJ.c: 586: PacketToPC.Config7HMask = 0xFF;
  1723  044E' 0100               	movlb	0	; () banked
  1724  0450' 6900'              	setf	(_PacketToPC+28)& (0+255),b
  1725                           
  1726                           ; BSR set to: 0
  1727                           ;BootPIC18NonJ.c: 589: if(!ep1Bi.Stat.UOWN)
  1728  0452' 0104               	movlb	4	; () banked
  1729  0454' BF10               	btfsc	16,7,b	;volatile
  1730  0456' 0012               	return	
  1731                           
  1732                           ; BSR set to: 4
  1733                           ;BootPIC18NonJ.c: 590: {
  1734                           ;BootPIC18NonJ.c: 591: HIDTxReport((char *)&PacketToPC, 0x40);
  1735  0458' 0E00'              	movlw	low _PacketToPC
  1736  045A' 6E00'              	movwf	HIDTxReport@buffer,c
  1737  045C' 0E00'              	movlw	high _PacketToPC
  1738  045E' 6E01'              	movwf	HIDTxReport@buffer+1,c
  1739  0460' 0E40               	movlw	64
  1740  0462' 6E02'              	movwf	HIDTxReport@len,c
  1741  0464' EC00' F000'        	call	_HIDTxReport	;wreg free
  1742                           
  1743                           ;BootPIC18NonJ.c: 592: BootState = 0x00;
  1744  0468' 0E00               	movlw	0
  1745  046A' 6E38'              	movwf	_BootState,c
  1746                           
  1747                           ;BootPIC18NonJ.c: 593: }
  1748                           ;BootPIC18NonJ.c: 594: break;
  1749  046C' 0012               	return	
  1750  046E'                    l3311:
  1751                           
  1752                           ;BootPIC18NonJ.c: 596: ResetDeviceCleanly();
  1753  046E' EC00' F000'        	call	_ResetDeviceCleanly	;wreg free
  1754  0472'                    l3313:
  1755                           
  1756                           ;BootPIC18NonJ.c: 600: BootState = 0x00;
  1757  0472' 0E00               	movlw	0
  1758  0474' 6E38'              	movwf	_BootState,c
  1759                           
  1760                           ;BootPIC18NonJ.c: 601: }
  1761  0476' 0012               	return	
  1762  0478'                    l3315:
  1763  0478' 0100               	movlb	0	; () banked
  1764  047A' 5100'              	movf	_PacketFromPC& (0+255),w,b
  1765                           
  1766                           ; Switch size 1, requested type "space"
  1767                           ; Number of cases is 9, Range of values is 2 to 12
  1768                           ; switch strategies available:
  1769                           ; Name         Instructions Cycles
  1770                           ; simple_byte           28    15 (average)
  1771                           ;	Chosen strategy is simple_byte
  1772  047C' 0A02               	xorlw	2	; case 2
  1773  047E' B4D8               	btfsc	status,2,c
  1774  0480' D5E7               	goto	l90
  1775  0482' 0A01               	xorlw	1	; case 3
  1776  0484' B4D8               	btfsc	status,2,c
  1777  0486' D656               	goto	l3141
  1778  0488' 0A07               	xorlw	7	; case 4
  1779  048A' B4D8               	btfsc	status,2,c
  1780  048C' D65E               	goto	l3145
  1781  048E' 0A01               	xorlw	1	; case 5
  1782  0490' B4D8               	btfsc	status,2,c
  1783  0492' D69D               	goto	l3187
  1784  0494' 0A03               	xorlw	3	; case 6
  1785  0496' B4D8               	btfsc	status,2,c
  1786  0498' D70D               	goto	l3225
  1787  049A' 0A01               	xorlw	1	; case 7
  1788  049C' B4D8               	btfsc	status,2,c
  1789  049E' D713               	goto	l3231
  1790  04A0' 0A0F               	xorlw	15	; case 8
  1791  04A2' B4D8               	btfsc	status,2,c
  1792  04A4' D7E4               	goto	l3311
  1793  04A6' 0A01               	xorlw	1	; case 9
  1794  04A8' B4D8               	btfsc	status,2,c
  1795  04AA' D787               	goto	l3263
  1796  04AC' 0A05               	xorlw	5	; case 12
  1797  04AE' B4D8               	btfsc	status,2,c
  1798  04B0' D789               	goto	l3267
  1799  04B2' D7DF               	goto	l3313
  1800  04B4'                    __end_of_ProcessIO:
  1801                           	opt stack 0
  1802                           stkptr	equ	0xFFC
  1803                           tblptru	equ	0xFF8
  1804                           tblptrh	equ	0xFF7
  1805                           tblptrl	equ	0xFF6
  1806                           tablat	equ	0xFF5
  1807                           prodh	equ	0xFF4
  1808                           prodl	equ	0xFF3
  1809                           intcon	equ	0xFF2
  1810                           postinc0	equ	0xFEE
  1811                           wreg	equ	0xFE8
  1812                           indf1	equ	0xFE7
  1813                           fsr1h	equ	0xFE2
  1814                           fsr1l	equ	0xFE1
  1815                           indf2	equ	0xFDF
  1816                           fsr2h	equ	0xFDA
  1817                           fsr2l	equ	0xFD9
  1818                           status	equ	0xFD8
  1819                           
  1820 ;; *************** function _WriteFlashBlock *****************
  1821 ;; Defined at:
  1822 ;;		line 720 in file "../src/BootPIC18NonJ.c"
  1823 ;; Parameters:    Size  Location     Type
  1824 ;;		None
  1825 ;; Auto vars:     Size  Location     Type
  1826 ;;		None
  1827 ;; Return value:  Size  Location     Type
  1828 ;;                  1    wreg      void 
  1829 ;; Registers used:
  1830 ;;		wreg, fsr1l, fsr1h, fsr2l, fsr2h, status,2, status,0, prodl, prodh, cstack
  1831 ;; Tracked objects:
  1832 ;;		On entry : 0/0
  1833 ;;		On exit  : 0/0
  1834 ;;		Unchanged: 0/0
  1835 ;; Data sizes:     COMRAM   BANK0   BANK1   BANK2   BANK3  BANK4h   BANK5   BANK6   BANK7
  1836 ;;      Params:         0       0       0       0       0       0       0       0       0
  1837 ;;      Locals:         0       0       0       0       0       0       0       0       0
  1838 ;;      Temps:          8       0       0       0       0       0       0       0       0
  1839 ;;      Totals:         8       0       0       0       0       0       0       0       0
  1840 ;;Total ram usage:        8 bytes
  1841 ;; Hardware stack levels used:    1
  1842 ;; Hardware stack levels required when called:    1
  1843 ;; This function calls:
  1844 ;;		_UnlockAndActivate
  1845 ;; This function is called by:
  1846 ;;		_ProcessIO
  1847 ;; This function uses a non-reentrant model
  1848 ;;
  1849                           
  1850                           	psect	text4
  1851  0000'                    __ptext4:
  1852                           	opt stack 0
  1853  0000'                    _WriteFlashBlock:
  1854                           	opt stack 27
  1855                           
  1856                           ;BootPIC18NonJ.c: 722: static unsigned char i;
  1857                           ;BootPIC18NonJ.c: 723: static unsigned char BytesTakenFromBuffer;
  1858                           ;BootPIC18NonJ.c: 724: static unsigned char CorrectionFactor;
  1859                           ;BootPIC18NonJ.c: 727: static const uint8_t* pROM;
  1860                           ;BootPIC18NonJ.c: 729: pROM = (const uint8_t*)(ProgrammedPointer - BufferedDataIndex);
  1861                           
  1862                           ;incstack = 0
  1863  0000' C039' F001'        	movff	_BufferedDataIndex,??_WriteFlashBlock
  1864  0004' 6A00'              	clrf	(??_WriteFlashBlock+1)& (0+255),c
  1865  0006' 6A00'              	clrf	(??_WriteFlashBlock+2)& (0+255),c
  1866  0008' 6A00'              	clrf	(??_WriteFlashBlock+3)& (0+255),c
  1867  000A' 1E01'              	comf	??_WriteFlashBlock,f,c
  1868  000C' 1E02'              	comf	??_WriteFlashBlock+1,f,c
  1869  000E' 1E03'              	comf	??_WriteFlashBlock+2,f,c
  1870  0010' 1E04'              	comf	??_WriteFlashBlock+3,f,c
  1871  0012' 2A01'              	incf	??_WriteFlashBlock,f,c
  1872  0014' 0E00               	movlw	0
  1873  0016' 2202'              	addwfc	??_WriteFlashBlock+1,f,c
  1874  0018' 2203'              	addwfc	??_WriteFlashBlock+2,f,c
  1875  001A' 2204'              	addwfc	??_WriteFlashBlock+3,f,c
  1876  001C' 5008'              	movf	_ProgrammedPointer,w,c
  1877  001E' 2401'              	addwf	??_WriteFlashBlock,w,c
  1878  0020' 6E00'              	movwf	(??_WriteFlashBlock+4)& (0+255),c
  1879  0022' 5009'              	movf	_ProgrammedPointer+1,w,c
  1880  0024' 2002'              	addwfc	??_WriteFlashBlock+1,w,c
  1881  0026' 6E00'              	movwf	(??_WriteFlashBlock+5)& (0+255),c
  1882  0028' 500A'              	movf	_ProgrammedPointer+2,w,c
  1883  002A' 2003'              	addwfc	??_WriteFlashBlock+2,w,c
  1884  002C' 6E00'              	movwf	(??_WriteFlashBlock+6)& (0+255),c
  1885  002E' 500B'              	movf	_ProgrammedPointer+3,w,c
  1886  0030' 2004'              	addwfc	??_WriteFlashBlock+3,w,c
  1887  0032' 6E00'              	movwf	(??_WriteFlashBlock+7)& (0+255),c
  1888  0034' 5005'              	movf	??_WriteFlashBlock+4,w,c
  1889  0036' 6E16'              	movwf	WriteFlashBlock@pROM,c
  1890  0038' C006' F017'        	movff	??_WriteFlashBlock+5,WriteFlashBlock@pROM+1
  1891  003C' C007' F018'        	movff	??_WriteFlashBlock+6,WriteFlashBlock@pROM+2
  1892                           
  1893                           ;BootPIC18NonJ.c: 730: TBLPTRU = 0x00;
  1894  0040' 0E00               	movlw	0
  1895  0042' 6EF8               	movwf	tblptru,c	;volatile
  1896                           
  1897                           ;BootPIC18NonJ.c: 731: TBLPTRH = (uint8_t)((uint16_t)pROM >> 8);
  1898  0044' 5017'              	movf	WriteFlashBlock@pROM+1,w,c
  1899  0046' 6EF7               	movwf	tblptrh,c	;volatile
  1900                           
  1901                           ;BootPIC18NonJ.c: 732: TBLPTRL = (uint8_t)pROM;
  1902  0048' C016' FFF6         	movff	WriteFlashBlock@pROM,tblptrl	;volatile
  1903                           
  1904                           ;BootPIC18NonJ.c: 737: BytesTakenFromBuffer = 0;
  1905  004C' 0E00               	movlw	0
  1906  004E' 6E35'              	movwf	WriteFlashBlock@BytesTakenFromBuffer,c
  1907                           
  1908                           ;BootPIC18NonJ.c: 753: CorrectionFactor = (TBLPTRL & 0b00011111);
  1909  0050' 50F6               	movf	tblptrl,w,c	;volatile
  1910  0052' 0B1F               	andlw	31
  1911  0054' 6E36'              	movwf	WriteFlashBlock@CorrectionFactor,c
  1912                           
  1913                           ;BootPIC18NonJ.c: 754: TBLPTRL &= 0b11100000;
  1914  0056' 0EE0               	movlw	224
  1915  0058' 16F6               	andwf	tblptrl,f,c	;volatile
  1916                           
  1917                           ;BootPIC18NonJ.c: 765: for(i = 0; i < 0x20; i++)
  1918  005A' 0E00               	movlw	0
  1919  005C' 6E37'              	movwf	WriteFlashBlock@i,c
  1920  005E' 0E1F               	movlw	31
  1921  0060' 6437'              	cpfsgt	WriteFlashBlock@i,c
  1922  0062' D001               	goto	l3021
  1923  0064' D01C               	goto	l151
  1924  0066'                    l3021:
  1925                           
  1926                           ;BootPIC18NonJ.c: 766: {
  1927                           ;BootPIC18NonJ.c: 767: if(CorrectionFactor == 0)
  1928  0066' 5036'              	movf	WriteFlashBlock@CorrectionFactor,w,c
  1929  0068' A4D8               	btfss	status,2,c
  1930  006A' D014               	goto	l152
  1931                           
  1932                           ;BootPIC18NonJ.c: 768: {
  1933                           ;BootPIC18NonJ.c: 769: if(BufferedDataIndex != 0)
  1934  006C' 5039'              	movf	_BufferedDataIndex,w,c
  1935  006E' B4D8               	btfsc	status,2,c
  1936  0070' D00E               	goto	l153
  1937                           
  1938                           ;BootPIC18NonJ.c: 770: {
  1939                           ;BootPIC18NonJ.c: 771: TABLAT = ProgrammingBuffer[BytesTakenFromBuffer];
  1940  0072' 5035'              	movf	WriteFlashBlock@BytesTakenFromBuffer,w,c
  1941  0074' 0D01               	mullw	1
  1942  0076' 0E00'              	movlw	low _ProgrammingBuffer
  1943  0078' 24F3               	addwf	prodl,w,c
  1944  007A' 6ED9               	movwf	fsr2l,c
  1945  007C' 0E00'              	movlw	high _ProgrammingBuffer
  1946  007E' 20F4               	addwfc	prodh,w,c
  1947  0080' 6EDA               	movwf	fsr2h,c
  1948  0082' 50DF               	movf	indf2,w,c
  1949  0084' 6EF5               	movwf	tablat,c	;volatile
  1950  0086' 000D               	tblwt		*+	;# 
  1951                           
  1952                           ;BootPIC18NonJ.c: 780: BytesTakenFromBuffer++;
  1953  0088' 2A35'              	incf	WriteFlashBlock@BytesTakenFromBuffer,f,c
  1954                           
  1955                           ;BootPIC18NonJ.c: 781: BufferedDataIndex--;
  1956  008A' 0639'              	decf	_BufferedDataIndex,f,c
  1957                           
  1958                           ;BootPIC18NonJ.c: 782: }
  1959  008C' D006               	goto	l155
  1960  008E'                    l153:
  1961                           
  1962                           ;BootPIC18NonJ.c: 783: else
  1963                           ;BootPIC18NonJ.c: 784: {
  1964                           ;BootPIC18NonJ.c: 785: TABLAT = 0xFF;
  1965  008E' 68F5               	setf	tablat,c	;volatile
  1966  0090' 000D               	tblwt		*+	;# 
  1967                           
  1968                           ;BootPIC18NonJ.c: 795: }
  1969                           ;BootPIC18NonJ.c: 796: }
  1970  0092' D003               	goto	l155
  1971  0094'                    l152:
  1972                           
  1973                           ;BootPIC18NonJ.c: 797: else
  1974                           ;BootPIC18NonJ.c: 798: {
  1975                           ;BootPIC18NonJ.c: 799: TABLAT = 0xFF;
  1976  0094' 68F5               	setf	tablat,c	;volatile
  1977  0096' 000D               	tblwt		*+	;# 
  1978                           
  1979                           ;BootPIC18NonJ.c: 807: CorrectionFactor--;
  1980  0098' 0636'              	decf	WriteFlashBlock@CorrectionFactor,f,c
  1981  009A'                    l155:
  1982  009A' 2A37'              	incf	WriteFlashBlock@i,f,c
  1983  009C' D7E0               	goto	L1
  1984  009E'                    l151:
  1985  009E' 000A               	tblrd		*-	;# 
  1986                           
  1987                           ;BootPIC18NonJ.c: 820: EECON1 = 0b10100100;
  1988  00A0' 0EA4               	movlw	164
  1989  00A2' 6EA6               	movwf	4006,c	;volatile
  1990                           
  1991                           ;BootPIC18NonJ.c: 821: UnlockAndActivate(0xB5);
  1992  00A4' 0EB5               	movlw	181
  1993  00A6' EC00' F000'        	call	_UnlockAndActivate
  1994                           
  1995                           ;BootPIC18NonJ.c: 825: for(i = 0; i < BufferedDataIndex; i++)
  1996  00AA' 0E00               	movlw	0
  1997  00AC' 6E37'              	movwf	WriteFlashBlock@i,c
  1998  00AE' D018               	goto	l3045
  1999  00B0'                    l3041:
  2000                           
  2001                           ;BootPIC18NonJ.c: 826: {
  2002                           ;BootPIC18NonJ.c: 827: ProgrammingBuffer[i] = ProgrammingBuffer[BytesTakenFromBuffer+i];
  2003  00B0' 5037'              	movf	WriteFlashBlock@i,w,c
  2004  00B2' C035' F001'        	movff	WriteFlashBlock@BytesTakenFromBuffer,??_WriteFlashBlock
  2005  00B6' 6A00'              	clrf	(??_WriteFlashBlock+1)& (0+255),c
  2006  00B8' 2601'              	addwf	??_WriteFlashBlock,f,c
  2007  00BA' 0E00               	movlw	0
  2008  00BC' 2202'              	addwfc	??_WriteFlashBlock+1,f,c
  2009  00BE' 0E00'              	movlw	low _ProgrammingBuffer
  2010  00C0' 2401'              	addwf	??_WriteFlashBlock,w,c
  2011  00C2' 6ED9               	movwf	fsr2l,c
  2012  00C4' 0E00'              	movlw	high _ProgrammingBuffer
  2013  00C6' 2002'              	addwfc	??_WriteFlashBlock+1,w,c
  2014  00C8' 6EDA               	movwf	fsr2h,c
  2015  00CA' 5037'              	movf	WriteFlashBlock@i,w,c
  2016  00CC' 0D01               	mullw	1
  2017  00CE' 0E00'              	movlw	low _ProgrammingBuffer
  2018  00D0' 24F3               	addwf	prodl,w,c
  2019  00D2' 6EE1               	movwf	fsr1l,c
  2020  00D4' 0E00'              	movlw	high _ProgrammingBuffer
  2021  00D6' 20F4               	addwfc	prodh,w,c
  2022  00D8' 6EE2               	movwf	fsr1h,c
  2023  00DA' CFDF FFE7          	movff	indf2,indf1
  2024  00DE' 2A37'              	incf	WriteFlashBlock@i,f,c
  2025  00E0'                    l3045:
  2026  00E0' 5039'              	movf	_BufferedDataIndex,w,c
  2027  00E2' 5C37'              	subwf	WriteFlashBlock@i,w,c
  2028  00E4' B0D8               	btfsc	status,0,c
  2029  00E6' 0012               	return	
  2030  00E8' D7E3               	goto	l3041
  2031  00EA'                    __end_of_WriteFlashBlock:
  2032                           	opt stack 0
  2033                           stkptr	equ	0xFFC
  2034                           tblptru	equ	0xFF8
  2035                           tblptrh	equ	0xFF7
  2036                           tblptrl	equ	0xFF6
  2037                           tablat	equ	0xFF5
  2038                           prodh	equ	0xFF4
  2039                           prodl	equ	0xFF3
  2040                           intcon	equ	0xFF2
  2041                           postinc0	equ	0xFEE
  2042                           wreg	equ	0xFE8
  2043                           indf1	equ	0xFE7
  2044                           fsr1h	equ	0xFE2
  2045                           fsr1l	equ	0xFE1
  2046                           indf2	equ	0xFDF
  2047                           fsr2h	equ	0xFDA
  2048                           fsr2l	equ	0xFD9
  2049                           status	equ	0xFD8
  2050                           
  2051 ;; *************** function _WriteEEPROM *****************
  2052 ;; Defined at:
  2053 ;;		line 869 in file "../src/BootPIC18NonJ.c"
  2054 ;; Parameters:    Size  Location     Type
  2055 ;;		None
  2056 ;; Auto vars:     Size  Location     Type
  2057 ;;		None
  2058 ;; Return value:  Size  Location     Type
  2059 ;;                  1    wreg      void 
  2060 ;; Registers used:
  2061 ;;		wreg, fsr2l, fsr2h, status,2, status,0, cstack
  2062 ;; Tracked objects:
  2063 ;;		On entry : 0/0
  2064 ;;		On exit  : 0/0
  2065 ;;		Unchanged: 0/0
  2066 ;; Data sizes:     COMRAM   BANK0   BANK1   BANK2   BANK3  BANK4h   BANK5   BANK6   BANK7
  2067 ;;      Params:         0       0       0       0       0       0       0       0       0
  2068 ;;      Locals:         0       0       0       0       0       0       0       0       0
  2069 ;;      Temps:          4       0       0       0       0       0       0       0       0
  2070 ;;      Totals:         4       0       0       0       0       0       0       0       0
  2071 ;;Total ram usage:        4 bytes
  2072 ;; Hardware stack levels used:    1
  2073 ;; Hardware stack levels required when called:    1
  2074 ;; This function calls:
  2075 ;;		_UnlockAndActivate
  2076 ;; This function is called by:
  2077 ;;		_ProcessIO
  2078 ;; This function uses a non-reentrant model
  2079 ;;
  2080                           
  2081                           	psect	text5
  2082  0000'                    __ptext5:
  2083                           	opt stack 0
  2084  0000'                    _WriteEEPROM:
  2085                           	opt stack 27
  2086                           
  2087                           ;BootPIC18NonJ.c: 871: static unsigned char i;
  2088                           ;BootPIC18NonJ.c: 873: for(i = 0; i < PacketFromPC.Size; i++)
  2089                           
  2090                           ;incstack = 0
  2091  0000' 0E00               	movlw	0
  2092  0002' 6E34'              	movwf	WriteEEPROM@i,c
  2093  0004' D025               	goto	l3001
  2094  0006'                    l2991:
  2095                           
  2096                           ;BootPIC18NonJ.c: 874: {
  2097                           ;BootPIC18NonJ.c: 875: EEADR = (((unsigned char)PacketFromPC.Address) + i);
  2098  0006' 0100               	movlb	0	; () banked
  2099  0008' 5100'              	movf	(_PacketFromPC+1)& (0+255),w,b
  2100  000A' 2434'              	addwf	WriteEEPROM@i,w,c
  2101  000C' 6EA9               	movwf	4009,c	;volatile
  2102                           
  2103                           ; BSR set to: 0
  2104                           ;BootPIC18NonJ.c: 876: EEDATA = PacketFromPC.Data[i+(0x3A-PacketFromPC.Size)];
  2105  000E' 0100               	movlb	0	; () banked
  2106  0010' 5100'              	movf	(_PacketFromPC+5)& (0+255),w,b
  2107  0012' 6E00'              	movwf	??_WriteEEPROM& (0+255),c
  2108  0014' 6A00'              	clrf	(??_WriteEEPROM+1)& (0+255),c
  2109  0016' 1E01'              	comf	??_WriteEEPROM,f,c
  2110  0018' 1E02'              	comf	??_WriteEEPROM+1,f,c
  2111  001A' 4A01'              	infsnz	??_WriteEEPROM,f,c
  2112  001C' 2A02'              	incf	??_WriteEEPROM+1,f,c
  2113  001E' 5034'              	movf	WriteEEPROM@i,w,c
  2114  0020' 6E00'              	movwf	(??_WriteEEPROM+2)& (0+255),c
  2115  0022' 6A00'              	clrf	(??_WriteEEPROM+3)& (0+255),c
  2116  0024' 5001'              	movf	??_WriteEEPROM,w,c
  2117  0026' 2603'              	addwf	??_WriteEEPROM+2,f,c
  2118  0028' 5002'              	movf	??_WriteEEPROM+1,w,c
  2119  002A' 2204'              	addwfc	??_WriteEEPROM+3,f,c
  2120  002C' 0E40               	movlw	64
  2121  002E' 2603'              	addwf	??_WriteEEPROM+2,f,c
  2122  0030' 0E00               	movlw	0
  2123  0032' 2204'              	addwfc	??_WriteEEPROM+3,f,c
  2124  0034' 0E00'              	movlw	low _PacketFromPC
  2125  0036' 2403'              	addwf	??_WriteEEPROM+2,w,c
  2126  0038' 6ED9               	movwf	fsr2l,c
  2127  003A' 0E00'              	movlw	high _PacketFromPC
  2128  003C' 2004'              	addwfc	??_WriteEEPROM+3,w,c
  2129  003E' 6EDA               	movwf	fsr2h,c
  2130  0040' 50DF               	movf	indf2,w,c
  2131  0042' 6EA8               	movwf	4008,c	;volatile
  2132                           
  2133                           ; BSR set to: 0
  2134                           ;BootPIC18NonJ.c: 878: EECON1 = 0b00000100;
  2135  0044' 0E04               	movlw	4
  2136  0046' 6EA6               	movwf	4006,c	;volatile
  2137                           
  2138                           ; BSR set to: 0
  2139                           ;BootPIC18NonJ.c: 879: UnlockAndActivate(0xB5);
  2140  0048' 0EB5               	movlw	181
  2141  004A' EC00' F000'        	call	_UnlockAndActivate
  2142  004E' 2A34'              	incf	WriteEEPROM@i,f,c
  2143  0050'                    l3001:
  2144  0050' 0100               	movlb	0	; () banked
  2145  0052' 5100'              	movf	(_PacketFromPC+5)& (0+255),w,b
  2146  0054' 5C34'              	subwf	WriteEEPROM@i,w,c
  2147  0056' B0D8               	btfsc	status,0,c
  2148  0058' 0012               	return	
  2149  005A' D7D5               	goto	l2991
  2150  005C'                    __end_of_WriteEEPROM:
  2151                           	opt stack 0
  2152                           stkptr	equ	0xFFC
  2153                           tblptru	equ	0xFF8
  2154                           tblptrh	equ	0xFF7
  2155                           tblptrl	equ	0xFF6
  2156                           tablat	equ	0xFF5
  2157                           prodh	equ	0xFF4
  2158                           prodl	equ	0xFF3
  2159                           intcon	equ	0xFF2
  2160                           postinc0	equ	0xFEE
  2161                           wreg	equ	0xFE8
  2162                           indf1	equ	0xFE7
  2163                           fsr1h	equ	0xFE2
  2164                           fsr1l	equ	0xFE1
  2165                           indf2	equ	0xFDF
  2166                           fsr2h	equ	0xFDA
  2167                           fsr2l	equ	0xFD9
  2168                           status	equ	0xFD8
  2169                           
  2170 ;; *************** function _WriteConfigBits *****************
  2171 ;; Defined at:
  2172 ;;		line 832 in file "../src/BootPIC18NonJ.c"
  2173 ;; Parameters:    Size  Location     Type
  2174 ;;		None
  2175 ;; Auto vars:     Size  Location     Type
  2176 ;;		None
  2177 ;; Return value:  Size  Location     Type
  2178 ;;                  1    wreg      void 
  2179 ;; Registers used:
  2180 ;;		wreg, fsr2l, fsr2h, status,2, status,0, cstack
  2181 ;; Tracked objects:
  2182 ;;		On entry : 0/0
  2183 ;;		On exit  : 0/0
  2184 ;;		Unchanged: 0/0
  2185 ;; Data sizes:     COMRAM   BANK0   BANK1   BANK2   BANK3  BANK4h   BANK5   BANK6   BANK7
  2186 ;;      Params:         0       0       0       0       0       0       0       0       0
  2187 ;;      Locals:         0       0       0       0       0       0       0       0       0
  2188 ;;      Temps:          4       0       0       0       0       0       0       0       0
  2189 ;;      Totals:         4       0       0       0       0       0       0       0       0
  2190 ;;Total ram usage:        4 bytes
  2191 ;; Hardware stack levels used:    1
  2192 ;; Hardware stack levels required when called:    1
  2193 ;; This function calls:
  2194 ;;		_UnlockAndActivate
  2195 ;; This function is called by:
  2196 ;;		_ProcessIO
  2197 ;; This function uses a non-reentrant model
  2198 ;;
  2199                           
  2200                           	psect	text6
  2201  0000'                    __ptext6:
  2202                           	opt stack 0
  2203  0000'                    _WriteConfigBits:
  2204                           	opt stack 27
  2205                           
  2206                           ;BootPIC18NonJ.c: 834: static unsigned char i;
  2207                           ;BootPIC18NonJ.c: 837: TBLPTRU = 0x30;
  2208                           
  2209                           ; BSR set to: 0
  2210                           ;incstack = 0
  2211  0000' 0E30               	movlw	48
  2212  0002' 6EF8               	movwf	tblptru,c	;volatile
  2213                           
  2214                           ;BootPIC18NonJ.c: 838: TBLPTRH = (uint8_t)((uint16_t)PacketFromPC.Address >> 8);
  2215  0004' 0100               	movlb	0	; () banked
  2216  0006' 5100'              	movf	(_PacketFromPC+2)& (0+255),w,b
  2217  0008' 6EF7               	movwf	tblptrh,c	;volatile
  2218                           
  2219                           ; BSR set to: 0
  2220                           ;BootPIC18NonJ.c: 839: TBLPTRH = (uint8_t)(PacketFromPC.Address);
  2221  000A' C001' FFF7         	movff	_PacketFromPC+1,tblptrh	;volatile
  2222                           
  2223                           ;BootPIC18NonJ.c: 844: for(i = 0; i < PacketFromPC.Size; i++)
  2224  000E' 0E00               	movlw	0
  2225  0010' 6E33'              	movwf	WriteConfigBits@i,c
  2226  0012' D023               	goto	l2987
  2227  0014'                    l2979:
  2228                           
  2229                           ; BSR set to: 0
  2230                           ;BootPIC18NonJ.c: 845: {
  2231                           ;BootPIC18NonJ.c: 846: TABLAT = PacketFromPC.Data[i+(0x3A-PacketFromPC.Size)];
  2232  0014' 0100               	movlb	0	; () banked
  2233  0016' 5100'              	movf	(_PacketFromPC+5)& (0+255),w,b
  2234  0018' 6E00'              	movwf	??_WriteConfigBits& (0+255),c
  2235  001A' 6A00'              	clrf	(??_WriteConfigBits+1)& (0+255),c
  2236  001C' 1E01'              	comf	??_WriteConfigBits,f,c
  2237  001E' 1E02'              	comf	??_WriteConfigBits+1,f,c
  2238  0020' 4A01'              	infsnz	??_WriteConfigBits,f,c
  2239  0022' 2A02'              	incf	??_WriteConfigBits+1,f,c
  2240  0024' 5033'              	movf	WriteConfigBits@i,w,c
  2241  0026' 6E00'              	movwf	(??_WriteConfigBits+2)& (0+255),c
  2242  0028' 6A00'              	clrf	(??_WriteConfigBits+3)& (0+255),c
  2243  002A' 5001'              	movf	??_WriteConfigBits,w,c
  2244  002C' 2603'              	addwf	??_WriteConfigBits+2,f,c
  2245  002E' 5002'              	movf	??_WriteConfigBits+1,w,c
  2246  0030' 2204'              	addwfc	??_WriteConfigBits+3,f,c
  2247  0032' 0E40               	movlw	64
  2248  0034' 2603'              	addwf	??_WriteConfigBits+2,f,c
  2249  0036' 0E00               	movlw	0
  2250  0038' 2204'              	addwfc	??_WriteConfigBits+3,f,c
  2251  003A' 0E00'              	movlw	low _PacketFromPC
  2252  003C' 2403'              	addwf	??_WriteConfigBits+2,w,c
  2253  003E' 6ED9               	movwf	fsr2l,c
  2254  0040' 0E00'              	movlw	high _PacketFromPC
  2255  0042' 2004'              	addwfc	??_WriteConfigBits+3,w,c
  2256  0044' 6EDA               	movwf	fsr2h,c
  2257  0046' 50DF               	movf	indf2,w,c
  2258  0048' 6EF5               	movwf	tablat,c	;volatile
  2259  004A' 000C               	tblwt		*	;# 
  2260                           
  2261                           ;BootPIC18NonJ.c: 855: EECON1 = 0b11000100;
  2262  004C' 0EC4               	movlw	196
  2263  004E' 6EA6               	movwf	4006,c	;volatile
  2264                           
  2265                           ;BootPIC18NonJ.c: 856: UnlockAndActivate(0xB5);
  2266  0050' 0EB5               	movlw	181
  2267  0052' EC00' F000'        	call	_UnlockAndActivate
  2268  0056' 0009               	tblrd		*+	;# 
  2269  0058' 2A33'              	incf	WriteConfigBits@i,f,c
  2270  005A'                    l2987:
  2271  005A' 0100               	movlb	0	; () banked
  2272  005C' 5100'              	movf	(_PacketFromPC+5)& (0+255),w,b
  2273  005E' 5C33'              	subwf	WriteConfigBits@i,w,c
  2274  0060' B0D8               	btfsc	status,0,c
  2275  0062' 0012               	return	
  2276  0064' D7D7               	goto	l2979
  2277  0066'                    __end_of_WriteConfigBits:
  2278                           	opt stack 0
  2279                           stkptr	equ	0xFFC
  2280                           tblptru	equ	0xFF8
  2281                           tblptrh	equ	0xFF7
  2282                           tblptrl	equ	0xFF6
  2283                           tablat	equ	0xFF5
  2284                           prodh	equ	0xFF4
  2285                           prodl	equ	0xFF3
  2286                           intcon	equ	0xFF2
  2287                           postinc0	equ	0xFEE
  2288                           wreg	equ	0xFE8
  2289                           indf1	equ	0xFE7
  2290                           fsr1h	equ	0xFE2
  2291                           fsr1l	equ	0xFE1
  2292                           indf2	equ	0xFDF
  2293                           fsr2h	equ	0xFDA
  2294                           fsr2l	equ	0xFD9
  2295                           status	equ	0xFD8
  2296                           
  2297 ;; *************** function _USBDeviceTasks *****************
  2298 ;; Defined at:
  2299 ;;		line 472 in file "../src/usb_device.c"
  2300 ;; Parameters:    Size  Location     Type
  2301 ;;		None
  2302 ;; Auto vars:     Size  Location     Type
  2303 ;;		None
  2304 ;; Return value:  Size  Location     Type
  2305 ;;                  1    wreg      void 
  2306 ;; Registers used:
  2307 ;;		wreg, fsr1l, fsr1h, fsr2l, fsr2h, status,2, status,0, tblptrl, tblptrh, tblptru, prodl, prodh, cstack
  2308 ;; Tracked objects:
  2309 ;;		On entry : 0/0
  2310 ;;		On exit  : 0/0
  2311 ;;		Unchanged: 0/0
  2312 ;; Data sizes:     COMRAM   BANK0   BANK1   BANK2   BANK3  BANK4h   BANK5   BANK6   BANK7
  2313 ;;      Params:         0       0       0       0       0       0       0       0       0
  2314 ;;      Locals:         0       0       0       0       0       0       0       0       0
  2315 ;;      Temps:          2       0       0       0       0       0       0       0       0
  2316 ;;      Totals:         2       0       0       0       0       0       0       0       0
  2317 ;;Total ram usage:        2 bytes
  2318 ;; Hardware stack levels used:    1
  2319 ;; Hardware stack levels required when called:    5
  2320 ;; This function calls:
  2321 ;;		_USBCheckBusStatus
  2322 ;;		_USBCtrlTrfInHandler
  2323 ;;		_USBCtrlTrfSetupHandler
  2324 ;;		_USBProtocolResetHandler
  2325 ;;		_USBSuspend
  2326 ;;		_USBWakeFromSuspend
  2327 ;; This function is called by:
  2328 ;;		_ProcessIO
  2329 ;;		_BootMain
  2330 ;; This function uses a non-reentrant model
  2331 ;;
  2332                           
  2333                           	psect	text7
  2334  0000'                    __ptext7:
  2335                           	opt stack 0
  2336  0000'                    _USBDeviceTasks:
  2337                           	opt stack 24
  2338                           
  2339                           ;usb_device.c: 474: static volatile BDT* pBDTEntry;
  2340                           ;usb_device.c: 475: static uint8_t i;
  2341                           ;usb_device.c: 478: USBCheckBusStatus();
  2342                           
  2343                           ; BSR set to: 0
  2344                           ;incstack = 0
  2345  0000' EC00' F000'        	call	_USBCheckBusStatus	;wreg free
  2346                           
  2347                           ;usb_device.c: 483: if(usb_device_state == 0) return;
  2348  0004' 5043'              	movf	_usb_device_state,w,c
  2349  0006' B4D8               	btfsc	status,2,c
  2350  0008' 0012               	return	
  2351                           
  2352                           ;usb_device.c: 489: if(UIRbits.ACTVIF) USBWakeFromSuspend();
  2353  000A' B465               	btfsc	3941,2,c	;volatile
  2354  000C' EC00' F000'        	call	_USBWakeFromSuspend	;wreg free
  2355                           
  2356                           ;usb_device.c: 494: if(UCONbits.SUSPND == 1) return;
  2357  0010' B260               	btfsc	3936,1,c	;volatile
  2358  0012' 0012               	return	
  2359                           
  2360                           ;usb_device.c: 502: if(UIRbits.URSTIF) USBProtocolResetHandler();
  2361  0014' B065               	btfsc	3941,0,c	;volatile
  2362  0016' EC00' F000'        	call	_USBProtocolResetHandler	;wreg free
  2363                           
  2364                           ;usb_device.c: 507: if(UIRbits.IDLEIF) USBSuspend();
  2365  001A' B865               	btfsc	3941,4,c	;volatile
  2366  001C' EC00' F000'        	call	_USBSuspend	;wreg free
  2367                           
  2368                           ;usb_device.c: 524: if(usb_device_state < 3) return;
  2369  0020' 0E03               	movlw	3
  2370  0022' 6043'              	cpfslt	_usb_device_state,c
  2371  0024' D001               	goto	l2929
  2372  0026' 0012               	return	
  2373  0028'                    l2929:
  2374                           
  2375                           ;usb_device.c: 529: for(bTRNIFCount = 0; bTRNIFCount < 4; bTRNIFCount++)
  2376  0028' 0E00               	movlw	0
  2377  002A' 6E3E'              	movwf	_bTRNIFCount,c
  2378  002C'                    l2931:
  2379  002C' 0E03               	movlw	3
  2380  002E' 643E'              	cpfsgt	_bTRNIFCount,c
  2381  0030' D001               	goto	l480
  2382  0032' 0012               	return	
  2383  0034'                    l480:
  2384                           
  2385                           ;usb_device.c: 530: {
  2386                           ;usb_device.c: 531: if(UIRbits.TRNIF)
  2387  0034' A665               	btfss	3941,3,c	;volatile
  2388  0036' 0012               	return	
  2389                           
  2390                           ;usb_device.c: 532: {
  2391                           ;usb_device.c: 534: USTATSave = USTAT;
  2392  0038' CF61 F03D'         	movff	3937,_USTATSave	;volatile
  2393                           
  2394                           ;usb_device.c: 535: if((USTAT & 0x7C) == ((0x00<<3)|(0<<2)))
  2395  003C' CF61 F004'         	movff	3937,??_USBDeviceTasks	;volatile
  2396  0040' 0E7C               	movlw	124
  2397  0042' 1604'              	andwf	??_USBDeviceTasks,f,c
  2398  0044' A4D8               	btfss	status,2,c
  2399  0046' D03F               	goto	l2965
  2400                           
  2401                           ;usb_device.c: 536: {
  2402                           ;usb_device.c: 538: if(USTATbits.PPBI == 0)
  2403  0048' B261               	btfsc	3937,1,c	;volatile
  2404  004A' D002               	goto	l2943
  2405                           
  2406                           ;usb_device.c: 539: {
  2407                           ;usb_device.c: 541: pBDTEntry = &ep0BoEven;
  2408  004C' 0E00               	movlw	0
  2409  004E' D001               	goto	L2
  2410  0050'                    l2943:
  2411                           
  2412                           ;usb_device.c: 543: else
  2413                           ;usb_device.c: 544: {
  2414                           ;usb_device.c: 546: pBDTEntry = &ep0BoOdd;
  2415  0050' 0E04               	movlw	4
  2416  0052'                    L2:
  2417  0052' 6E23'              	movwf	USBDeviceTasks@pBDTEntry,c
  2418  0054' 0E04               	movlw	4
  2419  0056' 6E24'              	movwf	USBDeviceTasks@pBDTEntry+1,c
  2420                           
  2421                           ;usb_device.c: 547: }
  2422                           ;usb_device.c: 550: UIRbits.TRNIF = 0;
  2423  0058' 9665               	bcf	3941,3,c	;volatile
  2424                           
  2425                           ;usb_device.c: 553: if(pBDTEntry->Stat.PID == 0b00001101)
  2426  005A' C023' FFD9         	movff	USBDeviceTasks@pBDTEntry,fsr2l
  2427  005E' C024' FFDA         	movff	USBDeviceTasks@pBDTEntry+1,fsr2h
  2428  0062' 30DF               	rrcf	indf2,w,c
  2429  0064' 32E8               	rrcf	wreg,f,c
  2430  0066' 0B0F               	andlw	15
  2431  0068' 0A0D               	xorlw	13
  2432  006A' A4D8               	btfss	status,2,c
  2433  006C' D035               	goto	l2971
  2434                           
  2435                           ;usb_device.c: 554: {
  2436                           ;usb_device.c: 557: for(i = 0; i < sizeof(CTRL_TRF_SETUP); i++)
  2437  006E' 0E00               	movlw	0
  2438  0070' 6E30'              	movwf	USBDeviceTasks@i,c
  2439  0072'                    l2951:
  2440  0072' 0E07               	movlw	7
  2441  0074' 6430'              	cpfsgt	USBDeviceTasks@i,c
  2442  0076' D001               	goto	l2955
  2443  0078' D023               	goto	l2963
  2444  007A'                    l2955:
  2445                           
  2446                           ;usb_device.c: 558: {
  2447                           ;usb_device.c: 559: SetupPkt._byte[i] = *pBDTEntry->ADR++;
  2448  007A' EE20 F002          	lfsr	2,2
  2449  007E' 5023'              	movf	USBDeviceTasks@pBDTEntry,w,c
  2450  0080' 26D9               	addwf	fsr2l,f,c
  2451  0082' 5024'              	movf	USBDeviceTasks@pBDTEntry+1,w,c
  2452  0084' 22DA               	addwfc	fsr2h,f,c
  2453  0086' CFDE F004'         	movff	postinc2,??_USBDeviceTasks
  2454  008A' CFDD F005'         	movff	postdec2,??_USBDeviceTasks+1
  2455  008E' C004' FFD9         	movff	??_USBDeviceTasks,fsr2l
  2456  0092' C005' FFDA         	movff	??_USBDeviceTasks+1,fsr2h
  2457  0096' 5030'              	movf	USBDeviceTasks@i,w,c
  2458  0098' 0D01               	mullw	1
  2459  009A' 0E00'              	movlw	low _SetupPkt
  2460  009C' 24F3               	addwf	prodl,w,c
  2461  009E' 6EE1               	movwf	fsr1l,c
  2462  00A0' 0E00'              	movlw	high _SetupPkt
  2463  00A2' 20F4               	addwfc	prodh,w,c
  2464  00A4' 6EE2               	movwf	fsr1h,c
  2465  00A6' CFDF FFE7          	movff	indf2,indf1
  2466  00AA' EE20 F002          	lfsr	2,2
  2467  00AE' 5023'              	movf	USBDeviceTasks@pBDTEntry,w,c
  2468  00B0' 26D9               	addwf	fsr2l,f,c
  2469  00B2' 5024'              	movf	USBDeviceTasks@pBDTEntry+1,w,c
  2470  00B4' 22DA               	addwfc	fsr2h,f,c
  2471  00B6' 2ADE               	incf	postinc2,f,c
  2472  00B8' 0E00               	movlw	0
  2473  00BA' 22DD               	addwfc	postdec2,f,c
  2474  00BC' 2A30'              	incf	USBDeviceTasks@i,f,c
  2475  00BE' D7D9               	goto	l2951
  2476  00C0'                    l2963:
  2477                           
  2478                           ;usb_device.c: 560: }
  2479                           ;usb_device.c: 564: USBCtrlTrfSetupHandler();
  2480  00C0' EC00' F000'        	call	_USBCtrlTrfSetupHandler	;wreg free
  2481                           
  2482                           ;usb_device.c: 570: }
  2483                           ;usb_device.c: 571: }
  2484                           
  2485                           ;usb_device.c: 566: else
  2486                           ;usb_device.c: 567: {
  2487                           ;usb_device.c: 569: ;
  2488                           
  2489                           ;usb_device.c: 565: }
  2490  00C4' D009               	goto	l2971
  2491  00C6'                    l2965:
  2492                           
  2493                           ;usb_device.c: 572: else if(USTAT == ((0x00<<3)|(1<<2)))
  2494  00C6' 0E04               	movlw	4
  2495  00C8' 1861               	xorwf	3937,w,c	;volatile
  2496  00CA' A4D8               	btfss	status,2,c
  2497  00CC' D004               	goto	l491
  2498                           
  2499                           ;usb_device.c: 573: {
  2500                           ;usb_device.c: 575: UIRbits.TRNIF = 0;
  2501  00CE' 9665               	bcf	3941,3,c	;volatile
  2502                           
  2503                           ;usb_device.c: 576: USBCtrlTrfInHandler();
  2504  00D0' EC00' F000'        	call	_USBCtrlTrfInHandler	;wreg free
  2505                           
  2506                           ;usb_device.c: 577: }
  2507  00D4' D001               	goto	l2971
  2508  00D6'                    l491:
  2509                           
  2510                           ;usb_device.c: 578: else
  2511                           ;usb_device.c: 579: {
  2512                           ;usb_device.c: 584: UIRbits.TRNIF = 0;
  2513  00D6' 9665               	bcf	3941,3,c	;volatile
  2514  00D8'                    l2971:
  2515  00D8' 2A3E'              	incf	_bTRNIFCount,f,c
  2516  00DA' D7A8               	goto	l2931
  2517  00DC'                    __end_of_USBDeviceTasks:
  2518                           	opt stack 0
  2519                           stkptr	equ	0xFFC
  2520                           tblptru	equ	0xFF8
  2521                           tblptrh	equ	0xFF7
  2522                           tblptrl	equ	0xFF6
  2523                           tablat	equ	0xFF5
  2524                           prodh	equ	0xFF4
  2525                           prodl	equ	0xFF3
  2526                           intcon	equ	0xFF2
  2527                           postinc0	equ	0xFEE
  2528                           wreg	equ	0xFE8
  2529                           indf1	equ	0xFE7
  2530                           fsr1h	equ	0xFE2
  2531                           fsr1l	equ	0xFE1
  2532                           indf2	equ	0xFDF
  2533                           postinc2	equ	0xFDE
  2534                           postdec2	equ	0xFDD
  2535                           fsr2h	equ	0xFDA
  2536                           fsr2l	equ	0xFD9
  2537                           status	equ	0xFD8
  2538                           
  2539 ;; *************** function _USBWakeFromSuspend *****************
  2540 ;; Defined at:
  2541 ;;		line 710 in file "../src/usb_device.c"
  2542 ;; Parameters:    Size  Location     Type
  2543 ;;		None
  2544 ;; Auto vars:     Size  Location     Type
  2545 ;;		None
  2546 ;; Return value:  Size  Location     Type
  2547 ;;                  1    wreg      void 
  2548 ;; Registers used:
  2549 ;;		wreg, status,2, status,0, cstack
  2550 ;; Tracked objects:
  2551 ;;		On entry : 0/0
  2552 ;;		On exit  : 0/0
  2553 ;;		Unchanged: 0/0
  2554 ;; Data sizes:     COMRAM   BANK0   BANK1   BANK2   BANK3  BANK4h   BANK5   BANK6   BANK7
  2555 ;;      Params:         0       0       0       0       0       0       0       0       0
  2556 ;;      Locals:         0       0       0       0       0       0       0       0       0
  2557 ;;      Temps:          0       0       0       0       0       0       0       0       0
  2558 ;;      Totals:         0       0       0       0       0       0       0       0       0
  2559 ;;Total ram usage:        0 bytes
  2560 ;; Hardware stack levels used:    1
  2561 ;; Hardware stack levels required when called:    3
  2562 ;; This function calls:
  2563 ;;		_USBCBWakeFromSuspend
  2564 ;; This function is called by:
  2565 ;;		_USBDeviceTasks
  2566 ;; This function uses a non-reentrant model
  2567 ;;
  2568                           
  2569                           	psect	text8
  2570  0000'                    __ptext8:
  2571                           	opt stack 0
  2572  0000'                    _USBWakeFromSuspend:
  2573                           	opt stack 25
  2574                           
  2575                           ;usb_device.c: 715: USBCBWakeFromSuspend();
  2576                           
  2577                           ;incstack = 0
  2578  0000' EC00' F000'        	call	_USBCBWakeFromSuspend	;wreg free
  2579                           
  2580                           ;usb_device.c: 718: UCONbits.SUSPND = 0;
  2581  0004' 9260               	bcf	3936,1,c	;volatile
  2582                           
  2583                           ;usb_device.c: 719: UIEbits.ACTVIE = 0;
  2584  0006' 9464               	bcf	3940,2,c	;volatile
  2585                           
  2586                           ;usb_device.c: 720: while(UIRbits.ACTVIF){UIRbits.ACTVIF = 0;}
  2587  0008' D001               	goto	l501
  2588  000A'                    l502:
  2589  000A' 9465               	bcf	3941,2,c	;volatile
  2590  000C'                    l501:
  2591  000C' A465               	btfss	3941,2,c	;volatile
  2592  000E' 0012               	return	
  2593  0010' D7FC               	goto	l502
  2594  0012'                    __end_of_USBWakeFromSuspend:
  2595                           	opt stack 0
  2596                           stkptr	equ	0xFFC
  2597                           tblptru	equ	0xFF8
  2598                           tblptrh	equ	0xFF7
  2599                           tblptrl	equ	0xFF6
  2600                           tablat	equ	0xFF5
  2601                           prodh	equ	0xFF4
  2602                           prodl	equ	0xFF3
  2603                           intcon	equ	0xFF2
  2604                           postinc0	equ	0xFEE
  2605                           wreg	equ	0xFE8
  2606                           indf1	equ	0xFE7
  2607                           fsr1h	equ	0xFE2
  2608                           fsr1l	equ	0xFE1
  2609                           indf2	equ	0xFDF
  2610                           postinc2	equ	0xFDE
  2611                           postdec2	equ	0xFDD
  2612                           fsr2h	equ	0xFDA
  2613                           fsr2l	equ	0xFD9
  2614                           status	equ	0xFD8
  2615                           
  2616 ;; *************** function _USBCBWakeFromSuspend *****************
  2617 ;; Defined at:
  2618 ;;		line 562 in file "../src/main.c"
  2619 ;; Parameters:    Size  Location     Type
  2620 ;;		None
  2621 ;; Auto vars:     Size  Location     Type
  2622 ;;		None
  2623 ;; Return value:  Size  Location     Type
  2624 ;;                  1    wreg      void 
  2625 ;; Registers used:
  2626 ;;		wreg, status,2, status,0, cstack
  2627 ;; Tracked objects:
  2628 ;;		On entry : 0/0
  2629 ;;		On exit  : 0/0
  2630 ;;		Unchanged: 0/0
  2631 ;; Data sizes:     COMRAM   BANK0   BANK1   BANK2   BANK3  BANK4h   BANK5   BANK6   BANK7
  2632 ;;      Params:         0       0       0       0       0       0       0       0       0
  2633 ;;      Locals:         0       0       0       0       0       0       0       0       0
  2634 ;;      Temps:          0       0       0       0       0       0       0       0       0
  2635 ;;      Totals:         0       0       0       0       0       0       0       0       0
  2636 ;;Total ram usage:        0 bytes
  2637 ;; Hardware stack levels used:    1
  2638 ;; Hardware stack levels required when called:    2
  2639 ;; This function calls:
  2640 ;;		_DelayRoutine
  2641 ;; This function is called by:
  2642 ;;		_USBWakeFromSuspend
  2643 ;; This function uses a non-reentrant model
  2644 ;;
  2645                           
  2646                           	psect	text9
  2647  0000'                    __ptext9:
  2648                           	opt stack 0
  2649  0000'                    _USBCBWakeFromSuspend:
  2650                           	opt stack 25
  2651                           
  2652                           ;main.c: 568: DelayRoutine(0x300);
  2653                           
  2654                           ;incstack = 0
  2655  0000' 0E03               	movlw	3
  2656  0002' 6E01'              	movwf	DelayRoutine@DelayAmount+1,c
  2657  0004' 0E00               	movlw	0
  2658  0006' 6E00'              	movwf	DelayRoutine@DelayAmount,c
  2659  0008' EC00' F000'        	call	_DelayRoutine	;wreg free
  2660  000C' 0012               	return		;funcret
  2661  000E'                    __end_of_USBCBWakeFromSuspend:
  2662                           	opt stack 0
  2663                           stkptr	equ	0xFFC
  2664                           tblptru	equ	0xFF8
  2665                           tblptrh	equ	0xFF7
  2666                           tblptrl	equ	0xFF6
  2667                           tablat	equ	0xFF5
  2668                           prodh	equ	0xFF4
  2669                           prodl	equ	0xFF3
  2670                           intcon	equ	0xFF2
  2671                           postinc0	equ	0xFEE
  2672                           wreg	equ	0xFE8
  2673                           indf1	equ	0xFE7
  2674                           fsr1h	equ	0xFE2
  2675                           fsr1l	equ	0xFE1
  2676                           indf2	equ	0xFDF
  2677                           postinc2	equ	0xFDE
  2678                           postdec2	equ	0xFDD
  2679                           fsr2h	equ	0xFDA
  2680                           fsr2l	equ	0xFD9
  2681                           status	equ	0xFD8
  2682                           
  2683 ;; *************** function _USBSuspend *****************
  2684 ;; Defined at:
  2685 ;;		line 618 in file "../src/usb_device.c"
  2686 ;; Parameters:    Size  Location     Type
  2687 ;;		None
  2688 ;; Auto vars:     Size  Location     Type
  2689 ;;		None
  2690 ;; Return value:  Size  Location     Type
  2691 ;;                  1    wreg      void 
  2692 ;; Registers used:
  2693 ;;		wreg, status,2, status,0, cstack
  2694 ;; Tracked objects:
  2695 ;;		On entry : 0/0
  2696 ;;		On exit  : 0/0
  2697 ;;		Unchanged: 0/0
  2698 ;; Data sizes:     COMRAM   BANK0   BANK1   BANK2   BANK3  BANK4h   BANK5   BANK6   BANK7
  2699 ;;      Params:         0       0       0       0       0       0       0       0       0
  2700 ;;      Locals:         0       0       0       0       0       0       0       0       0
  2701 ;;      Temps:          0       0       0       0       0       0       0       0       0
  2702 ;;      Totals:         0       0       0       0       0       0       0       0       0
  2703 ;;Total ram usage:        0 bytes
  2704 ;; Hardware stack levels used:    1
  2705 ;; Hardware stack levels required when called:    1
  2706 ;; This function calls:
  2707 ;;		_USBCBSuspend
  2708 ;; This function is called by:
  2709 ;;		_USBDeviceTasks
  2710 ;; This function uses a non-reentrant model
  2711 ;;
  2712                           
  2713                           	psect	text10
  2714  0000'                    __ptext10:
  2715                           	opt stack 0
  2716  0000'                    _USBSuspend:
  2717                           	opt stack 27
  2718                           
  2719                           ;usb_device.c: 620: static unsigned char UIESave;
  2720                           ;usb_device.c: 655: UIESave = UIE;
  2721                           
  2722                           ;incstack = 0
  2723  0000' CF64 F032'         	movff	3940,USBSuspend@UIESave	;volatile
  2724                           
  2725                           ;usb_device.c: 656: UIE = 0b00000100;
  2726  0004' 0E04               	movlw	4
  2727  0006' 6E64               	movwf	3940,c	;volatile
  2728                           
  2729                           ;usb_device.c: 660: UIRbits.IDLEIF = 0;
  2730  0008' 9865               	bcf	3941,4,c	;volatile
  2731                           
  2732                           ;usb_device.c: 661: UCONbits.SUSPND = 1;
  2733  000A' 8260               	bsf	3936,1,c	;volatile
  2734                           
  2735                           ;usb_device.c: 668: PIR3bits.USBIF = 0;
  2736  000C' 94A4               	bcf	4004,2,c	;volatile
  2737                           
  2738                           ;usb_device.c: 672: PIE3bits.USBIE = 1;
  2739  000E' 84A3               	bsf	4003,2,c	;volatile
  2740                           
  2741                           ;usb_device.c: 681: USBCBSuspend();
  2742  0010' EC00' F000'        	call	_USBCBSuspend	;wreg free
  2743                           
  2744                           ;usb_device.c: 688: PIE3bits.USBIE = 0;
  2745  0014' 94A3               	bcf	4003,2,c	;volatile
  2746                           
  2747                           ;usb_device.c: 689: UIE |= UIESave;
  2748  0016' 5032'              	movf	USBSuspend@UIESave,w,c
  2749  0018' 1264               	iorwf	3940,f,c	;volatile
  2750  001A' 0012               	return		;funcret
  2751  001C'                    __end_of_USBSuspend:
  2752                           	opt stack 0
  2753                           stkptr	equ	0xFFC
  2754                           tblptru	equ	0xFF8
  2755                           tblptrh	equ	0xFF7
  2756                           tblptrl	equ	0xFF6
  2757                           tablat	equ	0xFF5
  2758                           prodh	equ	0xFF4
  2759                           prodl	equ	0xFF3
  2760                           intcon	equ	0xFF2
  2761                           postinc0	equ	0xFEE
  2762                           wreg	equ	0xFE8
  2763                           indf1	equ	0xFE7
  2764                           fsr1h	equ	0xFE2
  2765                           fsr1l	equ	0xFE1
  2766                           indf2	equ	0xFDF
  2767                           postinc2	equ	0xFDE
  2768                           postdec2	equ	0xFDD
  2769                           fsr2h	equ	0xFDA
  2770                           fsr2l	equ	0xFD9
  2771                           status	equ	0xFD8
  2772                           
  2773 ;; *************** function _USBCBSuspend *****************
  2774 ;; Defined at:
  2775 ;;		line 596 in file "../src/main.c"
  2776 ;; Parameters:    Size  Location     Type
  2777 ;;		None
  2778 ;; Auto vars:     Size  Location     Type
  2779 ;;		None
  2780 ;; Return value:  Size  Location     Type
  2781 ;;                  1    wreg      void 
  2782 ;; Registers used:
  2783 ;;		None
  2784 ;; Tracked objects:
  2785 ;;		On entry : 0/0
  2786 ;;		On exit  : 0/0
  2787 ;;		Unchanged: 0/0
  2788 ;; Data sizes:     COMRAM   BANK0   BANK1   BANK2   BANK3  BANK4h   BANK5   BANK6   BANK7
  2789 ;;      Params:         0       0       0       0       0       0       0       0       0
  2790 ;;      Locals:         0       0       0       0       0       0       0       0       0
  2791 ;;      Temps:          0       0       0       0       0       0       0       0       0
  2792 ;;      Totals:         0       0       0       0       0       0       0       0       0
  2793 ;;Total ram usage:        0 bytes
  2794 ;; Hardware stack levels used:    1
  2795 ;; This function calls:
  2796 ;;		Nothing
  2797 ;; This function is called by:
  2798 ;;		_USBSuspend
  2799 ;; This function uses a non-reentrant model
  2800 ;;
  2801                           
  2802                           	psect	text11
  2803  0000'                    __ptext11:
  2804                           	opt stack 0
  2805  0000'                    _USBCBSuspend:
  2806                           	opt stack 27
  2807  0000'                    l281:
  2808  0000' 0003               	sleep		;# 
  2809  0002' B4A4               	btfsc	4004,2,c	;volatile
  2810  0004' 0012               	return	
  2811  0006' B6D0               	btfsc	4048,3,c	;volatile
  2812  0008' 0012               	return	
  2813  000A' D7FA               	goto	l281
  2814  000C'                    __end_of_USBCBSuspend:
  2815                           	opt stack 0
  2816                           stkptr	equ	0xFFC
  2817                           tblptru	equ	0xFF8
  2818                           tblptrh	equ	0xFF7
  2819                           tblptrl	equ	0xFF6
  2820                           tablat	equ	0xFF5
  2821                           prodh	equ	0xFF4
  2822                           prodl	equ	0xFF3
  2823                           intcon	equ	0xFF2
  2824                           postinc0	equ	0xFEE
  2825                           wreg	equ	0xFE8
  2826                           indf1	equ	0xFE7
  2827                           fsr1h	equ	0xFE2
  2828                           fsr1l	equ	0xFE1
  2829                           indf2	equ	0xFDF
  2830                           postinc2	equ	0xFDE
  2831                           postdec2	equ	0xFDD
  2832                           fsr2h	equ	0xFDA
  2833                           fsr2l	equ	0xFD9
  2834                           status	equ	0xFD8
  2835                           
  2836 ;; *************** function _USBCtrlTrfSetupHandler *****************
  2837 ;; Defined at:
  2838 ;;		line 821 in file "../src/usb_device.c"
  2839 ;; Parameters:    Size  Location     Type
  2840 ;;		None
  2841 ;; Auto vars:     Size  Location     Type
  2842 ;;		None
  2843 ;; Return value:  Size  Location     Type
  2844 ;;                  1    wreg      void 
  2845 ;; Registers used:
  2846 ;;		wreg, fsr1l, fsr1h, fsr2l, fsr2h, status,2, status,0, tblptrl, tblptrh, tblptru, prodl, prodh, cstack
  2847 ;; Tracked objects:
  2848 ;;		On entry : 0/0
  2849 ;;		On exit  : 0/0
  2850 ;;		Unchanged: 0/0
  2851 ;; Data sizes:     COMRAM   BANK0   BANK1   BANK2   BANK3  BANK4h   BANK5   BANK6   BANK7
  2852 ;;      Params:         0       0       0       0       0       0       0       0       0
  2853 ;;      Locals:         0       0       0       0       0       0       0       0       0
  2854 ;;      Temps:          0       0       0       0       0       0       0       0       0
  2855 ;;      Totals:         0       0       0       0       0       0       0       0       0
  2856 ;;Total ram usage:        0 bytes
  2857 ;; Hardware stack levels used:    1
  2858 ;; Hardware stack levels required when called:    4
  2859 ;; This function calls:
  2860 ;;		_USBCBCheckOtherReq
  2861 ;;		_USBCheckStdRequest
  2862 ;;		_USBCtrlEPServiceComplete
  2863 ;; This function is called by:
  2864 ;;		_USBDeviceTasks
  2865 ;; This function uses a non-reentrant model
  2866 ;;
  2867                           
  2868                           	psect	text12
  2869  0000'                    __ptext12:
  2870                           	opt stack 0
  2871  0000'                    _USBCtrlTrfSetupHandler:
  2872                           	opt stack 24
  2873                           
  2874                           ;usb_device.c: 828: ep0Bi.Stat._byte = 0x00;
  2875                           
  2876                           ;incstack = 0
  2877  0000' 0E00               	movlw	0
  2878  0002' 0104               	movlb	4	; () banked
  2879  0004' 6F08               	movwf	8,b	;volatile
  2880                           
  2881                           ;usb_device.c: 829: short_pkt_status = 0;
  2882  0006' 0E00               	movlw	0
  2883  0008' 6E42'              	movwf	_short_pkt_status,c
  2884                           
  2885                           ; BSR set to: 4
  2886                           ;usb_device.c: 834: if(ep0BoEven.Stat.UOWN == 1)
  2887  000A' 0104               	movlb	4	; () banked
  2888  000C' AF00               	btfss	0,7,b	;volatile
  2889  000E' D005               	goto	l2825
  2890                           
  2891                           ; BSR set to: 4
  2892                           ;usb_device.c: 835: {
  2893                           ;usb_device.c: 836: ep0BoEven.Stat._byte = 0x00;
  2894  0010' 0E00               	movlw	0
  2895  0012' 0104               	movlb	4	; () banked
  2896  0014' 6F00               	movwf	0,b	;volatile
  2897                           
  2898                           ;usb_device.c: 837: EP0OutOddNeedsArmingNext = 0;
  2899  0016' 0E00               	movlw	0
  2900  0018' 6E3C'              	movwf	_EP0OutOddNeedsArmingNext,c
  2901  001A'                    l2825:
  2902                           
  2903                           ; BSR set to: 4
  2904                           ;usb_device.c: 838: }
  2905                           ;usb_device.c: 839: if(ep0BoOdd.Stat.UOWN == 1)
  2906  001A' 0104               	movlb	4	; () banked
  2907  001C' AF04               	btfss	4,7,b	;volatile
  2908  001E' D005               	goto	l514
  2909                           
  2910                           ; BSR set to: 4
  2911                           ;usb_device.c: 840: {
  2912                           ;usb_device.c: 841: ep0BoOdd.Stat._byte = 0x00;
  2913  0020' 0E00               	movlw	0
  2914  0022' 0104               	movlb	4	; () banked
  2915  0024' 6F04               	movwf	4,b	;volatile
  2916                           
  2917                           ;usb_device.c: 842: EP0OutOddNeedsArmingNext = 1;
  2918  0026' 0E01               	movlw	1
  2919  0028' 6E3C'              	movwf	_EP0OutOddNeedsArmingNext,c
  2920  002A'                    l514:
  2921                           
  2922                           ; BSR set to: 4
  2923                           ;usb_device.c: 843: }
  2924                           ;usb_device.c: 844: ctrl_trf_state = 0;
  2925  002A' 0E00               	movlw	0
  2926  002C' 6E40'              	movwf	_ctrl_trf_state,c
  2927                           
  2928                           ;usb_device.c: 845: ctrl_trf_session_owner = 0;
  2929  002E' 0E00               	movlw	0
  2930  0030' 6E3F'              	movwf	_ctrl_trf_session_owner,c
  2931                           
  2932                           ;usb_device.c: 846: wCount.Val = 0;
  2933  0032' 0E00               	movlw	0
  2934  0034' 6E2C'              	movwf	_wCount+1,c
  2935  0036' 0E00               	movlw	0
  2936  0038' 6E2B'              	movwf	_wCount,c
  2937                           
  2938                           ; BSR set to: 4
  2939                           ;usb_device.c: 847: UCONbits.PKTDIS = 0;
  2940  003A' 9860               	bcf	3936,4,c	;volatile
  2941                           
  2942                           ; BSR set to: 4
  2943                           ;usb_device.c: 853: USBCheckStdRequest();
  2944  003C' EC00' F000'        	call	_USBCheckStdRequest	;wreg free
  2945                           
  2946                           ;usb_device.c: 854: USBCBCheckOtherReq();
  2947  0040' EC00' F000'        	call	_USBCBCheckOtherReq	;wreg free
  2948                           
  2949                           ;usb_device.c: 857: USBCtrlEPServiceComplete();
  2950  0044' EC00' F000'        	call	_USBCtrlEPServiceComplete	;wreg free
  2951  0048' 0012               	return		;funcret
  2952  004A'                    __end_of_USBCtrlTrfSetupHandler:
  2953                           	opt stack 0
  2954                           stkptr	equ	0xFFC
  2955                           tblptru	equ	0xFF8
  2956                           tblptrh	equ	0xFF7
  2957                           tblptrl	equ	0xFF6
  2958                           tablat	equ	0xFF5
  2959                           prodh	equ	0xFF4
  2960                           prodl	equ	0xFF3
  2961                           intcon	equ	0xFF2
  2962                           postinc0	equ	0xFEE
  2963                           wreg	equ	0xFE8
  2964                           indf1	equ	0xFE7
  2965                           fsr1h	equ	0xFE2
  2966                           fsr1l	equ	0xFE1
  2967                           indf2	equ	0xFDF
  2968                           postinc2	equ	0xFDE
  2969                           postdec2	equ	0xFDD
  2970                           fsr2h	equ	0xFDA
  2971                           fsr2l	equ	0xFD9
  2972                           status	equ	0xFD8
  2973                           
  2974 ;; *************** function _USBCtrlEPServiceComplete *****************
  2975 ;; Defined at:
  2976 ;;		line 1178 in file "../src/usb_device.c"
  2977 ;; Parameters:    Size  Location     Type
  2978 ;;		None
  2979 ;; Auto vars:     Size  Location     Type
  2980 ;;		None
  2981 ;; Return value:  Size  Location     Type
  2982 ;;                  1    wreg      void 
  2983 ;; Registers used:
  2984 ;;		wreg, fsr1l, fsr1h, fsr2l, fsr2h, status,2, status,0, tblptrl, tblptrh, tblptru, cstack
  2985 ;; Tracked objects:
  2986 ;;		On entry : 0/0
  2987 ;;		On exit  : 0/0
  2988 ;;		Unchanged: 0/0
  2989 ;; Data sizes:     COMRAM   BANK0   BANK1   BANK2   BANK3  BANK4h   BANK5   BANK6   BANK7
  2990 ;;      Params:         0       0       0       0       0       0       0       0       0
  2991 ;;      Locals:         0       0       0       0       0       0       0       0       0
  2992 ;;      Temps:          0       0       0       0       0       0       0       0       0
  2993 ;;      Totals:         0       0       0       0       0       0       0       0       0
  2994 ;;Total ram usage:        0 bytes
  2995 ;; Hardware stack levels used:    1
  2996 ;; Hardware stack levels required when called:    1
  2997 ;; This function calls:
  2998 ;;		_LoadBDTandSetUOWN
  2999 ;;		_USBCtrlTrfTxService
  3000 ;; This function is called by:
  3001 ;;		_USBCtrlTrfSetupHandler
  3002 ;; This function uses a non-reentrant model
  3003 ;;
  3004                           
  3005                           	psect	text13
  3006  0000'                    __ptext13:
  3007                           	opt stack 0
  3008  0000'                    _USBCtrlEPServiceComplete:
  3009                           	opt stack 26
  3010                           
  3011                           ;usb_device.c: 1182: if(ctrl_trf_session_owner == 0)
  3012                           
  3013                           ;incstack = 0
  3014  0000' 503F'              	movf	_ctrl_trf_session_owner,w,c
  3015  0002' A4D8               	btfss	status,2,c
  3016  0004' D016               	goto	l547
  3017                           
  3018                           ;usb_device.c: 1183: {
  3019                           ;usb_device.c: 1187: ep0Bi.Stat._byte = 0x04;
  3020  0006' 0E04               	movlw	4
  3021  0008' 0104               	movlb	4	; () banked
  3022  000A' 6F08               	movwf	8,b	;volatile
  3023                           
  3024                           ; BSR set to: 4
  3025                           ;usb_device.c: 1188: ep0Bi.Stat._byte |= 0x80;
  3026  000C' 0104               	movlb	4	; () banked
  3027  000E' 8F08               	bsf	8,7,b	;volatile
  3028                           
  3029                           ; BSR set to: 4
  3030                           ;usb_device.c: 1189: TempBDT.Stat._byte = 0x04;
  3031  0010' 0E04               	movlw	4
  3032  0012' 6E0C'              	movwf	_TempBDT,c
  3033                           
  3034                           ; BSR set to: 4
  3035                           ;usb_device.c: 1190: if(EP0OutOddNeedsArmingNext == 1)
  3036  0014' 043C'              	decf	_EP0OutOddNeedsArmingNext,w,c
  3037  0016' A4D8               	btfss	status,2,c
  3038  0018' D006               	goto	l2733
  3039                           
  3040                           ; BSR set to: 4
  3041                           ;usb_device.c: 1191: {
  3042                           ;usb_device.c: 1192: LoadBDTandSetUOWN(1);
  3043  001A' 0E01               	movlw	1
  3044  001C' EC00' F000'        	call	_LoadBDTandSetUOWN
  3045                           
  3046                           ;usb_device.c: 1193: EP0OutOddNeedsArmingNext = 0;
  3047  0020' 0E00               	movlw	0
  3048  0022' 6E3C'              	movwf	_EP0OutOddNeedsArmingNext,c
  3049                           
  3050                           ;usb_device.c: 1194: }
  3051  0024' 0012               	return	
  3052  0026'                    l2733:
  3053                           
  3054                           ;usb_device.c: 1195: else
  3055                           ;usb_device.c: 1196: {
  3056                           ;usb_device.c: 1197: LoadBDTandSetUOWN(0);
  3057  0026' 0E00               	movlw	0
  3058  0028' EC00' F000'        	call	_LoadBDTandSetUOWN
  3059                           
  3060                           ;usb_device.c: 1198: EP0OutOddNeedsArmingNext = 1;
  3061  002C' 0E01               	movlw	1
  3062  002E' 6E3C'              	movwf	_EP0OutOddNeedsArmingNext,c
  3063                           
  3064                           ;usb_device.c: 1199: }
  3065                           ;usb_device.c: 1200: }
  3066  0030' 0012               	return	
  3067  0032'                    l547:
  3068                           
  3069                           ;usb_device.c: 1201: else
  3070                           ;usb_device.c: 1202: {
  3071                           ;usb_device.c: 1203: if(SetupPkt.DataDir == 1)
  3072  0032' AE00'              	btfss	_SetupPkt,7,c
  3073  0034' D022               	goto	l2757
  3074                           
  3075                           ;usb_device.c: 1204: {
  3076                           ;usb_device.c: 1228: ctrl_trf_state = 1;
  3077  0036' 0E01               	movlw	1
  3078  0038' 6E40'              	movwf	_ctrl_trf_state,c
  3079                           
  3080                           ;usb_device.c: 1233: if(SetupPkt.wLength < wCount.Val)
  3081  003A' 502B'              	movf	_wCount,w,c
  3082  003C' 5C06'              	subwf	_SetupPkt+6,w,c
  3083  003E' 502C'              	movf	_wCount+1,w,c
  3084  0040' 5807'              	subwfb	_SetupPkt+7,w,c
  3085  0042' B0D8               	btfsc	status,0,c
  3086  0044' D004               	goto	l2743
  3087                           
  3088                           ;usb_device.c: 1234: wCount.Val = SetupPkt.wLength;
  3089  0046' C006' F02B'        	movff	_SetupPkt+6,_wCount
  3090  004A' C007' F02C'        	movff	_SetupPkt+7,_wCount+1
  3091  004E'                    l2743:
  3092                           
  3093                           ;usb_device.c: 1238: USBCtrlTrfTxService();
  3094  004E' EC00' F000'        	call	_USBCtrlTrfTxService	;wreg free
  3095                           
  3096                           ;usb_device.c: 1242: TempBDT.Stat._byte = 0x40 | 0x08;
  3097  0052' 0E48               	movlw	72
  3098  0054' 6E0C'              	movwf	_TempBDT,c
  3099                           
  3100                           ;usb_device.c: 1243: LoadBDTandSetUOWN(1);
  3101  0056' 0E01               	movlw	1
  3102  0058' EC00' F000'        	call	_LoadBDTandSetUOWN
  3103                           
  3104                           ;usb_device.c: 1244: LoadBDTandSetUOWN(0);
  3105  005C' 0E00               	movlw	0
  3106  005E' EC00' F000'        	call	_LoadBDTandSetUOWN
  3107                           
  3108                           ;usb_device.c: 1249: ep0Bi.ADR = (uint8_t*)&CtrlTrfData;
  3109  0062' 0E24               	movlw	36
  3110  0064' 0104               	movlb	4	; () banked
  3111  0066' 6F0A               	movwf	10,b	;volatile
  3112  0068' 0E04               	movlw	4
  3113  006A' 0104               	movlb	4	; () banked
  3114  006C' 6F0B               	movwf	11,b	;volatile
  3115                           
  3116                           ; BSR set to: 4
  3117                           ;usb_device.c: 1250: ep0Bi.Stat._byte = 0x40|0x08;
  3118  006E' 0E48               	movlw	72
  3119  0070' 0104               	movlb	4	; () banked
  3120  0072' 6F08               	movwf	8,b	;volatile
  3121                           
  3122                           ; BSR set to: 4
  3123                           ;usb_device.c: 1251: ep0Bi.Stat._byte |= 0x80;
  3124  0074' 0104               	movlb	4	; () banked
  3125  0076' 8F08               	bsf	8,7,b	;volatile
  3126                           
  3127                           ;usb_device.c: 1252: }
  3128  0078' 0012               	return	
  3129  007A'                    l2757:
  3130                           
  3131                           ;usb_device.c: 1253: else
  3132                           ;usb_device.c: 1254: {
  3133                           ;usb_device.c: 1265: ctrl_trf_state = 2;
  3134  007A' 0E02               	movlw	2
  3135  007C' 6E40'              	movwf	_ctrl_trf_state,c
  3136                           
  3137                           ;usb_device.c: 1270: TempBDT.Stat._byte = 0x04;
  3138  007E' 0E04               	movlw	4
  3139  0080' 6E0C'              	movwf	_TempBDT,c
  3140                           
  3141                           ;usb_device.c: 1272: if(SetupPkt.wLength == 0)
  3142  0082' 5006'              	movf	_SetupPkt+6,w,c
  3143  0084' 1007'              	iorwf	_SetupPkt+7,w,c
  3144  0086' A4D8               	btfss	status,2,c
  3145  0088' D002               	goto	l2763
  3146                           
  3147                           ;usb_device.c: 1273: {
  3148                           ;usb_device.c: 1274: TempBDT.Stat._byte = 0x40|0x08;
  3149  008A' 0E48               	movlw	72
  3150  008C' 6E0C'              	movwf	_TempBDT,c
  3151  008E'                    l2763:
  3152                           
  3153                           ;usb_device.c: 1275: }
  3154                           ;usb_device.c: 1277: if(EP0OutOddNeedsArmingNext == 1)
  3155  008E' 043C'              	decf	_EP0OutOddNeedsArmingNext,w,c
  3156  0090' A4D8               	btfss	status,2,c
  3157  0092' D005               	goto	l2769
  3158                           
  3159                           ;usb_device.c: 1278: {
  3160                           ;usb_device.c: 1279: LoadBDTandSetUOWN(1);
  3161  0094' 0E01               	movlw	1
  3162  0096' EC00' F000'        	call	_LoadBDTandSetUOWN
  3163                           
  3164                           ;usb_device.c: 1280: EP0OutOddNeedsArmingNext = 0;
  3165  009A' 0E00               	movlw	0
  3166  009C' D004               	goto	L3
  3167  009E'                    l2769:
  3168                           
  3169                           ;usb_device.c: 1282: else
  3170                           ;usb_device.c: 1283: {
  3171                           ;usb_device.c: 1284: LoadBDTandSetUOWN(0);
  3172  009E' 0E00               	movlw	0
  3173  00A0' EC00' F000'        	call	_LoadBDTandSetUOWN
  3174                           
  3175                           ;usb_device.c: 1285: EP0OutOddNeedsArmingNext = 1;
  3176  00A4' 0E01               	movlw	1
  3177  00A6'                    L3:
  3178  00A6' 6E3C'              	movwf	_EP0OutOddNeedsArmingNext,c
  3179                           
  3180                           ;usb_device.c: 1286: }
  3181                           ;usb_device.c: 1290: if(SetupPkt.wLength == 0)
  3182  00A8' 5006'              	movf	_SetupPkt+6,w,c
  3183  00AA' 1007'              	iorwf	_SetupPkt+7,w,c
  3184  00AC' A4D8               	btfss	status,2,c
  3185  00AE' 0012               	return	
  3186                           
  3187                           ;usb_device.c: 1291: {
  3188                           ;usb_device.c: 1293: ep0Bi.Cnt = 0;
  3189  00B0' 0E00               	movlw	0
  3190  00B2' 0104               	movlb	4	; () banked
  3191  00B4' 6F09               	movwf	9,b	;volatile
  3192                           
  3193                           ;usb_device.c: 1294: ep0Bi.Stat._byte = 0x40|0x08;
  3194  00B6' 0E48               	movlw	72
  3195  00B8' 0104               	movlb	4	; () banked
  3196  00BA' 6F08               	movwf	8,b	;volatile
  3197                           
  3198                           ; BSR set to: 4
  3199                           ;usb_device.c: 1295: ep0Bi.Stat._byte |= 0x80;
  3200  00BC' 0104               	movlb	4	; () banked
  3201  00BE' 8F08               	bsf	8,7,b	;volatile
  3202                           
  3203                           ; BSR set to: 4
  3204                           
  3205                           ; BSR set to: 4
  3206  00C0' 0012               	return	
  3207  00C2'                    __end_of_USBCtrlEPServiceComplete:
  3208                           	opt stack 0
  3209                           stkptr	equ	0xFFC
  3210                           tblptru	equ	0xFF8
  3211                           tblptrh	equ	0xFF7
  3212                           tblptrl	equ	0xFF6
  3213                           tablat	equ	0xFF5
  3214                           prodh	equ	0xFF4
  3215                           prodl	equ	0xFF3
  3216                           intcon	equ	0xFF2
  3217                           postinc0	equ	0xFEE
  3218                           wreg	equ	0xFE8
  3219                           indf1	equ	0xFE7
  3220                           fsr1h	equ	0xFE2
  3221                           fsr1l	equ	0xFE1
  3222                           indf2	equ	0xFDF
  3223                           postinc2	equ	0xFDE
  3224                           postdec2	equ	0xFDD
  3225                           fsr2h	equ	0xFDA
  3226                           fsr2l	equ	0xFD9
  3227                           status	equ	0xFD8
  3228                           
  3229 ;; *************** function _USBCheckStdRequest *****************
  3230 ;; Defined at:
  3231 ;;		line 1325 in file "../src/usb_device.c"
  3232 ;; Parameters:    Size  Location     Type
  3233 ;;		None
  3234 ;; Auto vars:     Size  Location     Type
  3235 ;;		None
  3236 ;; Return value:  Size  Location     Type
  3237 ;;                  1    wreg      void 
  3238 ;; Registers used:
  3239 ;;		wreg, fsr1l, fsr1h, fsr2l, fsr2h, status,2, status,0, tblptrl, tblptrh, tblptru, prodl, prodh, cstack
  3240 ;; Tracked objects:
  3241 ;;		On entry : 0/0
  3242 ;;		On exit  : 0/0
  3243 ;;		Unchanged: 0/0
  3244 ;; Data sizes:     COMRAM   BANK0   BANK1   BANK2   BANK3  BANK4h   BANK5   BANK6   BANK7
  3245 ;;      Params:         0       0       0       0       0       0       0       0       0
  3246 ;;      Locals:         0       0       0       0       0       0       0       0       0
  3247 ;;      Temps:          0       0       0       0       0       0       0       0       0
  3248 ;;      Totals:         0       0       0       0       0       0       0       0       0
  3249 ;;Total ram usage:        0 bytes
  3250 ;; Hardware stack levels used:    1
  3251 ;; Hardware stack levels required when called:    3
  3252 ;; This function calls:
  3253 ;;		_USBStdFeatureReqHandler
  3254 ;;		_USBStdGetDscHandler
  3255 ;;		_USBStdGetStatusHandler
  3256 ;;		_USBStdSetCfgHandler
  3257 ;; This function is called by:
  3258 ;;		_USBCtrlTrfSetupHandler
  3259 ;; This function uses a non-reentrant model
  3260 ;;
  3261                           
  3262                           	psect	text14
  3263  0000'                    __ptext14:
  3264                           	opt stack 0
  3265  0000'                    _USBCheckStdRequest:
  3266                           	opt stack 24
  3267                           
  3268                           ;usb_device.c: 1327: if(SetupPkt.RequestType != 0x00) return;
  3269                           
  3270                           ;incstack = 0
  3271  0000' 3800'              	swapf	_SetupPkt,w,c
  3272  0002' 32E8               	rrcf	wreg,f,c
  3273  0004' 0B03               	andlw	3
  3274  0006' 0900               	iorlw	0
  3275  0008' A4D8               	btfss	status,2,c
  3276  000A' 0012               	return	
  3277  000C' D036               	goto	l2717
  3278  000E'                    l2685:
  3279                           
  3280                           ;usb_device.c: 1332: ctrl_trf_session_owner = 1;
  3281  000E' 0E01               	movlw	1
  3282  0010' 6E3F'              	movwf	_ctrl_trf_session_owner,c
  3283                           
  3284                           ;usb_device.c: 1333: usb_device_state = 4;
  3285  0012' 0E04               	movlw	4
  3286  0014' 6E43'              	movwf	_usb_device_state,c
  3287                           
  3288                           ;usb_device.c: 1335: break;
  3289  0016' 0012               	return	
  3290  0018'                    l2687:
  3291                           
  3292                           ;usb_device.c: 1337: USBStdGetDscHandler();
  3293  0018' EC00' F000'        	call	_USBStdGetDscHandler	;wreg free
  3294                           
  3295                           ;usb_device.c: 1338: break;
  3296  001C' 0012               	return	
  3297  001E'                    l2689:
  3298                           
  3299                           ;usb_device.c: 1340: USBStdSetCfgHandler();
  3300  001E' EC00' F000'        	call	_USBStdSetCfgHandler	;wreg free
  3301                           
  3302                           ;usb_device.c: 1341: break;
  3303  0022' 0012               	return	
  3304  0024'                    l2691:
  3305                           
  3306                           ;usb_device.c: 1343: ctrl_trf_session_owner = 1;
  3307  0024' 0E01               	movlw	1
  3308  0026' 6E3F'              	movwf	_ctrl_trf_session_owner,c
  3309                           
  3310                           ;usb_device.c: 1344: pSrc.bRam = (uint8_t*)&usb_active_cfg;
  3311  0028' 0E00'              	movlw	low _usb_active_cfg
  3312  002A' 6E1C'              	movwf	_pSrc,c
  3313  002C' 0E00'              	movlw	high _usb_active_cfg
  3314  002E' 6E1D'              	movwf	_pSrc+1,c
  3315                           
  3316                           ;usb_device.c: 1345: usb_stat.ctrl_trf_mem = 0;
  3317  0030' 9244'              	bcf	_usb_stat,1,c
  3318                           
  3319                           ;usb_device.c: 1347: wCount.v[0] = 1;
  3320  0032' 0E01               	movlw	1
  3321  0034' 6E2B'              	movwf	_wCount,c
  3322                           
  3323                           ;usb_device.c: 1348: break;
  3324  0036' 0012               	return	
  3325  0038'                    l2699:
  3326                           
  3327                           ;usb_device.c: 1350: USBStdGetStatusHandler();
  3328  0038' EC00' F000'        	call	_USBStdGetStatusHandler	;wreg free
  3329                           
  3330                           ;usb_device.c: 1351: break;
  3331  003C' 0012               	return	
  3332  003E'                    l2701:
  3333                           
  3334                           ;usb_device.c: 1353: case 3:
  3335                           ;usb_device.c: 1354: USBStdFeatureReqHandler();
  3336  003E' EC00' F000'        	call	_USBStdFeatureReqHandler	;wreg free
  3337                           
  3338                           ;usb_device.c: 1355: break;
  3339  0042' 0012               	return	
  3340  0044'                    l2703:
  3341                           
  3342                           ;usb_device.c: 1357: ctrl_trf_session_owner = 1;
  3343  0044' 0E01               	movlw	1
  3344  0046' 6E3F'              	movwf	_ctrl_trf_session_owner,c
  3345                           
  3346                           ;usb_device.c: 1358: pSrc.bRam = (uint8_t*)&usb_alt_intf+SetupPkt.bIntfID;
  3347  0048' 5004'              	movf	_SetupPkt+4,w,c
  3348  004A' 0D01               	mullw	1
  3349  004C' 0E00'              	movlw	low _usb_alt_intf
  3350  004E' 24F3               	addwf	prodl,w,c
  3351  0050' 6E1C'              	movwf	_pSrc,c
  3352  0052' 0E00'              	movlw	high _usb_alt_intf
  3353  0054' 20F4               	addwfc	prodh,w,c
  3354  0056' 6E1D'              	movwf	_pSrc+1,c
  3355                           
  3356                           ;usb_device.c: 1359: usb_stat.ctrl_trf_mem = 0;
  3357  0058' 9244'              	bcf	_usb_stat,1,c
  3358                           
  3359                           ;usb_device.c: 1360: wCount.v[0] = 1;
  3360  005A' 0E01               	movlw	1
  3361  005C' 6E2B'              	movwf	_wCount,c
  3362                           
  3363                           ;usb_device.c: 1361: break;
  3364  005E' 0012               	return	
  3365  0060'                    l2711:
  3366                           
  3367                           ;usb_device.c: 1363: ctrl_trf_session_owner = 1;
  3368  0060' 0E01               	movlw	1
  3369  0062' 6E3F'              	movwf	_ctrl_trf_session_owner,c
  3370                           
  3371                           ;usb_device.c: 1364: usb_alt_intf[SetupPkt.bIntfID] = SetupPkt.bAltID;
  3372  0064' 5004'              	movf	_SetupPkt+4,w,c
  3373  0066' 0D01               	mullw	1
  3374  0068' 0E00'              	movlw	low _usb_alt_intf
  3375  006A' 24F3               	addwf	prodl,w,c
  3376  006C' 6ED9               	movwf	fsr2l,c
  3377  006E' 0E00'              	movlw	high _usb_alt_intf
  3378  0070' 20F4               	addwfc	prodh,w,c
  3379  0072' 6EDA               	movwf	fsr2h,c
  3380  0074' C002' FFDF         	movff	_SetupPkt+2,indf2
  3381                           
  3382                           ;usb_device.c: 1370: }
  3383                           
  3384                           ;usb_device.c: 1369: break;
  3385                           
  3386                           ;usb_device.c: 1367: case 12:
  3387                           ;usb_device.c: 1368: default:
  3388                           
  3389                           ;usb_device.c: 1366: case 7:
  3390                           
  3391                           ;usb_device.c: 1365: break;
  3392  0078' 0012               	return	
  3393  007A'                    l2717:
  3394  007A' 5001'              	movf	_SetupPkt+1,w,c
  3395                           
  3396                           ; Switch size 1, requested type "space"
  3397                           ; Number of cases is 11, Range of values is 0 to 12
  3398                           ; switch strategies available:
  3399                           ; Name         Instructions Cycles
  3400                           ; simple_byte           34    18 (average)
  3401                           ;	Chosen strategy is simple_byte
  3402  007C' 0A00               	xorlw	0	; case 0
  3403  007E' B4D8               	btfsc	status,2,c
  3404  0080' D7DB               	goto	l2699
  3405  0082' 0A01               	xorlw	1	; case 1
  3406  0084' B4D8               	btfsc	status,2,c
  3407  0086' D7DB               	goto	l2701
  3408  0088' 0A02               	xorlw	2	; case 3
  3409  008A' B4D8               	btfsc	status,2,c
  3410  008C' D7D8               	goto	l2701
  3411  008E' 0A06               	xorlw	6	; case 5
  3412  0090' B4D8               	btfsc	status,2,c
  3413  0092' D7BD               	goto	l2685
  3414  0094' 0A03               	xorlw	3	; case 6
  3415  0096' B4D8               	btfsc	status,2,c
  3416  0098' D7BF               	goto	l2687
  3417  009A' 0A01               	xorlw	1	; case 7
  3418  009C' B4D8               	btfsc	status,2,c
  3419  009E' 0012               	return	
  3420  00A0' 0A0F               	xorlw	15	; case 8
  3421  00A2' B4D8               	btfsc	status,2,c
  3422  00A4' D7BF               	goto	l2691
  3423  00A6' 0A01               	xorlw	1	; case 9
  3424  00A8' B4D8               	btfsc	status,2,c
  3425  00AA' D7B9               	goto	l2689
  3426  00AC' 0A03               	xorlw	3	; case 10
  3427  00AE' B4D8               	btfsc	status,2,c
  3428  00B0' D7C9               	goto	l2703
  3429  00B2' 0A01               	xorlw	1	; case 11
  3430  00B4' B4D8               	btfsc	status,2,c
  3431  00B6' D7D4               	goto	l2711
  3432  00B8' 0A07               	xorlw	7	; case 12
  3433  00BA' 0012               	return	
  3434  00BC'                    __end_of_USBCheckStdRequest:
  3435                           	opt stack 0
  3436                           stkptr	equ	0xFFC
  3437                           tblptru	equ	0xFF8
  3438                           tblptrh	equ	0xFF7
  3439                           tblptrl	equ	0xFF6
  3440                           tablat	equ	0xFF5
  3441                           prodh	equ	0xFF4
  3442                           prodl	equ	0xFF3
  3443                           intcon	equ	0xFF2
  3444                           postinc0	equ	0xFEE
  3445                           wreg	equ	0xFE8
  3446                           indf1	equ	0xFE7
  3447                           fsr1h	equ	0xFE2
  3448                           fsr1l	equ	0xFE1
  3449                           indf2	equ	0xFDF
  3450                           postinc2	equ	0xFDE
  3451                           postdec2	equ	0xFDD
  3452                           fsr2h	equ	0xFDA
  3453                           fsr2l	equ	0xFD9
  3454                           status	equ	0xFD8
  3455                           
  3456 ;; *************** function _USBStdSetCfgHandler *****************
  3457 ;; Defined at:
  3458 ;;		line 1440 in file "../src/usb_device.c"
  3459 ;; Parameters:    Size  Location     Type
  3460 ;;		None
  3461 ;; Auto vars:     Size  Location     Type
  3462 ;;		None
  3463 ;; Return value:  Size  Location     Type
  3464 ;;                  1    wreg      void 
  3465 ;; Registers used:
  3466 ;;		wreg, fsr2l, fsr2h, status,2, status,0, prodl, prodh, cstack
  3467 ;; Tracked objects:
  3468 ;;		On entry : 0/0
  3469 ;;		On exit  : 0/0
  3470 ;;		Unchanged: 0/0
  3471 ;; Data sizes:     COMRAM   BANK0   BANK1   BANK2   BANK3  BANK4h   BANK5   BANK6   BANK7
  3472 ;;      Params:         0       0       0       0       0       0       0       0       0
  3473 ;;      Locals:         0       0       0       0       0       0       0       0       0
  3474 ;;      Temps:          0       0       0       0       0       0       0       0       0
  3475 ;;      Totals:         0       0       0       0       0       0       0       0       0
  3476 ;;Total ram usage:        0 bytes
  3477 ;; Hardware stack levels used:    1
  3478 ;; Hardware stack levels required when called:    2
  3479 ;; This function calls:
  3480 ;;		_USBCBInitEP
  3481 ;; This function is called by:
  3482 ;;		_USBCheckStdRequest
  3483 ;; This function uses a non-reentrant model
  3484 ;;
  3485                           
  3486                           	psect	text15
  3487  0000'                    __ptext15:
  3488                           	opt stack 0
  3489  0000'                    _USBStdSetCfgHandler:
  3490                           	opt stack 24
  3491                           
  3492                           ;usb_device.c: 1442: static unsigned char i;
  3493                           ;usb_device.c: 1444: ctrl_trf_session_owner = 1;
  3494                           
  3495                           ;incstack = 0
  3496  0000' 0E01               	movlw	1
  3497  0002' 6E3F'              	movwf	_ctrl_trf_session_owner,c
  3498                           
  3499                           ;usb_device.c: 1446: UEP1=0x00;UEP2=0x00;UEP3=0x00; UEP4=0x00;UEP5=0x00;UEP6=0x00;UEP7=0
      +                          x00;;
  3500  0004' 0E00               	movlw	0
  3501  0006' 6E6B               	movwf	3947,c	;volatile
  3502  0008' 0E00               	movlw	0
  3503  000A' 6E6C               	movwf	3948,c	;volatile
  3504  000C' 0E00               	movlw	0
  3505  000E' 6E6D               	movwf	3949,c	;volatile
  3506  0010' 0E00               	movlw	0
  3507  0012' 6E6E               	movwf	3950,c	;volatile
  3508  0014' 0E00               	movlw	0
  3509  0016' 6E6F               	movwf	3951,c	;volatile
  3510  0018' 0E00               	movlw	0
  3511  001A' 6E70               	movwf	3952,c	;volatile
  3512  001C' 0E00               	movlw	0
  3513  001E' 6E71               	movwf	3953,c	;volatile
  3514                           
  3515                           ;usb_device.c: 1448: for(i = 0; i < 1; i++)
  3516  0020' 0E00               	movlw	0
  3517  0022' 6E31'              	movwf	USBStdSetCfgHandler@i,c
  3518  0024' 5031'              	movf	USBStdSetCfgHandler@i,w,c
  3519  0026' A4D8               	btfss	status,2,c
  3520  0028' D00C               	goto	l592
  3521                           
  3522                           ;usb_device.c: 1449: {
  3523                           ;usb_device.c: 1450: usb_alt_intf[i] = 0;
  3524  002A' 5031'              	movf	USBStdSetCfgHandler@i,w,c
  3525  002C' 0D01               	mullw	1
  3526  002E' 0E00'              	movlw	low _usb_alt_intf
  3527  0030' 24F3               	addwf	prodl,w,c
  3528  0032' 6ED9               	movwf	fsr2l,c
  3529  0034' 0E00'              	movlw	high _usb_alt_intf
  3530  0036' 20F4               	addwfc	prodh,w,c
  3531  0038' 6EDA               	movwf	fsr2h,c
  3532  003A' 0E00               	movlw	0
  3533  003C' 6EDF               	movwf	indf2,c
  3534  003E' 2A31'              	incf	USBStdSetCfgHandler@i,f,c
  3535  0040' D7F1               	goto	L4
  3536  0042'                    l592:
  3537                           
  3538                           ;usb_device.c: 1451: }
  3539                           ;usb_device.c: 1454: usb_active_cfg = SetupPkt.bCfgValue;
  3540  0042' C002' F047'        	movff	_SetupPkt+2,_usb_active_cfg
  3541                           
  3542                           ;usb_device.c: 1461: USBCBInitEP(usb_active_cfg);
  3543  0046' 5047'              	movf	_usb_active_cfg,w,c
  3544  0048' EC00' F000'        	call	_USBCBInitEP
  3545                           
  3546                           ;usb_device.c: 1463: if(SetupPkt.bCfgValue == 0)
  3547  004C' 5002'              	movf	_SetupPkt+2,w,c
  3548  004E' A4D8               	btfss	status,2,c
  3549  0050' D003               	goto	l2589
  3550                           
  3551                           ;usb_device.c: 1464: {
  3552                           ;usb_device.c: 1465: usb_device_state = 5;
  3553  0052' 0E05               	movlw	5
  3554  0054' 6E43'              	movwf	_usb_device_state,c
  3555                           
  3556                           ;usb_device.c: 1466: }
  3557  0056' 0012               	return	
  3558  0058'                    l2589:
  3559                           
  3560                           ;usb_device.c: 1467: else
  3561                           ;usb_device.c: 1468: {
  3562                           ;usb_device.c: 1469: usb_device_state = 6;
  3563  0058' 0E06               	movlw	6
  3564  005A' 6E43'              	movwf	_usb_device_state,c
  3565  005C' 0012               	return	
  3566  005E'                    __end_of_USBStdSetCfgHandler:
  3567                           	opt stack 0
  3568                           stkptr	equ	0xFFC
  3569                           tblptru	equ	0xFF8
  3570                           tblptrh	equ	0xFF7
  3571                           tblptrl	equ	0xFF6
  3572                           tablat	equ	0xFF5
  3573                           prodh	equ	0xFF4
  3574                           prodl	equ	0xFF3
  3575                           intcon	equ	0xFF2
  3576                           postinc0	equ	0xFEE
  3577                           wreg	equ	0xFE8
  3578                           indf1	equ	0xFE7
  3579                           fsr1h	equ	0xFE2
  3580                           fsr1l	equ	0xFE1
  3581                           indf2	equ	0xFDF
  3582                           postinc2	equ	0xFDE
  3583                           postdec2	equ	0xFDD
  3584                           fsr2h	equ	0xFDA
  3585                           fsr2l	equ	0xFD9
  3586                           status	equ	0xFD8
  3587                           
  3588 ;; *************** function _USBStdGetStatusHandler *****************
  3589 ;; Defined at:
  3590 ;;		line 1489 in file "../src/usb_device.c"
  3591 ;; Parameters:    Size  Location     Type
  3592 ;;		None
  3593 ;; Auto vars:     Size  Location     Type
  3594 ;;		None
  3595 ;; Return value:  Size  Location     Type
  3596 ;;                  1    wreg      void 
  3597 ;; Registers used:
  3598 ;;		wreg, fsr2l, fsr2h, status,2, status,0, prodl, prodh
  3599 ;; Tracked objects:
  3600 ;;		On entry : 0/0
  3601 ;;		On exit  : 0/0
  3602 ;;		Unchanged: 0/0
  3603 ;; Data sizes:     COMRAM   BANK0   BANK1   BANK2   BANK3  BANK4h   BANK5   BANK6   BANK7
  3604 ;;      Params:         0       0       0       0       0       0       0       0       0
  3605 ;;      Locals:         0       0       0       0       0       0       0       0       0
  3606 ;;      Temps:          4       0       0       0       0       0       0       0       0
  3607 ;;      Totals:         4       0       0       0       0       0       0       0       0
  3608 ;;Total ram usage:        4 bytes
  3609 ;; Hardware stack levels used:    1
  3610 ;; This function calls:
  3611 ;;		Nothing
  3612 ;; This function is called by:
  3613 ;;		_USBCheckStdRequest
  3614 ;; This function uses a non-reentrant model
  3615 ;;
  3616                           
  3617                           	psect	text16
  3618  0000'                    __ptext16:
  3619                           	opt stack 0
  3620  0000'                    _USBStdGetStatusHandler:
  3621                           	opt stack 26
  3622                           
  3623                           ;usb_device.c: 1491: CtrlTrfData._byte0 = 0;
  3624                           
  3625                           ;incstack = 0
  3626  0000' 0E00               	movlw	0
  3627  0002' 0104               	movlb	4	; () banked
  3628  0004' 6F24               	movwf	36,b	;volatile
  3629                           
  3630                           ;usb_device.c: 1492: CtrlTrfData._byte1 = 0;
  3631  0006' 0E00               	movlw	0
  3632  0008' 0104               	movlb	4	; () banked
  3633  000A' 6F25               	movwf	37,b	;volatile
  3634                           
  3635                           ;usb_device.c: 1494: switch(SetupPkt.Recipient)
  3636  000C' D035               	goto	l2613
  3637  000E'                    l2593:
  3638                           
  3639                           ; BSR set to: 4
  3640                           ;usb_device.c: 1497: ctrl_trf_session_owner = 1;
  3641  000E' 0E01               	movlw	1
  3642  0010' 6E3F'              	movwf	_ctrl_trf_session_owner,c
  3643                           
  3644                           ; BSR set to: 4
  3645                           ;usb_device.c: 1505: if(usb_stat.RemoteWakeup == 1)
  3646                           
  3647                           ; BSR set to: 4
  3648                           
  3649                           ; BSR set to: 4
  3650                           ;usb_device.c: 1504: CtrlTrfData._byte0 |= 0b00000001;
  3651                           
  3652                           ;usb_device.c: 1503: if(0 == 1)
  3653  0012' A044'              	btfss	_usb_stat,0,c
  3654  0014' D03C               	goto	l2615
  3655                           
  3656                           ; BSR set to: 4
  3657                           ;usb_device.c: 1506: CtrlTrfData._byte0|=0b00000010;
  3658  0016' 0104               	movlb	4	; () banked
  3659  0018' 8324               	bsf	36,1,b	;volatile
  3660                           
  3661                           ; BSR set to: 4
  3662                           ;usb_device.c: 1507: break;
  3663  001A' D039               	goto	l2615
  3664  001C'                    l2601:
  3665                           
  3666                           ; BSR set to: 4
  3667                           ;usb_device.c: 1509: ctrl_trf_session_owner = 1;
  3668  001C' 0E01               	movlw	1
  3669  001E' 6E3F'              	movwf	_ctrl_trf_session_owner,c
  3670                           
  3671                           ;usb_device.c: 1510: break;
  3672  0020' D036               	goto	l2615
  3673  0022'                    l2603:
  3674                           
  3675                           ; BSR set to: 4
  3676                           ;usb_device.c: 1512: ctrl_trf_session_owner = 1;
  3677  0022' 0E01               	movlw	1
  3678  0024' 6E3F'              	movwf	_ctrl_trf_session_owner,c
  3679                           
  3680                           ; BSR set to: 4
  3681                           ;usb_device.c: 1516: pDst.bRam = (uint8_t*)&ep0BoEven+(SetupPkt.EPNum*8)+(SetupPkt.EPDir
      +                          *4)+4;
  3682  0026' 5004'              	movf	_SetupPkt+4,w,c
  3683  0028' 0B0F               	andlw	15
  3684  002A' 6E00'              	movwf	??_USBStdGetStatusHandler& (0+255),c
  3685  002C' 5000'              	movf	??_USBStdGetStatusHandler,w,c
  3686  002E' 0D08               	mullw	8
  3687  0030' 0E00               	movlw	0
  3688  0032' 6E00'              	movwf	(??_USBStdGetStatusHandler+1)& (0+255),c
  3689  0034' 0E04               	movlw	4
  3690  0036' 6E00'              	movwf	(??_USBStdGetStatusHandler+2)& (0+255),c
  3691  0038' 50F3               	movf	prodl,w,c
  3692  003A' 2601'              	addwf	??_USBStdGetStatusHandler+1,f,c
  3693  003C' 50F4               	movf	prodh,w,c
  3694  003E' 2202'              	addwfc	??_USBStdGetStatusHandler+2,f,c
  3695  0040' AE04'              	btfss	_SetupPkt+4,7,c
  3696  0042' D003               	goto	u1550
  3697  0044' 6A00'              	clrf	(??_USBStdGetStatusHandler+3)& (0+255),c
  3698  0046' 2A00'              	incf	(??_USBStdGetStatusHandler+3)& (0+255),f,c
  3699  0048' D001               	goto	u1558
  3700  004A'                    u1550:
  3701  004A' 6A00'              	clrf	(??_USBStdGetStatusHandler+3)& (0+255),c
  3702  004C'                    u1558:
  3703  004C' 5003'              	movf	??_USBStdGetStatusHandler+3,w,c
  3704  004E' 0D04               	mullw	4
  3705  0050' 50F3               	movf	prodl,w,c
  3706  0052' 2601'              	addwf	??_USBStdGetStatusHandler+1,f,c
  3707  0054' 50F4               	movf	prodh,w,c
  3708  0056' 2202'              	addwfc	??_USBStdGetStatusHandler+2,f,c
  3709  0058' 0E04               	movlw	4
  3710  005A' 2401'              	addwf	??_USBStdGetStatusHandler+1,w,c
  3711  005C' 6E19'              	movwf	_pDst,c
  3712  005E' 0E00               	movlw	0
  3713  0060' 2002'              	addwfc	??_USBStdGetStatusHandler+2,w,c
  3714  0062' 6E1A'              	movwf	_pDst+1,c
  3715                           
  3716                           ;usb_device.c: 1517: if(*pDst.bRam & 0x04)
  3717  0064' C019' FFD9         	movff	_pDst,fsr2l
  3718  0068' C01A' FFDA         	movff	_pDst+1,fsr2h
  3719  006C' A4DF               	btfss	indf2,2,c
  3720  006E' D00F               	goto	l2615
  3721                           
  3722                           ;usb_device.c: 1518: CtrlTrfData._byte0=0x01;
  3723  0070' 0E01               	movlw	1
  3724  0072' 0104               	movlb	4	; () banked
  3725  0074' 6F24               	movwf	36,b	;volatile
  3726                           
  3727                           ; BSR set to: 4
  3728                           ;usb_device.c: 1520: }
  3729                           
  3730                           ; BSR set to: 4
  3731                           ;usb_device.c: 1519: break;
  3732  0076' D00B               	goto	l2615
  3733  0078'                    l2613:
  3734                           
  3735                           ; BSR set to: 4
  3736  0078' 5000'              	movf	_SetupPkt,w,c
  3737  007A' 0B1F               	andlw	31
  3738                           
  3739                           ; Switch size 1, requested type "space"
  3740                           ; Number of cases is 3, Range of values is 0 to 2
  3741                           ; switch strategies available:
  3742                           ; Name         Instructions Cycles
  3743                           ; simple_byte           10     6 (average)
  3744                           ;	Chosen strategy is simple_byte
  3745  007C' 0A00               	xorlw	0	; case 0
  3746  007E' B4D8               	btfsc	status,2,c
  3747  0080' D7C6               	goto	l2593
  3748  0082' 0A01               	xorlw	1	; case 1
  3749  0084' B4D8               	btfsc	status,2,c
  3750  0086' D7CA               	goto	l2601
  3751  0088' 0A03               	xorlw	3	; case 2
  3752  008A' B4D8               	btfsc	status,2,c
  3753  008C' D7CA               	goto	l2603
  3754  008E'                    l2615:
  3755                           
  3756                           ;usb_device.c: 1522: if(ctrl_trf_session_owner == 1)
  3757  008E' 043F'              	decf	_ctrl_trf_session_owner,w,c
  3758  0090' A4D8               	btfss	status,2,c
  3759  0092' 0012               	return	
  3760                           
  3761                           ;usb_device.c: 1523: {
  3762                           ;usb_device.c: 1524: pSrc.bRam = (uint8_t*)&CtrlTrfData;
  3763  0094' 0E24               	movlw	36
  3764  0096' 6E1C'              	movwf	_pSrc,c
  3765  0098' 0E04               	movlw	4
  3766  009A' 6E1D'              	movwf	_pSrc+1,c
  3767                           
  3768                           ;usb_device.c: 1525: usb_stat.ctrl_trf_mem = 0;
  3769  009C' 9244'              	bcf	_usb_stat,1,c
  3770                           
  3771                           ;usb_device.c: 1526: wCount.v[0] = 2;
  3772  009E' 0E02               	movlw	2
  3773  00A0' 6E2B'              	movwf	_wCount,c
  3774  00A2' 0012               	return	
  3775  00A4'                    __end_of_USBStdGetStatusHandler:
  3776                           	opt stack 0
  3777                           stkptr	equ	0xFFC
  3778                           tblptru	equ	0xFF8
  3779                           tblptrh	equ	0xFF7
  3780                           tblptrl	equ	0xFF6
  3781                           tablat	equ	0xFF5
  3782                           prodh	equ	0xFF4
  3783                           prodl	equ	0xFF3
  3784                           intcon	equ	0xFF2
  3785                           postinc0	equ	0xFEE
  3786                           wreg	equ	0xFE8
  3787                           indf1	equ	0xFE7
  3788                           fsr1h	equ	0xFE2
  3789                           fsr1l	equ	0xFE1
  3790                           indf2	equ	0xFDF
  3791                           postinc2	equ	0xFDE
  3792                           postdec2	equ	0xFDD
  3793                           fsr2h	equ	0xFDA
  3794                           fsr2l	equ	0xFD9
  3795                           status	equ	0xFD8
  3796                           
  3797 ;; *************** function _USBStdGetDscHandler *****************
  3798 ;; Defined at:
  3799 ;;		line 1392 in file "../src/usb_device.c"
  3800 ;; Parameters:    Size  Location     Type
  3801 ;;		None
  3802 ;; Auto vars:     Size  Location     Type
  3803 ;;		None
  3804 ;; Return value:  Size  Location     Type
  3805 ;;                  1    wreg      void 
  3806 ;; Registers used:
  3807 ;;		wreg, fsr1l, fsr1h, status,2, status,0, tblptrl, tblptrh, tblptru, prodl, prodh
  3808 ;; Tracked objects:
  3809 ;;		On entry : 0/0
  3810 ;;		On exit  : 0/0
  3811 ;;		Unchanged: 0/0
  3812 ;; Data sizes:     COMRAM   BANK0   BANK1   BANK2   BANK3  BANK4h   BANK5   BANK6   BANK7
  3813 ;;      Params:         0       0       0       0       0       0       0       0       0
  3814 ;;      Locals:         0       0       0       0       0       0       0       0       0
  3815 ;;      Temps:          1       0       0       0       0       0       0       0       0
  3816 ;;      Totals:         1       0       0       0       0       0       0       0       0
  3817 ;;Total ram usage:        1 bytes
  3818 ;; Hardware stack levels used:    1
  3819 ;; This function calls:
  3820 ;;		Nothing
  3821 ;; This function is called by:
  3822 ;;		_USBCheckStdRequest
  3823 ;; This function uses a non-reentrant model
  3824 ;;
  3825                           
  3826                           	psect	text17
  3827  0000'                    __ptext17:
  3828                           	opt stack 0
  3829  0000'                    _USBStdGetDscHandler:
  3830                           	opt stack 26
  3831                           
  3832                           ;usb_device.c: 1394: if(SetupPkt.bmRequestType == 0x80)
  3833                           
  3834                           ;incstack = 0
  3835  0000' 0E80               	movlw	128
  3836  0002' 1800'              	xorwf	_SetupPkt,w,c
  3837  0004' A4D8               	btfss	status,2,c
  3838  0006' 0012               	return	
  3839  0008' D03B               	goto	l2571
  3840  000A'                    l2549:
  3841                           
  3842                           ;usb_device.c: 1399: ctrl_trf_session_owner = 1;
  3843  000A' 0E01               	movlw	1
  3844  000C' 6E3F'              	movwf	_ctrl_trf_session_owner,c
  3845                           
  3846                           ;usb_device.c: 1400: pSrc.bRom = (const uint8_t*)&device_dsc;
  3847  000E' 0E00'              	movlw	low _device_dsc
  3848  0010' 6E1C'              	movwf	_pSrc,c
  3849  0012' 0E00'              	movlw	high _device_dsc
  3850  0014' 6E1D'              	movwf	_pSrc+1,c
  3851                           
  3852                           ;usb_device.c: 1401: wCount.v[0] = sizeof(device_dsc);
  3853  0016' 0E12               	movlw	18
  3854  0018' D00C               	goto	L5
  3855  001A'                    l2555:
  3856                           
  3857                           ;usb_device.c: 1405: if(SetupPkt.bDscIndex < 1)
  3858  001A' 5002'              	movf	_SetupPkt+2,w,c
  3859  001C' A4D8               	btfss	status,2,c
  3860  001E' D03A               	goto	l582
  3861                           
  3862                           ;usb_device.c: 1406: {
  3863                           ;usb_device.c: 1407: ctrl_trf_session_owner = 1;
  3864  0020' 0E01               	movlw	1
  3865  0022' 6E3F'              	movwf	_ctrl_trf_session_owner,c
  3866                           
  3867                           ;usb_device.c: 1408: pSrc.bRom = (const BYTE*)&CFG01;
  3868  0024' 0E00'              	movlw	low _CFG01
  3869  0026' 6E1C'              	movwf	_pSrc,c
  3870  0028' 0E00'              	movlw	high _CFG01
  3871  002A' 6E1D'              	movwf	_pSrc+1,c
  3872                           
  3873                           ;usb_device.c: 1409: wCount.Val = sizeof(CFG01);
  3874  002C' 0E00               	movlw	0
  3875  002E' 6E2C'              	movwf	_wCount+1,c
  3876  0030' 0E29               	movlw	41
  3877  0032'                    L5:
  3878  0032' 6E2B'              	movwf	_wCount,c
  3879                           
  3880                           ;usb_device.c: 1410: }
  3881                           ;usb_device.c: 1411: break;
  3882  0034' D02F               	goto	l582
  3883  0036'                    l2563:
  3884                           
  3885                           ;usb_device.c: 1413: ctrl_trf_session_owner = 1;
  3886  0036' 0E01               	movlw	1
  3887  0038' 6E3F'              	movwf	_ctrl_trf_session_owner,c
  3888                           
  3889                           ;usb_device.c: 1414: pSrc.bRom = *(USB_SD_Ptr+SetupPkt.bDscIndex);
  3890  003A' 5002'              	movf	_SetupPkt+2,w,c
  3891  003C' 0D02               	mullw	2
  3892  003E' 0E00'              	movlw	low _USB_SD_Ptr
  3893  0040' 24F3               	addwf	prodl,w,c
  3894  0042' 6EF6               	movwf	tblptrl,c
  3895  0044' 0E00'              	movlw	high _USB_SD_Ptr
  3896  0046' 20F4               	addwfc	prodh,w,c
  3897  0048' 6EF7               	movwf	tblptrh,c
  3898  004A'                    	if	0	;There are less than 3 active tblptr bytes
  3899  004A'                    	endif
  3900  004A' 0009               	tblrd		*+
  3901  004C' CFF5 F01C'         	movff	tablat,_pSrc
  3902  0050' 000A               	tblrd		*-
  3903  0052' CFF5 F01D'         	movff	tablat,_pSrc+1
  3904                           
  3905                           ;usb_device.c: 1415: wCount.Val = *pSrc.bRom;
  3906  0056' C01C' FFF6         	movff	_pSrc,tblptrl
  3907  005A' C01D' FFF7         	movff	_pSrc+1,tblptrh
  3908  005E' 6AF8               	clrf	tblptru,c
  3909  0060' 0EFF'              	movlw	(high __ramtop+-1)
  3910  0062' 64F7               	cpfsgt	tblptrh,c
  3911  0064' D003               	bra	u1507
  3912  0066' 0008               	tblrd		*
  3913  0068' 50F5               	movf	tablat,w,c
  3914  006A' D005               	bra	u1500
  3915  006C'                    u1507:
  3916  006C' CFF6 FFE1          	movff	tblptrl,fsr1l
  3917  0070' CFF7 FFE2          	movff	tblptrh,fsr1h
  3918  0074' 50E7               	movf	indf1,w,c
  3919  0076'                    u1500:
  3920  0076' 6E00'              	movwf	??_USBStdGetDscHandler& (0+255),c
  3921  0078' 5000'              	movf	??_USBStdGetDscHandler,w,c
  3922  007A' 6E2B'              	movwf	_wCount,c
  3923  007C' 6A2C'              	clrf	_wCount+1,c
  3924                           
  3925                           ;usb_device.c: 1417: }
  3926                           
  3927                           ;usb_device.c: 1416: break;
  3928  007E' D00A               	goto	l582
  3929  0080'                    l2571:
  3930  0080' 5003'              	movf	_SetupPkt+3,w,c
  3931                           
  3932                           ; Switch size 1, requested type "space"
  3933                           ; Number of cases is 3, Range of values is 1 to 3
  3934                           ; switch strategies available:
  3935                           ; Name         Instructions Cycles
  3936                           ; simple_byte           10     6 (average)
  3937                           ;	Chosen strategy is simple_byte
  3938  0082' 0A01               	xorlw	1	; case 1
  3939  0084' B4D8               	btfsc	status,2,c
  3940  0086' D7C1               	goto	l2549
  3941  0088' 0A03               	xorlw	3	; case 2
  3942  008A' B4D8               	btfsc	status,2,c
  3943  008C' D7C6               	goto	l2555
  3944  008E' 0A01               	xorlw	1	; case 3
  3945  0090' B4D8               	btfsc	status,2,c
  3946  0092' D7D1               	goto	l2563
  3947  0094'                    l582:
  3948                           
  3949                           ;usb_device.c: 1419: usb_stat.ctrl_trf_mem = 1;
  3950  0094' 8244'              	bsf	_usb_stat,1,c
  3951  0096' 0012               	return	
  3952  0098'                    __end_of_USBStdGetDscHandler:
  3953                           	opt stack 0
  3954                           stkptr	equ	0xFFC
  3955                           tblptru	equ	0xFF8
  3956                           tblptrh	equ	0xFF7
  3957                           tblptrl	equ	0xFF6
  3958                           tablat	equ	0xFF5
  3959                           prodh	equ	0xFF4
  3960                           prodl	equ	0xFF3
  3961                           intcon	equ	0xFF2
  3962                           postinc0	equ	0xFEE
  3963                           wreg	equ	0xFE8
  3964                           indf1	equ	0xFE7
  3965                           fsr1h	equ	0xFE2
  3966                           fsr1l	equ	0xFE1
  3967                           indf2	equ	0xFDF
  3968                           postinc2	equ	0xFDE
  3969                           postdec2	equ	0xFDD
  3970                           fsr2h	equ	0xFDA
  3971                           fsr2l	equ	0xFD9
  3972                           status	equ	0xFD8
  3973                           
  3974 ;; *************** function _USBStdFeatureReqHandler *****************
  3975 ;; Defined at:
  3976 ;;		line 1547 in file "../src/usb_device.c"
  3977 ;; Parameters:    Size  Location     Type
  3978 ;;		None
  3979 ;; Auto vars:     Size  Location     Type
  3980 ;;		None
  3981 ;; Return value:  Size  Location     Type
  3982 ;;                  1    wreg      void 
  3983 ;; Registers used:
  3984 ;;		wreg, fsr2l, fsr2h, status,2, status,0, prodl, prodh
  3985 ;; Tracked objects:
  3986 ;;		On entry : 0/0
  3987 ;;		On exit  : 0/0
  3988 ;;		Unchanged: 0/0
  3989 ;; Data sizes:     COMRAM   BANK0   BANK1   BANK2   BANK3  BANK4h   BANK5   BANK6   BANK7
  3990 ;;      Params:         0       0       0       0       0       0       0       0       0
  3991 ;;      Locals:         0       0       0       0       0       0       0       0       0
  3992 ;;      Temps:          4       0       0       0       0       0       0       0       0
  3993 ;;      Totals:         4       0       0       0       0       0       0       0       0
  3994 ;;Total ram usage:        4 bytes
  3995 ;; Hardware stack levels used:    1
  3996 ;; This function calls:
  3997 ;;		Nothing
  3998 ;; This function is called by:
  3999 ;;		_USBCheckStdRequest
  4000 ;; This function uses a non-reentrant model
  4001 ;;
  4002                           
  4003                           	psect	text18
  4004  0000'                    __ptext18:
  4005                           	opt stack 0
  4006  0000'                    _USBStdFeatureReqHandler:
  4007                           	opt stack 26
  4008                           
  4009                           ;usb_device.c: 1550: if((SetupPkt.bFeature == 0x01)&&(SetupPkt.Recipient == 0))
  4010                           
  4011                           ;incstack = 0
  4012  0000' 0402'              	decf	_SetupPkt+2,w,c
  4013  0002' A4D8               	btfss	status,2,c
  4014  0004' D00E               	goto	l2633
  4015  0006' 5000'              	movf	_SetupPkt,w,c
  4016  0008' 0B1F               	andlw	31
  4017  000A' 0900               	iorlw	0
  4018  000C' A4D8               	btfss	status,2,c
  4019  000E' D009               	goto	l2633
  4020                           
  4021                           ;usb_device.c: 1551: {
  4022                           ;usb_device.c: 1552: ctrl_trf_session_owner = 1;
  4023  0010' 0E01               	movlw	1
  4024  0012' 6E3F'              	movwf	_ctrl_trf_session_owner,c
  4025                           
  4026                           ;usb_device.c: 1553: if(SetupPkt.bRequest == 3)
  4027  0014' 0E03               	movlw	3
  4028  0016' 1801'              	xorwf	_SetupPkt+1,w,c
  4029  0018' A4D8               	btfss	status,2,c
  4030  001A' D002               	goto	l611
  4031                           
  4032                           ;usb_device.c: 1554: usb_stat.RemoteWakeup = 1;
  4033  001C' 8044'              	bsf	_usb_stat,0,c
  4034  001E' D001               	goto	l2633
  4035  0020'                    l611:
  4036                           
  4037                           ;usb_device.c: 1555: else
  4038                           ;usb_device.c: 1556: usb_stat.RemoteWakeup = 0;
  4039  0020' 9044'              	bcf	_usb_stat,0,c
  4040  0022'                    l2633:
  4041                           
  4042                           ;usb_device.c: 1557: }
  4043                           ;usb_device.c: 1560: if((SetupPkt.bFeature == 0x00)&&(SetupPkt.Recipient == 2)&&(SetupPk
      +                          t.EPNum != 0))
  4044  0022' 5002'              	movf	_SetupPkt+2,w,c
  4045  0024' A4D8               	btfss	status,2,c
  4046  0026' 0012               	return	
  4047  0028' 5000'              	movf	_SetupPkt,w,c
  4048  002A' 0B1F               	andlw	31
  4049  002C' 0A02               	xorlw	2
  4050  002E' A4D8               	btfss	status,2,c
  4051  0030' 0012               	return	
  4052  0032' 5004'              	movf	_SetupPkt+4,w,c
  4053  0034' 0B0F               	andlw	15
  4054  0036' 0900               	iorlw	0
  4055  0038' B4D8               	btfsc	status,2,c
  4056  003A' 0012               	return	
  4057                           
  4058                           ;usb_device.c: 1561: {
  4059                           ;usb_device.c: 1562: ctrl_trf_session_owner = 1;
  4060  003C' 0E01               	movlw	1
  4061  003E' 6E3F'              	movwf	_ctrl_trf_session_owner,c
  4062                           
  4063                           ;usb_device.c: 1564: pDst.bRam = (uint8_t*)&ep0BoEven+(SetupPkt.EPNum*8)+(SetupPkt.EPDir
      +                          *4)+4;
  4064  0040' 5004'              	movf	_SetupPkt+4,w,c
  4065  0042' 0B0F               	andlw	15
  4066  0044' 6E00'              	movwf	??_USBStdFeatureReqHandler& (0+255),c
  4067  0046' 5000'              	movf	??_USBStdFeatureReqHandler,w,c
  4068  0048' 0D08               	mullw	8
  4069  004A' 0E00               	movlw	0
  4070  004C' 6E00'              	movwf	(??_USBStdFeatureReqHandler+1)& (0+255),c
  4071  004E' 0E04               	movlw	4
  4072  0050' 6E00'              	movwf	(??_USBStdFeatureReqHandler+2)& (0+255),c
  4073  0052' 50F3               	movf	prodl,w,c
  4074  0054' 2601'              	addwf	??_USBStdFeatureReqHandler+1,f,c
  4075  0056' 50F4               	movf	prodh,w,c
  4076  0058' 2202'              	addwfc	??_USBStdFeatureReqHandler+2,f,c
  4077  005A' AE04'              	btfss	_SetupPkt+4,7,c
  4078  005C' D003               	goto	u1640
  4079  005E' 6A00'              	clrf	(??_USBStdFeatureReqHandler+3)& (0+255),c
  4080  0060' 2A00'              	incf	(??_USBStdFeatureReqHandler+3)& (0+255),f,c
  4081  0062' D001               	goto	u1648
  4082  0064'                    u1640:
  4083  0064' 6A00'              	clrf	(??_USBStdFeatureReqHandler+3)& (0+255),c
  4084  0066'                    u1648:
  4085  0066' 5003'              	movf	??_USBStdFeatureReqHandler+3,w,c
  4086  0068' 0D04               	mullw	4
  4087  006A' 50F3               	movf	prodl,w,c
  4088  006C' 2601'              	addwf	??_USBStdFeatureReqHandler+1,f,c
  4089  006E' 50F4               	movf	prodh,w,c
  4090  0070' 2202'              	addwfc	??_USBStdFeatureReqHandler+2,f,c
  4091  0072' 0E04               	movlw	4
  4092  0074' 2401'              	addwf	??_USBStdFeatureReqHandler+1,w,c
  4093  0076' 6E19'              	movwf	_pDst,c
  4094  0078' 0E00               	movlw	0
  4095  007A' 2002'              	addwfc	??_USBStdFeatureReqHandler+2,w,c
  4096  007C' 6E1A'              	movwf	_pDst+1,c
  4097                           
  4098                           ;usb_device.c: 1566: if(SetupPkt.bRequest == 3)
  4099  007E' 0E03               	movlw	3
  4100  0080' 1801'              	xorwf	_SetupPkt+1,w,c
  4101  0082' A4D8               	btfss	status,2,c
  4102  0084' D00D               	goto	l614
  4103                           
  4104                           ;usb_device.c: 1567: {
  4105                           ;usb_device.c: 1568: *pDst.bRam = 0x04;
  4106  0086' C019' FFD9         	movff	_pDst,fsr2l
  4107  008A' C01A' FFDA         	movff	_pDst+1,fsr2h
  4108  008E' 0E04               	movlw	4
  4109  0090' 6EDF               	movwf	indf2,c
  4110                           
  4111                           ;usb_device.c: 1569: *pDst.bRam |= 0x80;
  4112  0092' C019' FFD9         	movff	_pDst,fsr2l
  4113  0096' C01A' FFDA         	movff	_pDst+1,fsr2h
  4114  009A' 0E00               	movlw	0
  4115  009C' 8EDB               	bsf	plusw2,7,c
  4116                           
  4117                           ;usb_device.c: 1570: }
  4118  009E' 0012               	return	
  4119  00A0'                    l614:
  4120                           
  4121                           ;usb_device.c: 1571: else
  4122                           ;usb_device.c: 1572: {
  4123                           ;usb_device.c: 1573: if(SetupPkt.EPDir == 1)
  4124  00A0' AE04'              	btfss	_SetupPkt+4,7,c
  4125  00A2' D007               	goto	l2651
  4126                           
  4127                           ;usb_device.c: 1574: *pDst.bRam = 0x00|0x40;
  4128  00A4' C019' FFD9         	movff	_pDst,fsr2l
  4129  00A8' C01A' FFDA         	movff	_pDst+1,fsr2h
  4130  00AC' 0E40               	movlw	64
  4131  00AE' 6EDF               	movwf	indf2,c
  4132  00B0' 0012               	return	
  4133  00B2'                    l2651:
  4134                           
  4135                           ;usb_device.c: 1575: else
  4136                           ;usb_device.c: 1576: {
  4137                           ;usb_device.c: 1577: *pDst.bRam = 0x00|0x08;
  4138  00B2' C019' FFD9         	movff	_pDst,fsr2l
  4139  00B6' C01A' FFDA         	movff	_pDst+1,fsr2h
  4140  00BA' 0E08               	movlw	8
  4141  00BC' 6EDF               	movwf	indf2,c
  4142                           
  4143                           ;usb_device.c: 1578: *pDst.bRam |= 0x80;
  4144  00BE' C019' FFD9         	movff	_pDst,fsr2l
  4145  00C2' C01A' FFDA         	movff	_pDst+1,fsr2h
  4146  00C6' 0E00               	movlw	0
  4147  00C8' 8EDB               	bsf	plusw2,7,c
  4148  00CA' 0012               	return	
  4149  00CC'                    __end_of_USBStdFeatureReqHandler:
  4150                           	opt stack 0
  4151                           stkptr	equ	0xFFC
  4152                           tblptru	equ	0xFF8
  4153                           tblptrh	equ	0xFF7
  4154                           tblptrl	equ	0xFF6
  4155                           tablat	equ	0xFF5
  4156                           prodh	equ	0xFF4
  4157                           prodl	equ	0xFF3
  4158                           intcon	equ	0xFF2
  4159                           postinc0	equ	0xFEE
  4160                           wreg	equ	0xFE8
  4161                           indf1	equ	0xFE7
  4162                           fsr1h	equ	0xFE2
  4163                           fsr1l	equ	0xFE1
  4164                           indf2	equ	0xFDF
  4165                           postinc2	equ	0xFDE
  4166                           postdec2	equ	0xFDD
  4167                           plusw2	equ	0xFDB
  4168                           fsr2h	equ	0xFDA
  4169                           fsr2l	equ	0xFD9
  4170                           status	equ	0xFD8
  4171                           
  4172 ;; *************** function _USBCBCheckOtherReq *****************
  4173 ;; Defined at:
  4174 ;;		line 691 in file "../src/main.c"
  4175 ;; Parameters:    Size  Location     Type
  4176 ;;		None
  4177 ;; Auto vars:     Size  Location     Type
  4178 ;;		None
  4179 ;; Return value:  Size  Location     Type
  4180 ;;                  1    wreg      void 
  4181 ;; Registers used:
  4182 ;;		wreg, status,2, status,0, cstack
  4183 ;; Tracked objects:
  4184 ;;		On entry : 0/0
  4185 ;;		On exit  : 0/0
  4186 ;;		Unchanged: 0/0
  4187 ;; Data sizes:     COMRAM   BANK0   BANK1   BANK2   BANK3  BANK4h   BANK5   BANK6   BANK7
  4188 ;;      Params:         0       0       0       0       0       0       0       0       0
  4189 ;;      Locals:         0       0       0       0       0       0       0       0       0
  4190 ;;      Temps:          0       0       0       0       0       0       0       0       0
  4191 ;;      Totals:         0       0       0       0       0       0       0       0       0
  4192 ;;Total ram usage:        0 bytes
  4193 ;; Hardware stack levels used:    1
  4194 ;; Hardware stack levels required when called:    2
  4195 ;; This function calls:
  4196 ;;		_USBCheckHIDRequest
  4197 ;; This function is called by:
  4198 ;;		_USBCtrlTrfSetupHandler
  4199 ;; This function uses a non-reentrant model
  4200 ;;
  4201                           
  4202                           	psect	text19
  4203  0000'                    __ptext19:
  4204                           	opt stack 0
  4205  0000'                    _USBCBCheckOtherReq:
  4206                           	opt stack 25
  4207                           
  4208                           ;main.c: 693: USBCheckHIDRequest();
  4209                           
  4210                           ;incstack = 0
  4211  0000' EC00' F000'        	call	_USBCheckHIDRequest	;wreg free
  4212  0004' 0012               	return		;funcret
  4213  0006'                    __end_of_USBCBCheckOtherReq:
  4214                           	opt stack 0
  4215                           stkptr	equ	0xFFC
  4216                           tblptru	equ	0xFF8
  4217                           tblptrh	equ	0xFF7
  4218                           tblptrl	equ	0xFF6
  4219                           tablat	equ	0xFF5
  4220                           prodh	equ	0xFF4
  4221                           prodl	equ	0xFF3
  4222                           intcon	equ	0xFF2
  4223                           postinc0	equ	0xFEE
  4224                           wreg	equ	0xFE8
  4225                           indf1	equ	0xFE7
  4226                           fsr1h	equ	0xFE2
  4227                           fsr1l	equ	0xFE1
  4228                           indf2	equ	0xFDF
  4229                           postinc2	equ	0xFDE
  4230                           postdec2	equ	0xFDD
  4231                           plusw2	equ	0xFDB
  4232                           fsr2h	equ	0xFDA
  4233                           fsr2l	equ	0xFD9
  4234                           status	equ	0xFD8
  4235                           
  4236 ;; *************** function _USBCheckHIDRequest *****************
  4237 ;; Defined at:
  4238 ;;		line 73 in file "../src/usb_device_hid.c"
  4239 ;; Parameters:    Size  Location     Type
  4240 ;;		None
  4241 ;; Auto vars:     Size  Location     Type
  4242 ;;		None
  4243 ;; Return value:  Size  Location     Type
  4244 ;;                  1    wreg      void 
  4245 ;; Registers used:
  4246 ;;		wreg, status,2, status,0, cstack
  4247 ;; Tracked objects:
  4248 ;;		On entry : 0/0
  4249 ;;		On exit  : 0/0
  4250 ;;		Unchanged: 0/0
  4251 ;; Data sizes:     COMRAM   BANK0   BANK1   BANK2   BANK3  BANK4h   BANK5   BANK6   BANK7
  4252 ;;      Params:         0       0       0       0       0       0       0       0       0
  4253 ;;      Locals:         0       0       0       0       0       0       0       0       0
  4254 ;;      Temps:          0       0       0       0       0       0       0       0       0
  4255 ;;      Totals:         0       0       0       0       0       0       0       0       0
  4256 ;;Total ram usage:        0 bytes
  4257 ;; Hardware stack levels used:    1
  4258 ;; Hardware stack levels required when called:    1
  4259 ;; This function calls:
  4260 ;;		_HIDGetReportHandler
  4261 ;;		_HIDSetReportHandler
  4262 ;; This function is called by:
  4263 ;;		_USBCBCheckOtherReq
  4264 ;; This function uses a non-reentrant model
  4265 ;;
  4266                           
  4267                           	psect	text20
  4268  0000'                    __ptext20:
  4269                           	opt stack 0
  4270  0000'                    _USBCheckHIDRequest:
  4271                           	opt stack 25
  4272                           
  4273                           ;usb_device_hid.c: 75: if(SetupPkt.Recipient != 1) return;
  4274                           
  4275                           ;incstack = 0
  4276  0000' 5000'              	movf	_SetupPkt,w,c
  4277  0002' 0B1F               	andlw	31
  4278  0004' 06E8               	decf	wreg,f,c
  4279  0006' A4D8               	btfss	status,2,c
  4280  0008' 0012               	return	
  4281                           
  4282                           ;usb_device_hid.c: 76: if(SetupPkt.bIntfID != 0x00) return;
  4283  000A' 5004'              	movf	_SetupPkt+4,w,c
  4284  000C' A4D8               	btfss	status,2,c
  4285  000E' 0012               	return	
  4286                           
  4287                           ;usb_device_hid.c: 83: if(SetupPkt.bRequest == 6)
  4288  0010' 0E06               	movlw	6
  4289  0012' 1801'              	xorwf	_SetupPkt+1,w,c
  4290  0014' B4D8               	btfsc	status,2,c
  4291  0016' D01C               	goto	l2443
  4292  0018' D024               	goto	l2445
  4293  001A'                    l2427:
  4294                           
  4295                           ;usb_device_hid.c: 88: ctrl_trf_session_owner = 2;
  4296  001A' 0E02               	movlw	2
  4297  001C' 6E3F'              	movwf	_ctrl_trf_session_owner,c
  4298                           
  4299                           ;usb_device_hid.c: 89: pSrc.bRom = &CFG01[18];
  4300  001E' 0E00'              	movlw	low (_CFG01+18)
  4301  0020' 6E1C'              	movwf	_pSrc,c
  4302  0022' 0E00'              	movlw	high (_CFG01+18)
  4303  0024' 6E1D'              	movwf	_pSrc+1,c
  4304                           
  4305                           ;usb_device_hid.c: 90: wCount.Val = sizeof(USB_HID_DSC);
  4306  0026' 0E00               	movlw	0
  4307  0028' 6E2C'              	movwf	_wCount+1,c
  4308  002A' 0E09               	movlw	9
  4309  002C' D00F               	goto	L6
  4310  002E'                    l2433:
  4311                           
  4312                           ;usb_device_hid.c: 93: ctrl_trf_session_owner = 2;
  4313  002E' 0E02               	movlw	2
  4314  0030' 6E3F'              	movwf	_ctrl_trf_session_owner,c
  4315                           
  4316                           ;usb_device_hid.c: 94: { if(usb_active_cfg == 1) pSrc.bRom = (const uint8_t*)&hid_rpt01;
      +                           };
  4317  0032' 0447'              	decf	_usb_active_cfg,w,c
  4318  0034' A4D8               	btfss	status,2,c
  4319  0036' D004               	goto	l684
  4320  0038' 0E00'              	movlw	low _hid_rpt01
  4321  003A' 6E1C'              	movwf	_pSrc,c
  4322  003C' 0E00'              	movlw	high _hid_rpt01
  4323  003E' 6E1D'              	movwf	_pSrc+1,c
  4324  0040'                    l684:
  4325                           
  4326                           ;usb_device_hid.c: 95: { if(usb_active_cfg == 1) wCount.Val = sizeof(hid_rpt01); };
  4327  0040' 0447'              	decf	_usb_active_cfg,w,c
  4328  0042' A4D8               	btfss	status,2,c
  4329  0044' D00D               	goto	l682
  4330  0046' 0E00               	movlw	0
  4331  0048' 6E2C'              	movwf	_wCount+1,c
  4332  004A' 0E1D               	movlw	29
  4333  004C'                    L6:
  4334  004C' 6E2B'              	movwf	_wCount,c
  4335                           
  4336                           ;usb_device_hid.c: 100: }
  4337                           
  4338                           ;usb_device_hid.c: 99: break;
  4339                           
  4340                           ;usb_device_hid.c: 97: case 0x23:
  4341                           
  4342                           ;usb_device_hid.c: 96: break;
  4343  004E' D008               	goto	l682
  4344  0050'                    l2443:
  4345  0050' 5003'              	movf	_SetupPkt+3,w,c
  4346                           
  4347                           ; Switch size 1, requested type "space"
  4348                           ; Number of cases is 3, Range of values is 33 to 35
  4349                           ; switch strategies available:
  4350                           ; Name         Instructions Cycles
  4351                           ; simple_byte           10     6 (average)
  4352                           ;	Chosen strategy is simple_byte
  4353  0052' 0A21               	xorlw	33	; case 33
  4354  0054' B4D8               	btfsc	status,2,c
  4355  0056' D7E1               	goto	l2427
  4356  0058' 0A03               	xorlw	3	; case 34
  4357  005A' B4D8               	btfsc	status,2,c
  4358  005C' D7E8               	goto	l2433
  4359  005E' 0A01               	xorlw	1	; case 35
  4360  0060'                    l682:
  4361                           
  4362                           ;usb_device_hid.c: 101: usb_stat.ctrl_trf_mem = 1;
  4363  0060' 8244'              	bsf	_usb_stat,1,c
  4364  0062'                    l2445:
  4365                           
  4366                           ;usb_device_hid.c: 102: }
  4367                           ;usb_device_hid.c: 104: if(SetupPkt.RequestType != 0x01) return;
  4368  0062' 3800'              	swapf	_SetupPkt,w,c
  4369  0064' 32E8               	rrcf	wreg,f,c
  4370  0066' 0B03               	andlw	3
  4371  0068' 06E8               	decf	wreg,f,c
  4372  006A' A4D8               	btfss	status,2,c
  4373  006C' 0012               	return	
  4374  006E' D024               	goto	l2479
  4375  0070'                    l2449:
  4376                           
  4377                           ;usb_device_hid.c: 108: HIDGetReportHandler();
  4378  0070' EC00' F000'        	call	_HIDGetReportHandler	;wreg free
  4379                           
  4380                           ;usb_device_hid.c: 109: break;
  4381  0074' 0012               	return	
  4382  0076'                    l2451:
  4383                           
  4384                           ;usb_device_hid.c: 111: HIDSetReportHandler();
  4385  0076' EC00' F000'        	call	_HIDSetReportHandler	;wreg free
  4386                           
  4387                           ;usb_device_hid.c: 112: break;
  4388  007A' 0012               	return	
  4389  007C'                    l2453:
  4390                           
  4391                           ;usb_device_hid.c: 114: ctrl_trf_session_owner = 2;
  4392  007C' 0E02               	movlw	2
  4393  007E' 6E3F'              	movwf	_ctrl_trf_session_owner,c
  4394                           
  4395                           ;usb_device_hid.c: 115: pSrc.bRam = (uint8_t*)&idle_rate;
  4396  0080' 0E00'              	movlw	low _idle_rate
  4397  0082' 6E1C'              	movwf	_pSrc,c
  4398  0084' 0E00'              	movlw	high _idle_rate
  4399  0086' 6E1D'              	movwf	_pSrc+1,c
  4400                           
  4401                           ;usb_device_hid.c: 116: usb_stat.ctrl_trf_mem = 0;
  4402  0088' 9244'              	bcf	_usb_stat,1,c
  4403                           
  4404                           ;usb_device_hid.c: 117: wCount.v[0] = 1;
  4405  008A' 0E01               	movlw	1
  4406  008C' 6E2B'              	movwf	_wCount,c
  4407                           
  4408                           ;usb_device_hid.c: 118: break;
  4409  008E' 0012               	return	
  4410  0090'                    l2461:
  4411                           
  4412                           ;usb_device_hid.c: 120: ctrl_trf_session_owner = 2;
  4413  0090' 0E02               	movlw	2
  4414  0092' 6E3F'              	movwf	_ctrl_trf_session_owner,c
  4415                           
  4416                           ;usb_device_hid.c: 122: idle_rate = SetupPkt.W_Value.v[1];
  4417  0094' C003' F046'        	movff	_SetupPkt+3,_idle_rate
  4418                           
  4419                           ;usb_device_hid.c: 123: break;
  4420  0098' 0012               	return	
  4421  009A'                    l2465:
  4422                           
  4423                           ;usb_device_hid.c: 125: ctrl_trf_session_owner = 2;
  4424  009A' 0E02               	movlw	2
  4425  009C' 6E3F'              	movwf	_ctrl_trf_session_owner,c
  4426                           
  4427                           ;usb_device_hid.c: 126: pSrc.bRam = (uint8_t*)&active_protocol;
  4428  009E' 0E00'              	movlw	low _active_protocol
  4429  00A0' 6E1C'              	movwf	_pSrc,c
  4430  00A2' 0E00'              	movlw	high _active_protocol
  4431  00A4' 6E1D'              	movwf	_pSrc+1,c
  4432                           
  4433                           ;usb_device_hid.c: 127: usb_stat.ctrl_trf_mem = 0;
  4434  00A6' 9244'              	bcf	_usb_stat,1,c
  4435                           
  4436                           ;usb_device_hid.c: 128: wCount.v[0] = 1;
  4437  00A8' 0E01               	movlw	1
  4438  00AA' 6E2B'              	movwf	_wCount,c
  4439                           
  4440                           ;usb_device_hid.c: 129: break;
  4441  00AC' 0012               	return	
  4442  00AE'                    l2473:
  4443                           
  4444                           ;usb_device_hid.c: 131: ctrl_trf_session_owner = 2;
  4445  00AE' 0E02               	movlw	2
  4446  00B0' 6E3F'              	movwf	_ctrl_trf_session_owner,c
  4447                           
  4448                           ;usb_device_hid.c: 133: active_protocol = SetupPkt.W_Value.v[0];
  4449  00B2' C002' F045'        	movff	_SetupPkt+2,_active_protocol
  4450                           
  4451                           ;usb_device_hid.c: 135: }
  4452                           
  4453                           ;usb_device_hid.c: 134: break;
  4454  00B6' 0012               	return	
  4455  00B8'                    l2479:
  4456  00B8' 5001'              	movf	_SetupPkt+1,w,c
  4457                           
  4458                           ; Switch size 1, requested type "space"
  4459                           ; Number of cases is 6, Range of values is 1 to 11
  4460                           ; switch strategies available:
  4461                           ; Name         Instructions Cycles
  4462                           ; simple_byte           19    10 (average)
  4463                           ;	Chosen strategy is simple_byte
  4464  00BA' 0A01               	xorlw	1	; case 1
  4465  00BC' B4D8               	btfsc	status,2,c
  4466  00BE' D7D8               	goto	l2449
  4467  00C0' 0A03               	xorlw	3	; case 2
  4468  00C2' B4D8               	btfsc	status,2,c
  4469  00C4' D7DB               	goto	l2453
  4470  00C6' 0A01               	xorlw	1	; case 3
  4471  00C8' B4D8               	btfsc	status,2,c
  4472  00CA' D7E7               	goto	l2465
  4473  00CC' 0A0A               	xorlw	10	; case 9
  4474  00CE' B4D8               	btfsc	status,2,c
  4475  00D0' D7D2               	goto	l2451
  4476  00D2' 0A03               	xorlw	3	; case 10
  4477  00D4' B4D8               	btfsc	status,2,c
  4478  00D6' D7DC               	goto	l2461
  4479  00D8' 0A01               	xorlw	1	; case 11
  4480  00DA' A4D8               	btfss	status,2,c
  4481  00DC' 0012               	return	
  4482  00DE' D7E7               	goto	l2473
  4483  00E0'                    __end_of_USBCheckHIDRequest:
  4484                           	opt stack 0
  4485                           stkptr	equ	0xFFC
  4486                           tblptru	equ	0xFF8
  4487                           tblptrh	equ	0xFF7
  4488                           tblptrl	equ	0xFF6
  4489                           tablat	equ	0xFF5
  4490                           prodh	equ	0xFF4
  4491                           prodl	equ	0xFF3
  4492                           intcon	equ	0xFF2
  4493                           postinc0	equ	0xFEE
  4494                           wreg	equ	0xFE8
  4495                           indf1	equ	0xFE7
  4496                           fsr1h	equ	0xFE2
  4497                           fsr1l	equ	0xFE1
  4498                           indf2	equ	0xFDF
  4499                           postinc2	equ	0xFDE
  4500                           postdec2	equ	0xFDD
  4501                           plusw2	equ	0xFDB
  4502                           fsr2h	equ	0xFDA
  4503                           fsr2l	equ	0xFD9
  4504                           status	equ	0xFD8
  4505                           
  4506 ;; *************** function _HIDSetReportHandler *****************
  4507 ;; Defined at:
  4508 ;;		line 144 in file "../src/usb_device_hid.c"
  4509 ;; Parameters:    Size  Location     Type
  4510 ;;		None
  4511 ;; Auto vars:     Size  Location     Type
  4512 ;;		None
  4513 ;; Return value:  Size  Location     Type
  4514 ;;                  1    wreg      void 
  4515 ;; Registers used:
  4516 ;;		None
  4517 ;; Tracked objects:
  4518 ;;		On entry : 0/0
  4519 ;;		On exit  : 0/0
  4520 ;;		Unchanged: 0/0
  4521 ;; Data sizes:     COMRAM   BANK0   BANK1   BANK2   BANK3  BANK4h   BANK5   BANK6   BANK7
  4522 ;;      Params:         0       0       0       0       0       0       0       0       0
  4523 ;;      Locals:         0       0       0       0       0       0       0       0       0
  4524 ;;      Temps:          0       0       0       0       0       0       0       0       0
  4525 ;;      Totals:         0       0       0       0       0       0       0       0       0
  4526 ;;Total ram usage:        0 bytes
  4527 ;; Hardware stack levels used:    1
  4528 ;; This function calls:
  4529 ;;		Nothing
  4530 ;; This function is called by:
  4531 ;;		_USBCheckHIDRequest
  4532 ;; This function uses a non-reentrant model
  4533 ;;
  4534                           
  4535                           	psect	text21
  4536  0000'                    __ptext21:
  4537                           	opt stack 0
  4538  0000'                    _HIDSetReportHandler:
  4539                           	opt stack 25
  4540                           
  4541                           ;incstack = 0
  4542  0000' 0012               	return		;funcret
  4543  0002'                    __end_of_HIDSetReportHandler:
  4544                           	opt stack 0
  4545                           stkptr	equ	0xFFC
  4546                           tblptru	equ	0xFF8
  4547                           tblptrh	equ	0xFF7
  4548                           tblptrl	equ	0xFF6
  4549                           tablat	equ	0xFF5
  4550                           prodh	equ	0xFF4
  4551                           prodl	equ	0xFF3
  4552                           intcon	equ	0xFF2
  4553                           postinc0	equ	0xFEE
  4554                           wreg	equ	0xFE8
  4555                           indf1	equ	0xFE7
  4556                           fsr1h	equ	0xFE2
  4557                           fsr1l	equ	0xFE1
  4558                           indf2	equ	0xFDF
  4559                           postinc2	equ	0xFDE
  4560                           postdec2	equ	0xFDD
  4561                           plusw2	equ	0xFDB
  4562                           fsr2h	equ	0xFDA
  4563                           fsr2l	equ	0xFD9
  4564                           status	equ	0xFD8
  4565                           
  4566 ;; *************** function _HIDGetReportHandler *****************
  4567 ;; Defined at:
  4568 ;;		line 139 in file "../src/usb_device_hid.c"
  4569 ;; Parameters:    Size  Location     Type
  4570 ;;		None
  4571 ;; Auto vars:     Size  Location     Type
  4572 ;;		None
  4573 ;; Return value:  Size  Location     Type
  4574 ;;                  1    wreg      void 
  4575 ;; Registers used:
  4576 ;;		None
  4577 ;; Tracked objects:
  4578 ;;		On entry : 0/0
  4579 ;;		On exit  : 0/0
  4580 ;;		Unchanged: 0/0
  4581 ;; Data sizes:     COMRAM   BANK0   BANK1   BANK2   BANK3  BANK4h   BANK5   BANK6   BANK7
  4582 ;;      Params:         0       0       0       0       0       0       0       0       0
  4583 ;;      Locals:         0       0       0       0       0       0       0       0       0
  4584 ;;      Temps:          0       0       0       0       0       0       0       0       0
  4585 ;;      Totals:         0       0       0       0       0       0       0       0       0
  4586 ;;Total ram usage:        0 bytes
  4587 ;; Hardware stack levels used:    1
  4588 ;; This function calls:
  4589 ;;		Nothing
  4590 ;; This function is called by:
  4591 ;;		_USBCheckHIDRequest
  4592 ;; This function uses a non-reentrant model
  4593 ;;
  4594                           
  4595                           	psect	text22
  4596  0000'                    __ptext22:
  4597                           	opt stack 0
  4598  0000'                    _HIDGetReportHandler:
  4599                           	opt stack 25
  4600                           
  4601                           ;incstack = 0
  4602  0000' 0012               	return		;funcret
  4603  0002'                    __end_of_HIDGetReportHandler:
  4604                           	opt stack 0
  4605                           stkptr	equ	0xFFC
  4606                           tblptru	equ	0xFF8
  4607                           tblptrh	equ	0xFF7
  4608                           tblptrl	equ	0xFF6
  4609                           tablat	equ	0xFF5
  4610                           prodh	equ	0xFF4
  4611                           prodl	equ	0xFF3
  4612                           intcon	equ	0xFF2
  4613                           postinc0	equ	0xFEE
  4614                           wreg	equ	0xFE8
  4615                           indf1	equ	0xFE7
  4616                           fsr1h	equ	0xFE2
  4617                           fsr1l	equ	0xFE1
  4618                           indf2	equ	0xFDF
  4619                           postinc2	equ	0xFDE
  4620                           postdec2	equ	0xFDD
  4621                           plusw2	equ	0xFDB
  4622                           fsr2h	equ	0xFDA
  4623                           fsr2l	equ	0xFD9
  4624                           status	equ	0xFD8
  4625                           
  4626 ;; *************** function _USBCtrlTrfInHandler *****************
  4627 ;; Defined at:
  4628 ;;		line 1024 in file "../src/usb_device.c"
  4629 ;; Parameters:    Size  Location     Type
  4630 ;;		None
  4631 ;; Auto vars:     Size  Location     Type
  4632 ;;		None
  4633 ;; Return value:  Size  Location     Type
  4634 ;;                  1    wreg      void 
  4635 ;; Registers used:
  4636 ;;		wreg, fsr1l, fsr1h, fsr2l, fsr2h, status,2, status,0, tblptrl, tblptrh, tblptru, cstack
  4637 ;; Tracked objects:
  4638 ;;		On entry : 0/0
  4639 ;;		On exit  : 0/0
  4640 ;;		Unchanged: 0/0
  4641 ;; Data sizes:     COMRAM   BANK0   BANK1   BANK2   BANK3  BANK4h   BANK5   BANK6   BANK7
  4642 ;;      Params:         0       0       0       0       0       0       0       0       0
  4643 ;;      Locals:         0       0       0       0       0       0       0       0       0
  4644 ;;      Temps:          0       0       0       0       0       0       0       0       0
  4645 ;;      Totals:         0       0       0       0       0       0       0       0       0
  4646 ;;Total ram usage:        0 bytes
  4647 ;; Hardware stack levels used:    1
  4648 ;; Hardware stack levels required when called:    1
  4649 ;; This function calls:
  4650 ;;		_USBCtrlTrfTxService
  4651 ;; This function is called by:
  4652 ;;		_USBDeviceTasks
  4653 ;; This function uses a non-reentrant model
  4654 ;;
  4655                           
  4656                           	psect	text23
  4657  0000'                    __ptext23:
  4658                           	opt stack 0
  4659  0000'                    _USBCtrlTrfInHandler:
  4660                           	opt stack 27
  4661                           
  4662                           ;usb_device.c: 1029: if(usb_device_state == 4)
  4663                           
  4664                           ;incstack = 0
  4665  0000' 0E04               	movlw	4
  4666  0002' 1843'              	xorwf	_usb_device_state,w,c
  4667  0004' A4D8               	btfss	status,2,c
  4668  0006' D009               	goto	l2847
  4669                           
  4670                           ;usb_device.c: 1030: {
  4671                           ;usb_device.c: 1031: UADDR = SetupPkt.bDevADR;
  4672  0008' C002' FF63         	movff	_SetupPkt+2,3939	;volatile
  4673                           
  4674                           ;usb_device.c: 1032: if(UADDR > 0)
  4675  000C' 5063               	movf	3939,w,c	;volatile
  4676  000E' B4D8               	btfsc	status,2,c
  4677  0010' D002               	goto	l2845
  4678                           
  4679                           ;usb_device.c: 1033: usb_device_state = 5;
  4680  0012' 0E05               	movlw	5
  4681  0014' D001               	goto	L7
  4682  0016'                    l2845:
  4683                           
  4684                           ;usb_device.c: 1034: else
  4685                           ;usb_device.c: 1035: usb_device_state = 3;
  4686  0016' 0E03               	movlw	3
  4687  0018'                    L7:
  4688  0018' 6E43'              	movwf	_usb_device_state,c
  4689  001A'                    l2847:
  4690                           
  4691                           ;usb_device.c: 1036: }
  4692                           ;usb_device.c: 1040: if(ctrl_trf_state == 1)
  4693  001A' 0440'              	decf	_ctrl_trf_state,w,c
  4694  001C' A4D8               	btfss	status,2,c
  4695  001E' 0012               	return	
  4696                           
  4697                           ;usb_device.c: 1041: {
  4698                           ;usb_device.c: 1044: USBCtrlTrfTxService();
  4699  0020' EC00' F000'        	call	_USBCtrlTrfTxService	;wreg free
  4700                           
  4701                           ;usb_device.c: 1047: if(short_pkt_status == 2)
  4702  0024' 0E02               	movlw	2
  4703  0026' 1842'              	xorwf	_short_pkt_status,w,c
  4704  0028' A4D8               	btfss	status,2,c
  4705  002A' D006               	goto	l522
  4706                           
  4707                           ;usb_device.c: 1048: {
  4708                           ;usb_device.c: 1051: ep0Bi.Stat._byte = 0x04;
  4709  002C' 0E04               	movlw	4
  4710  002E' 0104               	movlb	4	; () banked
  4711  0030' 6F08               	movwf	8,b	;volatile
  4712                           
  4713                           ; BSR set to: 4
  4714                           ;usb_device.c: 1052: ep0Bi.Stat._byte |= 0x80;
  4715  0032' 0104               	movlb	4	; () banked
  4716  0034' 8F08               	bsf	8,7,b	;volatile
  4717                           
  4718                           ;usb_device.c: 1053: }
  4719  0036' 0012               	return	
  4720  0038'                    l522:
  4721                           
  4722                           ;usb_device.c: 1054: else
  4723                           ;usb_device.c: 1055: {
  4724                           ;usb_device.c: 1057: if(ep0Bi.Stat.DTS == 0)
  4725  0038' 0104               	movlb	4	; () banked
  4726  003A' BD08               	btfsc	8,6,b	;volatile
  4727  003C' D002               	goto	l2859
  4728                           
  4729                           ; BSR set to: 4
  4730                           ;usb_device.c: 1058: ep0Bi.Stat._byte = 0x40|0x08;
  4731  003E' 0E48               	movlw	72
  4732  0040' D001               	goto	L8
  4733  0042'                    l2859:
  4734                           
  4735                           ; BSR set to: 4
  4736                           ;usb_device.c: 1059: else
  4737                           ;usb_device.c: 1060: ep0Bi.Stat._byte = 0x00|0x08;
  4738  0042' 0E08               	movlw	8
  4739  0044'                    L8:
  4740  0044' 0104               	movlb	4	; () banked
  4741  0046' 6F08               	movwf	8,b	;volatile
  4742                           
  4743                           ; BSR set to: 4
  4744                           ;usb_device.c: 1062: ep0Bi.Stat._byte |= 0x80;
  4745                           
  4746                           ; BSR set to: 4
  4747  0048' 0104               	movlb	4	; () banked
  4748  004A' 8F08               	bsf	8,7,b	;volatile
  4749                           
  4750                           ; BSR set to: 4
  4751                           
  4752                           ; BSR set to: 4
  4753                           ;usb_device.c: 1063: }
  4754                           ;usb_device.c: 1064: }
  4755  004C' 0012               	return	
  4756  004E'                    __end_of_USBCtrlTrfInHandler:
  4757                           	opt stack 0
  4758                           stkptr	equ	0xFFC
  4759                           tblptru	equ	0xFF8
  4760                           tblptrh	equ	0xFF7
  4761                           tblptrl	equ	0xFF6
  4762                           tablat	equ	0xFF5
  4763                           prodh	equ	0xFF4
  4764                           prodl	equ	0xFF3
  4765                           intcon	equ	0xFF2
  4766                           postinc0	equ	0xFEE
  4767                           wreg	equ	0xFE8
  4768                           indf1	equ	0xFE7
  4769                           fsr1h	equ	0xFE2
  4770                           fsr1l	equ	0xFE1
  4771                           indf2	equ	0xFDF
  4772                           postinc2	equ	0xFDE
  4773                           postdec2	equ	0xFDD
  4774                           plusw2	equ	0xFDB
  4775                           fsr2h	equ	0xFDA
  4776                           fsr2l	equ	0xFD9
  4777                           status	equ	0xFD8
  4778                           
  4779 ;; *************** function _USBCtrlTrfTxService *****************
  4780 ;; Defined at:
  4781 ;;		line 1094 in file "../src/usb_device.c"
  4782 ;; Parameters:    Size  Location     Type
  4783 ;;		None
  4784 ;; Auto vars:     Size  Location     Type
  4785 ;;		None
  4786 ;; Return value:  Size  Location     Type
  4787 ;;                  1    wreg      void 
  4788 ;; Registers used:
  4789 ;;		wreg, fsr1l, fsr1h, fsr2l, fsr2h, status,2, status,0, tblptrl, tblptrh, tblptru
  4790 ;; Tracked objects:
  4791 ;;		On entry : 0/0
  4792 ;;		On exit  : 0/0
  4793 ;;		Unchanged: 0/0
  4794 ;; Data sizes:     COMRAM   BANK0   BANK1   BANK2   BANK3  BANK4h   BANK5   BANK6   BANK7
  4795 ;;      Params:         0       0       0       0       0       0       0       0       0
  4796 ;;      Locals:         0       0       0       0       0       0       0       0       0
  4797 ;;      Temps:          0       0       0       0       0       0       0       0       0
  4798 ;;      Totals:         0       0       0       0       0       0       0       0       0
  4799 ;;Total ram usage:        0 bytes
  4800 ;; Hardware stack levels used:    1
  4801 ;; This function calls:
  4802 ;;		Nothing
  4803 ;; This function is called by:
  4804 ;;		_USBCtrlTrfInHandler
  4805 ;;		_USBCtrlEPServiceComplete
  4806 ;; This function uses a non-reentrant model
  4807 ;;
  4808                           
  4809                           	psect	text24
  4810  0000'                    __ptext24:
  4811                           	opt stack 0
  4812  0000'                    _USBCtrlTrfTxService:
  4813                           	opt stack 26
  4814                           
  4815                           ;usb_device.c: 1096: static uint8_t bytes_to_send;
  4816                           ;usb_device.c: 1101: bytes_to_send = 8;
  4817                           
  4818                           ;incstack = 0
  4819  0000' 0E08               	movlw	8
  4820  0002' 6E2F'              	movwf	USBCtrlTrfTxService@bytes_to_send,c
  4821                           
  4822                           ;usb_device.c: 1102: if(wCount.Val < 8)
  4823  0004' 502C'              	movf	_wCount+1,w,c
  4824  0006' E110               	bnz	l2515
  4825  0008' 0E08               	movlw	8
  4826  000A' 5C2B'              	subwf	_wCount,w,c
  4827  000C' B0D8               	btfsc	status,0,c
  4828  000E' D00C               	goto	l2515
  4829                           
  4830                           ;usb_device.c: 1103: {
  4831                           ;usb_device.c: 1106: bytes_to_send = wCount.Val;
  4832  0010' C02B' F02F'        	movff	_wCount,USBCtrlTrfTxService@bytes_to_send
  4833                           
  4834                           ;usb_device.c: 1107: if(short_pkt_status == 0)
  4835  0014' 5042'              	movf	_short_pkt_status,w,c
  4836  0016' A4D8               	btfss	status,2,c
  4837  0018' D002               	goto	l2511
  4838                           
  4839                           ;usb_device.c: 1108: {
  4840                           ;usb_device.c: 1109: short_pkt_status = 1;
  4841  001A' 0E01               	movlw	1
  4842  001C' D004               	goto	L9
  4843  001E'                    l2511:
  4844                           
  4845                           ;usb_device.c: 1111: else if(short_pkt_status == 1)
  4846  001E' 0442'              	decf	_short_pkt_status,w,c
  4847  0020' A4D8               	btfss	status,2,c
  4848  0022' D002               	goto	l2515
  4849                           
  4850                           ;usb_device.c: 1112: {
  4851                           ;usb_device.c: 1113: short_pkt_status = 2;
  4852  0024' 0E02               	movlw	2
  4853  0026'                    L9:
  4854  0026' 6E42'              	movwf	_short_pkt_status,c
  4855  0028'                    l2515:
  4856                           
  4857                           ;usb_device.c: 1114: }
  4858                           ;usb_device.c: 1115: }
  4859                           ;usb_device.c: 1118: ep0Bi.Cnt = bytes_to_send;
  4860  0028' C02F' F409         	movff	USBCtrlTrfTxService@bytes_to_send,1033	;volatile
  4861                           
  4862                           ;usb_device.c: 1121: wCount.Val -= bytes_to_send;
  4863  002C' 502F'              	movf	USBCtrlTrfTxService@bytes_to_send,w,c
  4864  002E' 5E2B'              	subwf	_wCount,f,c
  4865  0030' 0E00               	movlw	0
  4866  0032' 5A2C'              	subwfb	_wCount+1,f,c
  4867                           
  4868                           ;usb_device.c: 1126: pDst.bRam = (uint8_t*)&CtrlTrfData;
  4869  0034' 0E24               	movlw	36
  4870  0036' 6E19'              	movwf	_pDst,c
  4871  0038' 0E04               	movlw	4
  4872  003A' 6E1A'              	movwf	_pDst+1,c
  4873                           
  4874                           ;usb_device.c: 1127: if(usb_stat.ctrl_trf_mem == 1)
  4875  003C' B244'              	btfsc	_usb_stat,1,c
  4876  003E' D01B               	goto	l2533
  4877  0040' D038               	goto	l2543
  4878  0042'                    l2525:
  4879                           
  4880                           ;usb_device.c: 1130: {
  4881                           ;usb_device.c: 1131: *pDst.bRam = *pSrc.bRom;
  4882  0042' C01C' FFF6         	movff	_pSrc,tblptrl
  4883  0046' C01D' FFF7         	movff	_pSrc+1,tblptrh
  4884  004A' 6AF8               	clrf	tblptru,c
  4885  004C' C019' FFD9         	movff	_pDst,fsr2l
  4886  0050' C01A' FFDA         	movff	_pDst+1,fsr2h
  4887  0054' 0EFF'              	movlw	(high __ramtop+-1)
  4888  0056' 64F7               	cpfsgt	tblptrh,c
  4889  0058' D003               	bra	u1447
  4890  005A' 0008               	tblrd		*
  4891  005C' 50F5               	movf	tablat,w,c
  4892  005E' D005               	bra	u1440
  4893  0060'                    u1447:
  4894  0060' CFF6 FFE1          	movff	tblptrl,fsr1l
  4895  0064' CFF7 FFE2          	movff	tblptrh,fsr1h
  4896  0068' 50E7               	movf	indf1,w,c
  4897  006A'                    u1440:
  4898  006A' 6EDF               	movwf	indf2,c
  4899                           
  4900                           ;usb_device.c: 1132: pDst.bRam++;
  4901  006C' 4A19'              	infsnz	_pDst,f,c
  4902  006E' 2A1A'              	incf	_pDst+1,f,c
  4903                           
  4904                           ;usb_device.c: 1133: pSrc.bRom++;
  4905  0070' 4A1C'              	infsnz	_pSrc,f,c
  4906  0072' 2A1D'              	incf	_pSrc+1,f,c
  4907                           
  4908                           ;usb_device.c: 1134: bytes_to_send--;
  4909  0074' 062F'              	decf	USBCtrlTrfTxService@bytes_to_send,f,c
  4910  0076'                    l2533:
  4911  0076' 502F'              	movf	USBCtrlTrfTxService@bytes_to_send,w,c
  4912  0078' B4D8               	btfsc	status,2,c
  4913  007A' 0012               	return	
  4914  007C' D7E2               	goto	l2525
  4915  007E'                    l2535:
  4916                           
  4917                           ;usb_device.c: 1140: {
  4918                           ;usb_device.c: 1141: *pDst.bRam = *pSrc.bRam;
  4919  007E' C01C' FFF6         	movff	_pSrc,tblptrl
  4920  0082' C01D' FFF7         	movff	_pSrc+1,tblptrh
  4921  0086' 6AF8               	clrf	tblptru,c
  4922  0088' C019' FFD9         	movff	_pDst,fsr2l
  4923  008C' C01A' FFDA         	movff	_pDst+1,fsr2h
  4924  0090' 0EFF'              	movlw	(high __ramtop+-1)
  4925  0092' 64F7               	cpfsgt	tblptrh,c
  4926  0094' D003               	bra	u1467
  4927  0096' 0008               	tblrd		*
  4928  0098' 50F5               	movf	tablat,w,c
  4929  009A' D005               	bra	u1460
  4930  009C'                    u1467:
  4931  009C' CFF6 FFE1          	movff	tblptrl,fsr1l
  4932  00A0' CFF7 FFE2          	movff	tblptrh,fsr1h
  4933  00A4' 50E7               	movf	indf1,w,c
  4934  00A6'                    u1460:
  4935  00A6' 6EDF               	movwf	indf2,c
  4936                           
  4937                           ;usb_device.c: 1142: pDst.bRam++;
  4938  00A8' 4A19'              	infsnz	_pDst,f,c
  4939  00AA' 2A1A'              	incf	_pDst+1,f,c
  4940                           
  4941                           ;usb_device.c: 1143: pSrc.bRam++;
  4942  00AC' 4A1C'              	infsnz	_pSrc,f,c
  4943  00AE' 2A1D'              	incf	_pSrc+1,f,c
  4944                           
  4945                           ;usb_device.c: 1144: bytes_to_send--;
  4946  00B0' 062F'              	decf	USBCtrlTrfTxService@bytes_to_send,f,c
  4947  00B2'                    l2543:
  4948  00B2' 502F'              	movf	USBCtrlTrfTxService@bytes_to_send,w,c
  4949  00B4' B4D8               	btfsc	status,2,c
  4950  00B6' 0012               	return	
  4951  00B8' D7E2               	goto	l2535
  4952  00BA'                    __end_of_USBCtrlTrfTxService:
  4953                           	opt stack 0
  4954                           stkptr	equ	0xFFC
  4955                           tblptru	equ	0xFF8
  4956                           tblptrh	equ	0xFF7
  4957                           tblptrl	equ	0xFF6
  4958                           tablat	equ	0xFF5
  4959                           prodh	equ	0xFF4
  4960                           prodl	equ	0xFF3
  4961                           intcon	equ	0xFF2
  4962                           postinc0	equ	0xFEE
  4963                           wreg	equ	0xFE8
  4964                           indf1	equ	0xFE7
  4965                           fsr1h	equ	0xFE2
  4966                           fsr1l	equ	0xFE1
  4967                           indf2	equ	0xFDF
  4968                           postinc2	equ	0xFDE
  4969                           postdec2	equ	0xFDD
  4970                           plusw2	equ	0xFDB
  4971                           fsr2h	equ	0xFDA
  4972                           fsr2l	equ	0xFD9
  4973                           status	equ	0xFD8
  4974                           
  4975 ;; *************** function _SignFlash *****************
  4976 ;; Defined at:
  4977 ;;		line 616 in file "../src/BootPIC18NonJ.c"
  4978 ;; Parameters:    Size  Location     Type
  4979 ;;		None
  4980 ;; Auto vars:     Size  Location     Type
  4981 ;;		None
  4982 ;; Return value:  Size  Location     Type
  4983 ;;                  1    wreg      void 
  4984 ;; Registers used:
  4985 ;;		wreg, fsr2l, fsr2h, status,2, status,0, tblptrl, tblptrh, tblptru, prodl, prodh, cstack
  4986 ;; Tracked objects:
  4987 ;;		On entry : 0/0
  4988 ;;		On exit  : 0/0
  4989 ;;		Unchanged: 0/0
  4990 ;; Data sizes:     COMRAM   BANK0   BANK1   BANK2   BANK3  BANK4h   BANK5   BANK6   BANK7
  4991 ;;      Params:         0       0       0       0       0       0       0       0       0
  4992 ;;      Locals:         0       0       0       0       0       0       0       0       0
  4993 ;;      Temps:          4       0       0       0       0       0       0       0       0
  4994 ;;      Totals:         4       0       0       0       0       0       0       0       0
  4995 ;;Total ram usage:        4 bytes
  4996 ;; Hardware stack levels used:    1
  4997 ;; Hardware stack levels required when called:    1
  4998 ;; This function calls:
  4999 ;;		_ClearWatchdog
  5000 ;;		_UnlockAndActivate
  5001 ;; This function is called by:
  5002 ;;		_ProcessIO
  5003 ;; This function uses a non-reentrant model
  5004 ;;
  5005                           
  5006                           	psect	text25
  5007  0000'                    __ptext25:
  5008                           	opt stack 0
  5009  0000'                    _SignFlash:
  5010                           	opt stack 27
  5011                           
  5012                           ;BootPIC18NonJ.c: 618: static unsigned char i;
  5013                           ;BootPIC18NonJ.c: 619: static const uint8_t* pROM;
  5014                           ;BootPIC18NonJ.c: 623: pROM = (const uint8_t*)(0x1006 & (uint32_t)(0x1000000 - 64));
  5015                           
  5016                           ;incstack = 0
  5017  0000' 0E00               	movlw	0
  5018  0002' 6E13'              	movwf	SignFlash@pROM,c
  5019  0004' 0E10               	movlw	16
  5020  0006' 6E14'              	movwf	SignFlash@pROM+1,c
  5021  0008' 0E00               	movlw	0
  5022  000A' 6E15'              	movwf	SignFlash@pROM+2,c
  5023                           
  5024                           ;BootPIC18NonJ.c: 624: for(i = 0; i < 64; i++)
  5025  000C' 0E00               	movlw	0
  5026  000E' 6E2E'              	movwf	SignFlash@i,c
  5027  0010'                    l3051:
  5028  0010' 0E3F               	movlw	63
  5029  0012' 642E'              	cpfsgt	SignFlash@i,c
  5030  0014' D001               	goto	l3055
  5031  0016' D019               	goto	l3063
  5032  0018'                    l3055:
  5033                           
  5034                           ;BootPIC18NonJ.c: 625: {
  5035                           ;BootPIC18NonJ.c: 626: ProgrammingBuffer[i] = *pROM++;
  5036  0018' C013' FFF6         	movff	SignFlash@pROM,tblptrl
  5037  001C' C014' FFF7         	movff	SignFlash@pROM+1,tblptrh
  5038  0020' C015' FFF8         	movff	SignFlash@pROM+2,tblptru
  5039  0024' 502E'              	movf	SignFlash@i,w,c
  5040  0026' 0D01               	mullw	1
  5041  0028' 0E00'              	movlw	low _ProgrammingBuffer
  5042  002A' 24F3               	addwf	prodl,w,c
  5043  002C' 6ED9               	movwf	fsr2l,c
  5044  002E' 0E00'              	movlw	high _ProgrammingBuffer
  5045  0030' 20F4               	addwfc	prodh,w,c
  5046  0032' 6EDA               	movwf	fsr2h,c
  5047  0034' 0008               	tblrd		*
  5048  0036' CFF5 FFDF          	movff	tablat,indf2
  5049  003A' 0E01               	movlw	1
  5050  003C' 2613'              	addwf	SignFlash@pROM,f,c
  5051  003E' 0E00               	movlw	0
  5052  0040' 2214'              	addwfc	SignFlash@pROM+1,f,c
  5053  0042' 0E00               	movlw	0
  5054  0044' 2215'              	addwfc	SignFlash@pROM+2,f,c
  5055  0046' 2A2E'              	incf	SignFlash@i,f,c
  5056  0048' D7E3               	goto	l3051
  5057  004A'                    l3063:
  5058                           
  5059                           ;BootPIC18NonJ.c: 627: }
  5060                           ;BootPIC18NonJ.c: 630: ProgrammingBuffer[(0x1006 & ~(uint32_t)(0x1000000 - 64))] = (unsi
      +                          gned char)0x600D;
  5061  004A' 0E0D               	movlw	13
  5062  004C' 0101               	movlb	1	; () banked
  5063  004E' 6F00'              	movwf	(_ProgrammingBuffer+6)& (0+255),b
  5064                           
  5065                           ;BootPIC18NonJ.c: 631: ProgrammingBuffer[(0x1006 & ~(uint32_t)(0x1000000 - 64)) + 1] = (
      +                          unsigned char)(0x600D >> 8);
  5066  0050' 0E60               	movlw	96
  5067  0052' 0101               	movlb	1	; () banked
  5068  0054' 6F00'              	movwf	(_ProgrammingBuffer+7)& (0+255),b
  5069                           
  5070                           ;BootPIC18NonJ.c: 635: TBLPTRU = (uint8_t)((0x1006 & (uint32_t)(0x1000000 - 64)) >> 16);
  5071  0056' 0E00               	movlw	0
  5072  0058' 6EF8               	movwf	tblptru,c	;volatile
  5073                           
  5074                           ;BootPIC18NonJ.c: 636: TBLPTRH = (uint8_t)((0x1006 & (uint32_t)(0x1000000 - 64)) >> 8);
  5075  005A' 0E10               	movlw	16
  5076  005C' 6EF7               	movwf	tblptrh,c	;volatile
  5077                           
  5078                           ;BootPIC18NonJ.c: 637: TBLPTRL = (uint8_t)(0x1006 & (uint32_t)(0x1000000 - 64));
  5079  005E' 0E00               	movlw	0
  5080  0060' 6EF6               	movwf	tblptrl,c	;volatile
  5081                           
  5082                           ;BootPIC18NonJ.c: 639: EECON1 = 0x94;
  5083  0062' 0E94               	movlw	148
  5084  0064' 6EA6               	movwf	4006,c	;volatile
  5085                           
  5086                           ; BSR set to: 1
  5087                           ;BootPIC18NonJ.c: 640: UnlockAndActivate(0xB5);
  5088  0066' 0EB5               	movlw	181
  5089  0068' EC00' F000'        	call	_UnlockAndActivate
  5090                           
  5091                           ;BootPIC18NonJ.c: 648: pROM = (const uint8_t*)((0x1006 & (uint32_t)(0x1000000 - 64)) + 6
      +                          4 - 1);
  5092  006C' 0E3F               	movlw	63
  5093  006E' 6E13'              	movwf	SignFlash@pROM,c
  5094  0070' 0E10               	movlw	16
  5095  0072' 6E14'              	movwf	SignFlash@pROM+1,c
  5096  0074' 0E00               	movlw	0
  5097  0076' 6E15'              	movwf	SignFlash@pROM+2,c
  5098                           
  5099                           ;BootPIC18NonJ.c: 650: i = 64 - 1;
  5100  0078' 0E3F               	movlw	63
  5101  007A' 6E2E'              	movwf	SignFlash@i,c
  5102  007C'                    l3071:
  5103                           
  5104                           ;BootPIC18NonJ.c: 652: {
  5105                           ;BootPIC18NonJ.c: 654: TBLPTRU = (uint32_t)pROM >> 16;
  5106  007C' 5013'              	movf	SignFlash@pROM,w,c
  5107  007E' 6E00'              	movwf	??_SignFlash& (0+255),c
  5108  0080' 5014'              	movf	SignFlash@pROM+1,w,c
  5109  0082' 6E00'              	movwf	(??_SignFlash+1)& (0+255),c
  5110  0084' 5015'              	movf	SignFlash@pROM+2,w,c
  5111  0086' 6E00'              	movwf	(??_SignFlash+2)& (0+255),c
  5112  0088' 6A00'              	clrf	(??_SignFlash+3)& (0+255),c
  5113  008A' 0E11               	movlw	17
  5114  008C' D005               	goto	u2230
  5115  008E'                    u2235:
  5116  008E' 90D8               	bcf	status,0,c
  5117  0090' 3204'              	rrcf	??_SignFlash+3,f,c
  5118  0092' 3203'              	rrcf	??_SignFlash+2,f,c
  5119  0094' 3202'              	rrcf	??_SignFlash+1,f,c
  5120  0096' 3201'              	rrcf	??_SignFlash,f,c
  5121  0098'                    u2230:
  5122  0098' 2EE8               	decfsz	wreg,f,c
  5123  009A' D7F9               	goto	u2235
  5124  009C' 5001'              	movf	??_SignFlash,w,c
  5125  009E' 6EF8               	movwf	tblptru,c	;volatile
  5126                           
  5127                           ;BootPIC18NonJ.c: 655: TBLPTRH = (uint16_t)pROM >> 8;
  5128  00A0' 5014'              	movf	SignFlash@pROM+1,w,c
  5129  00A2' 6EF7               	movwf	tblptrh,c	;volatile
  5130                           
  5131                           ;BootPIC18NonJ.c: 656: TBLPTRL = (uint8_t)pROM;
  5132  00A4' C013' FFF6         	movff	SignFlash@pROM,tblptrl	;volatile
  5133                           
  5134                           ;BootPIC18NonJ.c: 660: TABLAT = ProgrammingBuffer[i];
  5135  00A8' 502E'              	movf	SignFlash@i,w,c
  5136  00AA' 0D01               	mullw	1
  5137  00AC' 0E00'              	movlw	low _ProgrammingBuffer
  5138  00AE' 24F3               	addwf	prodl,w,c
  5139  00B0' 6ED9               	movwf	fsr2l,c
  5140  00B2' 0E00'              	movlw	high _ProgrammingBuffer
  5141  00B4' 20F4               	addwfc	prodh,w,c
  5142  00B6' 6EDA               	movwf	fsr2h,c
  5143  00B8' 50DF               	movf	indf2,w,c
  5144  00BA' 6EF5               	movwf	tablat,c	;volatile
  5145  00BC' 000C               	tblwt		*	;# 
  5146                           
  5147                           ;BootPIC18NonJ.c: 671: if((i % 0x20) == 0)
  5148  00BE' C02E' F001'        	movff	SignFlash@i,??_SignFlash
  5149  00C2' 0E1F               	movlw	31
  5150  00C4' 1601'              	andwf	??_SignFlash,f,c
  5151  00C6' A4D8               	btfss	status,2,c
  5152  00C8' D007               	goto	l3087
  5153                           
  5154                           ;BootPIC18NonJ.c: 672: {
  5155                           ;BootPIC18NonJ.c: 674: ClearWatchdog();
  5156  00CA' EC00' F000'        	call	_ClearWatchdog	;wreg free
  5157                           
  5158                           ;BootPIC18NonJ.c: 675: EECON1 = 0xA4;
  5159  00CE' 0EA4               	movlw	164
  5160  00D0' 6EA6               	movwf	4006,c	;volatile
  5161                           
  5162                           ;BootPIC18NonJ.c: 676: UnlockAndActivate(0xB5);
  5163  00D2' 0EB5               	movlw	181
  5164  00D4' EC00' F000'        	call	_UnlockAndActivate
  5165  00D8'                    l3087:
  5166                           
  5167                           ;BootPIC18NonJ.c: 677: }
  5168                           ;BootPIC18NonJ.c: 679: pROM--;
  5169  00D8' 0E01               	movlw	1
  5170  00DA' 5E13'              	subwf	SignFlash@pROM,f,c
  5171  00DC' 0E00               	movlw	0
  5172  00DE' 5A14'              	subwfb	SignFlash@pROM+1,f,c
  5173  00E0' 0E00               	movlw	0
  5174  00E2' 5A15'              	subwfb	SignFlash@pROM+2,f,c
  5175  00E4' 000A               	tblrd		*-	;# 
  5176                           
  5177                           ;BootPIC18NonJ.c: 689: if(i == 0)
  5178  00E6' 502E'              	movf	SignFlash@i,w,c
  5179  00E8' B4D8               	btfsc	status,2,c
  5180  00EA' 0012               	return	
  5181                           
  5182                           ;BootPIC18NonJ.c: 692: }
  5183                           ;BootPIC18NonJ.c: 693: i--;
  5184                           
  5185                           ;BootPIC18NonJ.c: 690: {
  5186                           ;BootPIC18NonJ.c: 691: break;
  5187  00EC' 062E'              	decf	SignFlash@i,f,c
  5188  00EE' D7C6               	goto	l3071
  5189  00F0'                    __end_of_SignFlash:
  5190                           	opt stack 0
  5191                           stkptr	equ	0xFFC
  5192                           tblptru	equ	0xFF8
  5193                           tblptrh	equ	0xFF7
  5194                           tblptrl	equ	0xFF6
  5195                           tablat	equ	0xFF5
  5196                           prodh	equ	0xFF4
  5197                           prodl	equ	0xFF3
  5198                           intcon	equ	0xFF2
  5199                           postinc0	equ	0xFEE
  5200                           wreg	equ	0xFE8
  5201                           indf1	equ	0xFE7
  5202                           fsr1h	equ	0xFE2
  5203                           fsr1l	equ	0xFE1
  5204                           indf2	equ	0xFDF
  5205                           postinc2	equ	0xFDE
  5206                           postdec2	equ	0xFDD
  5207                           plusw2	equ	0xFDB
  5208                           fsr2h	equ	0xFDA
  5209                           fsr2l	equ	0xFD9
  5210                           status	equ	0xFD8
  5211                           
  5212 ;; *************** function _UnlockAndActivate *****************
  5213 ;; Defined at:
  5214 ;;		line 891 in file "../src/BootPIC18NonJ.c"
  5215 ;; Parameters:    Size  Location     Type
  5216 ;;  UnlockKey       1    wreg     unsigned char 
  5217 ;; Auto vars:     Size  Location     Type
  5218 ;;  UnlockKey       1    0[COMRAM] unsigned char 
  5219 ;; Return value:  Size  Location     Type
  5220 ;;                  1    wreg      void 
  5221 ;; Registers used:
  5222 ;;		wreg, status,2, status,0
  5223 ;; Tracked objects:
  5224 ;;		On entry : 0/0
  5225 ;;		On exit  : 0/0
  5226 ;;		Unchanged: 0/0
  5227 ;; Data sizes:     COMRAM   BANK0   BANK1   BANK2   BANK3  BANK4h   BANK5   BANK6   BANK7
  5228 ;;      Params:         0       0       0       0       0       0       0       0       0
  5229 ;;      Locals:         1       0       0       0       0       0       0       0       0
  5230 ;;      Temps:          0       0       0       0       0       0       0       0       0
  5231 ;;      Totals:         1       0       0       0       0       0       0       0       0
  5232 ;;Total ram usage:        1 bytes
  5233 ;; Hardware stack levels used:    1
  5234 ;; This function calls:
  5235 ;;		Nothing
  5236 ;; This function is called by:
  5237 ;;		_ProcessIO
  5238 ;;		_SignFlash
  5239 ;;		_WriteFlashBlock
  5240 ;;		_WriteConfigBits
  5241 ;;		_WriteEEPROM
  5242 ;; This function uses a non-reentrant model
  5243 ;;
  5244                           
  5245                           	psect	text26
  5246  0000'                    __ptext26:
  5247                           	opt stack 0
  5248  0000'                    _UnlockAndActivate:
  5249                           	opt stack 27
  5250                           
  5251                           ;incstack = 0
  5252                           ;UnlockAndActivate@UnlockKey stored from wreg
  5253  0000' 6E00'              	movwf	UnlockAndActivate@UnlockKey,c
  5254                           
  5255                           ;BootPIC18NonJ.c: 893: INTCONbits.GIE = 0;
  5256  0002' 9EF2               	bcf	intcon,7,c	;volatile
  5257                           
  5258                           ;BootPIC18NonJ.c: 897: if(UnlockKey != 0xB5)
  5259  0004' 0EB5               	movlw	181
  5260  0006' 1800'              	xorwf	UnlockAndActivate@UnlockKey,w,c
  5261  0008' B4D8               	btfsc	status,2,c
  5262  000A' D005               	goto	l2785
  5263                           
  5264                           ;BootPIC18NonJ.c: 898: {
  5265                           ;BootPIC18NonJ.c: 906: OSCCON = 0x03;
  5266  000C' 0E03               	movlw	3
  5267  000E' 6ED3               	movwf	4051,c	;volatile
  5268  0010'                    l179:
  5269  0010' 0003               	sleep		;# 
  5270  0012' D7FE               	goto	l179
  5271  0014' 00FF               	reset		;# 
  5272  0016'                    l2785:
  5273                           
  5274                           ;BootPIC18NonJ.c: 912: }
  5275                           ;BootPIC18NonJ.c: 915: EECON2 = 0x55;
  5276  0016' 0E55               	movlw	85
  5277  0018' 6EA7               	movwf	4007,c	;volatile
  5278                           
  5279                           ;BootPIC18NonJ.c: 916: EECON2 = 0xAA;
  5280  001A' 0EAA               	movlw	170
  5281  001C' 6EA7               	movwf	4007,c	;volatile
  5282                           
  5283                           ;BootPIC18NonJ.c: 917: EECON1bits.WR = 1;
  5284  001E' 82A6               	bsf	4006,1,c	;volatile
  5285  0020'                    l182:
  5286  0020' B2A6               	btfsc	4006,1,c	;volatile
  5287  0022' D7FE               	goto	l182
  5288                           
  5289                           ;BootPIC18NonJ.c: 930: EECON1bits.WREN = 0;
  5290  0024' 94A6               	bcf	4006,2,c	;volatile
  5291  0026' 0012               	return		;funcret
  5292  0028'                    __end_of_UnlockAndActivate:
  5293                           	opt stack 0
  5294                           stkptr	equ	0xFFC
  5295                           tblptru	equ	0xFF8
  5296                           tblptrh	equ	0xFF7
  5297                           tblptrl	equ	0xFF6
  5298                           tablat	equ	0xFF5
  5299                           prodh	equ	0xFF4
  5300                           prodl	equ	0xFF3
  5301                           intcon	equ	0xFF2
  5302                           postinc0	equ	0xFEE
  5303                           wreg	equ	0xFE8
  5304                           indf1	equ	0xFE7
  5305                           fsr1h	equ	0xFE2
  5306                           fsr1l	equ	0xFE1
  5307                           indf2	equ	0xFDF
  5308                           postinc2	equ	0xFDE
  5309                           postdec2	equ	0xFDD
  5310                           plusw2	equ	0xFDB
  5311                           fsr2h	equ	0xFDA
  5312                           fsr2l	equ	0xFD9
  5313                           status	equ	0xFD8
  5314                           
  5315 ;; *************** function _ResetDeviceCleanly *****************
  5316 ;; Defined at:
  5317 ;;		line 707 in file "../src/BootPIC18NonJ.c"
  5318 ;; Parameters:    Size  Location     Type
  5319 ;;		None
  5320 ;; Auto vars:     Size  Location     Type
  5321 ;;		None
  5322 ;; Return value:  Size  Location     Type
  5323 ;;                  1    wreg      void 
  5324 ;; Registers used:
  5325 ;;		wreg, status,2, status,0, cstack
  5326 ;; Tracked objects:
  5327 ;;		On entry : 0/0
  5328 ;;		On exit  : 0/0
  5329 ;;		Unchanged: 0/0
  5330 ;; Data sizes:     COMRAM   BANK0   BANK1   BANK2   BANK3  BANK4h   BANK5   BANK6   BANK7
  5331 ;;      Params:         0       0       0       0       0       0       0       0       0
  5332 ;;      Locals:         0       0       0       0       0       0       0       0       0
  5333 ;;      Temps:          0       0       0       0       0       0       0       0       0
  5334 ;;      Totals:         0       0       0       0       0       0       0       0       0
  5335 ;;Total ram usage:        0 bytes
  5336 ;; Hardware stack levels used:    1
  5337 ;; Hardware stack levels required when called:    3
  5338 ;; This function calls:
  5339 ;;		_USBDisableWithLongDelay
  5340 ;; This function is called by:
  5341 ;;		_ProcessIO
  5342 ;; This function uses a non-reentrant model
  5343 ;;
  5344                           
  5345                           	psect	text27
  5346  0000'                    __ptext27:
  5347                           	opt stack 0
  5348  0000'                    _ResetDeviceCleanly:
  5349                           	opt stack 25
  5350                           
  5351                           ;BootPIC18NonJ.c: 709: USBDisableWithLongDelay();
  5352                           
  5353                           ;incstack = 0
  5354  0000' EC00' F000'        	call	_USBDisableWithLongDelay	;wreg free
  5355  0004' 00FF               	reset		;# 
  5356                           
  5357                           ;BootPIC18NonJ.c: 711: __nop();
  5358  0006' F000               	nop	
  5359                           
  5360                           ;BootPIC18NonJ.c: 712: __nop();
  5361  0008' F000               	nop	
  5362  000A' 0012               	return		;funcret
  5363  000C'                    __end_of_ResetDeviceCleanly:
  5364                           	opt stack 0
  5365                           stkptr	equ	0xFFC
  5366                           tblptru	equ	0xFF8
  5367                           tblptrh	equ	0xFF7
  5368                           tblptrl	equ	0xFF6
  5369                           tablat	equ	0xFF5
  5370                           prodh	equ	0xFF4
  5371                           prodl	equ	0xFF3
  5372                           intcon	equ	0xFF2
  5373                           postinc0	equ	0xFEE
  5374                           wreg	equ	0xFE8
  5375                           indf1	equ	0xFE7
  5376                           fsr1h	equ	0xFE2
  5377                           fsr1l	equ	0xFE1
  5378                           indf2	equ	0xFDF
  5379                           postinc2	equ	0xFDE
  5380                           postdec2	equ	0xFDD
  5381                           plusw2	equ	0xFDB
  5382                           fsr2h	equ	0xFDA
  5383                           fsr2l	equ	0xFD9
  5384                           status	equ	0xFD8
  5385                           
  5386 ;; *************** function _HIDTxReport *****************
  5387 ;; Defined at:
  5388 ;;		line 229 in file "../src/usb_device_hid.c"
  5389 ;; Parameters:    Size  Location     Type
  5390 ;;  buffer          2    0[COMRAM] PTR unsigned char 
  5391 ;;		 -> PacketToPC(65), 
  5392 ;;  len             1    2[COMRAM] unsigned char 
  5393 ;; Auto vars:     Size  Location     Type
  5394 ;;  i               1    4[COMRAM] unsigned char 
  5395 ;; Return value:  Size  Location     Type
  5396 ;;                  1    wreg      void 
  5397 ;; Registers used:
  5398 ;;		wreg, fsr1l, fsr1h, fsr2l, fsr2h, status,2, status,0, prodl, prodh
  5399 ;; Tracked objects:
  5400 ;;		On entry : 0/0
  5401 ;;		On exit  : 0/0
  5402 ;;		Unchanged: 0/0
  5403 ;; Data sizes:     COMRAM   BANK0   BANK1   BANK2   BANK3  BANK4h   BANK5   BANK6   BANK7
  5404 ;;      Params:         3       0       0       0       0       0       0       0       0
  5405 ;;      Locals:         1       0       0       0       0       0       0       0       0
  5406 ;;      Temps:          1       0       0       0       0       0       0       0       0
  5407 ;;      Totals:         5       0       0       0       0       0       0       0       0
  5408 ;;Total ram usage:        5 bytes
  5409 ;; Hardware stack levels used:    1
  5410 ;; This function calls:
  5411 ;;		Nothing
  5412 ;; This function is called by:
  5413 ;;		_ProcessIO
  5414 ;; This function uses a non-reentrant model
  5415 ;;
  5416                           
  5417                           	psect	text28
  5418  0000'                    __ptext28:
  5419                           	opt stack 0
  5420  0000'                    _HIDTxReport:
  5421                           	opt stack 28
  5422                           
  5423                           ;usb_device_hid.c: 231: uint8_t i;
  5424                           ;usb_device_hid.c: 237: if(len > 64)
  5425                           
  5426                           ;incstack = 0
  5427  0000' 0E40               	movlw	64
  5428  0002' 6402'              	cpfsgt	HIDTxReport@len,c
  5429  0004' D002               	goto	l707
  5430                           
  5431                           ;usb_device_hid.c: 238: len = 64;
  5432  0006' 0E40               	movlw	64
  5433  0008' 6E02'              	movwf	HIDTxReport@len,c
  5434  000A'                    l707:
  5435                           
  5436                           ;usb_device_hid.c: 243: for (i = 0; i < len; i++)
  5437  000A' 0E00               	movlw	0
  5438  000C' 6E04'              	movwf	HIDTxReport@i,c
  5439  000E' D013               	goto	l2899
  5440  0010'                    l2895:
  5441                           
  5442                           ;usb_device_hid.c: 244: hid_report_in[i] = buffer[i];
  5443  0010' 5004'              	movf	HIDTxReport@i,w,c
  5444  0012' 0D01               	mullw	1
  5445  0014' 50F3               	movf	prodl,w,c
  5446  0016' 2400'              	addwf	HIDTxReport@buffer,w,c
  5447  0018' 6ED9               	movwf	fsr2l,c
  5448  001A' 50F4               	movf	prodh,w,c
  5449  001C' 2001'              	addwfc	HIDTxReport@buffer+1,w,c
  5450  001E' 6EDA               	movwf	fsr2h,c
  5451  0020' 5004'              	movf	HIDTxReport@i,w,c
  5452  0022' 0D01               	mullw	1
  5453  0024' 0E6C               	movlw	108
  5454  0026' 24F3               	addwf	prodl,w,c
  5455  0028' 6EE1               	movwf	fsr1l,c
  5456  002A' 0E04               	movlw	4
  5457  002C' 20F4               	addwfc	prodh,w,c
  5458  002E' 6EE2               	movwf	fsr1h,c
  5459  0030' CFDF FFE7          	movff	indf2,indf1
  5460  0034' 2A04'              	incf	HIDTxReport@i,f,c
  5461  0036'                    l2899:
  5462  0036' 5002'              	movf	HIDTxReport@len,w,c
  5463  0038' 5C04'              	subwf	HIDTxReport@i,w,c
  5464  003A' A0D8               	btfss	status,0,c
  5465  003C' D7E9               	goto	l2895
  5466                           
  5467                           ;usb_device_hid.c: 246: ep1Bi.Cnt = len;
  5468  003E' C002' F411         	movff	HIDTxReport@len,1041	;volatile
  5469                           
  5470                           ;usb_device_hid.c: 247: { ep1Bi.Stat._byte &= 0x40; ep1Bi.Stat.DTS = !ep1Bi.Stat.DTS; ep
      +                          1Bi.Stat._byte |= 0x08; ep1Bi.Stat._byte |= 0x80; };
  5471  0042' 0E40               	movlw	64
  5472  0044' 0104               	movlb	4	; () banked
  5473  0046' 1710               	andwf	16,f,b	;volatile
  5474  0048' 0104               	movlb	4	; () banked
  5475  004A' BD10               	btfsc	16,6,b	;volatile
  5476  004C' D003               	goto	u1970
  5477  004E' 6A00'              	clrf	??_HIDTxReport& (0+255),c
  5478  0050' 2A00'              	incf	??_HIDTxReport& (0+255),f,c
  5479  0052' D001               	goto	u1988
  5480  0054'                    u1970:
  5481  0054' 6A00'              	clrf	??_HIDTxReport& (0+255),c
  5482  0056'                    u1988:
  5483  0056' 3A03'              	swapf	??_HIDTxReport,f,c
  5484  0058' 4603'              	rlncf	??_HIDTxReport,f,c
  5485  005A' 4603'              	rlncf	??_HIDTxReport,f,c
  5486  005C' 0104               	movlb	4	; () banked
  5487  005E' 5110               	movf	16,w,b	;volatile
  5488  0060' 1803'              	xorwf	??_HIDTxReport,w,c
  5489  0062' 0BBF               	andlw	-65
  5490  0064' 1803'              	xorwf	??_HIDTxReport,w,c
  5491  0066' 0104               	movlb	4	; () banked
  5492  0068' 6F10               	movwf	16,b	;volatile
  5493                           
  5494                           ; BSR set to: 4
  5495  006A' 0104               	movlb	4	; () banked
  5496  006C' 8710               	bsf	16,3,b	;volatile
  5497                           
  5498                           ; BSR set to: 4
  5499  006E' 0104               	movlb	4	; () banked
  5500  0070' 8F10               	bsf	16,7,b	;volatile
  5501                           
  5502                           ; BSR set to: 4
  5503  0072' 0012               	return		;funcret
  5504  0074'                    __end_of_HIDTxReport:
  5505                           	opt stack 0
  5506                           stkptr	equ	0xFFC
  5507                           tblptru	equ	0xFF8
  5508                           tblptrh	equ	0xFF7
  5509                           tblptrl	equ	0xFF6
  5510                           tablat	equ	0xFF5
  5511                           prodh	equ	0xFF4
  5512                           prodl	equ	0xFF3
  5513                           intcon	equ	0xFF2
  5514                           postinc0	equ	0xFEE
  5515                           wreg	equ	0xFE8
  5516                           indf1	equ	0xFE7
  5517                           fsr1h	equ	0xFE2
  5518                           fsr1l	equ	0xFE1
  5519                           indf2	equ	0xFDF
  5520                           postinc2	equ	0xFDE
  5521                           postdec2	equ	0xFDD
  5522                           plusw2	equ	0xFDB
  5523                           fsr2h	equ	0xFDA
  5524                           fsr2l	equ	0xFD9
  5525                           status	equ	0xFD8
  5526                           
  5527 ;; *************** function _HIDRxReport *****************
  5528 ;; Defined at:
  5529 ;;		line 284 in file "../src/usb_device_hid.c"
  5530 ;; Parameters:    Size  Location     Type
  5531 ;;  buffer          2    0[COMRAM] PTR unsigned char 
  5532 ;;		 -> PacketFromPC(65), 
  5533 ;;  len             1    2[COMRAM] unsigned char 
  5534 ;; Auto vars:     Size  Location     Type
  5535 ;;		None
  5536 ;; Return value:  Size  Location     Type
  5537 ;;                  1    wreg      unsigned char 
  5538 ;; Registers used:
  5539 ;;		wreg, fsr1l, fsr1h, fsr2l, fsr2h, status,2, status,0, prodl, prodh
  5540 ;; Tracked objects:
  5541 ;;		On entry : 0/0
  5542 ;;		On exit  : 0/0
  5543 ;;		Unchanged: 0/0
  5544 ;; Data sizes:     COMRAM   BANK0   BANK1   BANK2   BANK3  BANK4h   BANK5   BANK6   BANK7
  5545 ;;      Params:         3       0       0       0       0       0       0       0       0
  5546 ;;      Locals:         0       0       0       0       0       0       0       0       0
  5547 ;;      Temps:          1       0       0       0       0       0       0       0       0
  5548 ;;      Totals:         4       0       0       0       0       0       0       0       0
  5549 ;;Total ram usage:        4 bytes
  5550 ;; Hardware stack levels used:    1
  5551 ;; This function calls:
  5552 ;;		Nothing
  5553 ;; This function is called by:
  5554 ;;		_ProcessIO
  5555 ;; This function uses a non-reentrant model
  5556 ;;
  5557                           
  5558                           	psect	text29
  5559  0000'                    __ptext29:
  5560                           	opt stack 0
  5561  0000'                    _HIDRxReport:
  5562                           	opt stack 28
  5563                           
  5564                           ;usb_device_hid.c: 286: hid_rpt_rx_len = 0;
  5565                           
  5566                           ; BSR set to: 4
  5567                           ;incstack = 0
  5568  0000' 0E00               	movlw	0
  5569  0002' 6E41'              	movwf	_hid_rpt_rx_len,c
  5570                           
  5571                           ;usb_device_hid.c: 288: if(!ep1Bo.Stat.UOWN)
  5572  0004' 0104               	movlb	4	; () banked
  5573  0006' BF0C               	btfsc	12,7,b	;volatile
  5574  0008' 0012               	return	
  5575                           
  5576                           ; BSR set to: 4
  5577                           ;usb_device_hid.c: 289: {
  5578                           ;usb_device_hid.c: 294: if(len > ep1Bo.Cnt)
  5579  000A' 5002'              	movf	HIDRxReport@len,w,c
  5580  000C' 0104               	movlb	4	; () banked
  5581  000E' 5D0D               	subwf	13,w,b	;volatile
  5582  0010' A0D8               	btfss	status,0,c
  5583                           
  5584                           ; BSR set to: 4
  5585                           ;usb_device_hid.c: 295: len = ep1Bo.Cnt;
  5586  0012' C40D F002'         	movff	1037,HIDRxReport@len	;volatile
  5587                           
  5588                           ; BSR set to: 4
  5589                           ;usb_device_hid.c: 300: for(hid_rpt_rx_len = 0; hid_rpt_rx_len < len; hid_rpt_rx_len++)
  5590                           
  5591                           ; BSR set to: 4
  5592  0016' 0E00               	movlw	0
  5593  0018' 6E41'              	movwf	_hid_rpt_rx_len,c
  5594  001A' D013               	goto	l2877
  5595  001C'                    l2873:
  5596                           
  5597                           ;usb_device_hid.c: 301: buffer[hid_rpt_rx_len] = hid_report_out[hid_rpt_rx_len];
  5598  001C' 5041'              	movf	_hid_rpt_rx_len,w,c
  5599  001E' 0D01               	mullw	1
  5600  0020' 0E2C               	movlw	44
  5601  0022' 24F3               	addwf	prodl,w,c
  5602  0024' 6ED9               	movwf	fsr2l,c
  5603  0026' 0E04               	movlw	4
  5604  0028' 20F4               	addwfc	prodh,w,c
  5605  002A' 6EDA               	movwf	fsr2h,c
  5606  002C' 5041'              	movf	_hid_rpt_rx_len,w,c
  5607  002E' 0D01               	mullw	1
  5608  0030' 50F3               	movf	prodl,w,c
  5609  0032' 2400'              	addwf	HIDRxReport@buffer,w,c
  5610  0034' 6EE1               	movwf	fsr1l,c
  5611  0036' 50F4               	movf	prodh,w,c
  5612  0038' 2001'              	addwfc	HIDRxReport@buffer+1,w,c
  5613  003A' 6EE2               	movwf	fsr1h,c
  5614  003C' CFDF FFE7          	movff	indf2,indf1
  5615  0040' 2A41'              	incf	_hid_rpt_rx_len,f,c
  5616  0042'                    l2877:
  5617  0042' 5002'              	movf	HIDRxReport@len,w,c
  5618  0044' 5C41'              	subwf	_hid_rpt_rx_len,w,c
  5619  0046' A0D8               	btfss	status,0,c
  5620  0048' D7E9               	goto	l2873
  5621                           
  5622                           ;usb_device_hid.c: 306: ep1Bo.Cnt = sizeof(hid_report_out);
  5623  004A' 0E40               	movlw	64
  5624  004C' 0104               	movlb	4	; () banked
  5625  004E' 6F0D               	movwf	13,b	;volatile
  5626                           
  5627                           ; BSR set to: 4
  5628                           ;usb_device_hid.c: 307: { ep1Bo.Stat._byte &= 0x40; ep1Bo.Stat.DTS = !ep1Bo.Stat.DTS; ep
      +                          1Bo.Stat._byte |= 0x08; ep1Bo.Stat._byte |= 0x80; };
  5629  0050' 0E40               	movlw	64
  5630  0052' 0104               	movlb	4	; () banked
  5631  0054' 170C               	andwf	12,f,b	;volatile
  5632                           
  5633                           ; BSR set to: 4
  5634  0056' 0104               	movlb	4	; () banked
  5635  0058' BD0C               	btfsc	12,6,b	;volatile
  5636  005A' D003               	goto	u1930
  5637  005C' 6A00'              	clrf	??_HIDRxReport& (0+255),c
  5638  005E' 2A00'              	incf	??_HIDRxReport& (0+255),f,c
  5639  0060' D001               	goto	u1948
  5640  0062'                    u1930:
  5641  0062' 6A00'              	clrf	??_HIDRxReport& (0+255),c
  5642  0064'                    u1948:
  5643  0064' 3A03'              	swapf	??_HIDRxReport,f,c
  5644  0066' 4603'              	rlncf	??_HIDRxReport,f,c
  5645  0068' 4603'              	rlncf	??_HIDRxReport,f,c
  5646  006A' 0104               	movlb	4	; () banked
  5647  006C' 510C               	movf	12,w,b	;volatile
  5648  006E' 1803'              	xorwf	??_HIDRxReport,w,c
  5649  0070' 0BBF               	andlw	-65
  5650  0072' 1803'              	xorwf	??_HIDRxReport,w,c
  5651  0074' 0104               	movlb	4	; () banked
  5652  0076' 6F0C               	movwf	12,b	;volatile
  5653                           
  5654                           ; BSR set to: 4
  5655  0078' 0104               	movlb	4	; () banked
  5656  007A' 870C               	bsf	12,3,b	;volatile
  5657                           
  5658                           ; BSR set to: 4
  5659  007C' 0104               	movlb	4	; () banked
  5660  007E' 8F0C               	bsf	12,7,b	;volatile
  5661                           
  5662                           ; BSR set to: 4
  5663  0080' 0012               	return	
  5664  0082'                    __end_of_HIDRxReport:
  5665                           	opt stack 0
  5666                           stkptr	equ	0xFFC
  5667                           tblptru	equ	0xFF8
  5668                           tblptrh	equ	0xFF7
  5669                           tblptrl	equ	0xFF6
  5670                           tablat	equ	0xFF5
  5671                           prodh	equ	0xFF4
  5672                           prodl	equ	0xFF3
  5673                           intcon	equ	0xFF2
  5674                           postinc0	equ	0xFEE
  5675                           wreg	equ	0xFE8
  5676                           indf1	equ	0xFE7
  5677                           fsr1h	equ	0xFE2
  5678                           fsr1l	equ	0xFE1
  5679                           indf2	equ	0xFDF
  5680                           postinc2	equ	0xFDE
  5681                           postdec2	equ	0xFDD
  5682                           plusw2	equ	0xFDB
  5683                           fsr2h	equ	0xFDA
  5684                           fsr2l	equ	0xFD9
  5685                           status	equ	0xFD8
  5686                           
  5687 ;; *************** function _InitializeSystem *****************
  5688 ;; Defined at:
  5689 ;;		line 447 in file "../src/main.c"
  5690 ;; Parameters:    Size  Location     Type
  5691 ;;		None
  5692 ;; Auto vars:     Size  Location     Type
  5693 ;;		None
  5694 ;; Return value:  Size  Location     Type
  5695 ;;                  1    wreg      void 
  5696 ;; Registers used:
  5697 ;;		wreg, fsr2l, fsr2h, status,2, status,0, cstack
  5698 ;; Tracked objects:
  5699 ;;		On entry : 0/0
  5700 ;;		On exit  : 0/0
  5701 ;;		Unchanged: 0/0
  5702 ;; Data sizes:     COMRAM   BANK0   BANK1   BANK2   BANK3  BANK4h   BANK5   BANK6   BANK7
  5703 ;;      Params:         0       0       0       0       0       0       0       0       0
  5704 ;;      Locals:         0       0       0       0       0       0       0       0       0
  5705 ;;      Temps:          0       0       0       0       0       0       0       0       0
  5706 ;;      Totals:         0       0       0       0       0       0       0       0       0
  5707 ;;Total ram usage:        0 bytes
  5708 ;; Hardware stack levels used:    1
  5709 ;; Hardware stack levels required when called:    6
  5710 ;; This function calls:
  5711 ;;		_USBDeviceInit
  5712 ;;		_UserInit
  5713 ;; This function is called by:
  5714 ;;		_BootMain
  5715 ;; This function uses a non-reentrant model
  5716 ;;
  5717                           
  5718                           	psect	text30
  5719  0000'                    __ptext30:
  5720                           	opt stack 0
  5721  0000'                    _InitializeSystem:
  5722                           	opt stack 23
  5723                           
  5724                           ;main.c: 451: OSCTUNE = 0x80;
  5725                           
  5726                           ; BSR set to: 4
  5727                           ;incstack = 0
  5728  0000' 0E80               	movlw	128
  5729  0002' 6E9B               	movwf	3995,c	;volatile
  5730                           
  5731                           ;main.c: 452: OSCCON = 0x70;
  5732  0004' 0E70               	movlw	112
  5733  0006' 6ED3               	movwf	4051,c	;volatile
  5734                           
  5735                           ;main.c: 453: OSCCON2 = 0x10;
  5736  0008' 0E10               	movlw	16
  5737  000A' 6ED2               	movwf	4050,c	;volatile
  5738  000C'                    l263:
  5739  000C' AED2               	btfss	4050,7,c	;volatile
  5740  000E' D7FE               	goto	l263
  5741                           
  5742                           ;main.c: 455: ACTCON = 0x90;
  5743  0010' 0E90               	movlw	144
  5744  0012' 6EB5               	movwf	4021,c	;volatile
  5745                           
  5746                           ;main.c: 457: UserInit();
  5747  0014' EC00' F000'        	call	_UserInit	;wreg free
  5748                           
  5749                           ;main.c: 459: TRISAbits.TRISA6 = 0;
  5750  0018' 9C92               	bcf	3986,6,c	;volatile
  5751                           
  5752                           ;main.c: 460: TRISAbits.TRISA7 = 0;
  5753  001A' 9E92               	bcf	3986,7,c	;volatile
  5754                           
  5755                           ;main.c: 462: LATAbits.LATA7 = 1;
  5756  001C' 8E89               	bsf	3977,7,c	;volatile
  5757                           
  5758                           ;main.c: 463: LATAbits.LATA6 = 0;
  5759  001E' 9C89               	bcf	3977,6,c	;volatile
  5760                           
  5761                           ;main.c: 466: USBDeviceInit();
  5762  0020' EC00' F000'        	call	_USBDeviceInit	;wreg free
  5763  0024' 0012               	return		;funcret
  5764  0026'                    __end_of_InitializeSystem:
  5765                           	opt stack 0
  5766                           stkptr	equ	0xFFC
  5767                           tblptru	equ	0xFF8
  5768                           tblptrh	equ	0xFF7
  5769                           tblptrl	equ	0xFF6
  5770                           tablat	equ	0xFF5
  5771                           prodh	equ	0xFF4
  5772                           prodl	equ	0xFF3
  5773                           intcon	equ	0xFF2
  5774                           postinc0	equ	0xFEE
  5775                           wreg	equ	0xFE8
  5776                           indf1	equ	0xFE7
  5777                           fsr1h	equ	0xFE2
  5778                           fsr1l	equ	0xFE1
  5779                           indf2	equ	0xFDF
  5780                           postinc2	equ	0xFDE
  5781                           postdec2	equ	0xFDD
  5782                           plusw2	equ	0xFDB
  5783                           fsr2h	equ	0xFDA
  5784                           fsr2l	equ	0xFD9
  5785                           status	equ	0xFD8
  5786                           
  5787 ;; *************** function _USBDeviceInit *****************
  5788 ;; Defined at:
  5789 ;;		line 326 in file "../src/usb_device.c"
  5790 ;; Parameters:    Size  Location     Type
  5791 ;;		None
  5792 ;; Auto vars:     Size  Location     Type
  5793 ;;		None
  5794 ;; Return value:  Size  Location     Type
  5795 ;;                  1    wreg      void 
  5796 ;; Registers used:
  5797 ;;		wreg, fsr2l, fsr2h, status,2, status,0, cstack
  5798 ;; Tracked objects:
  5799 ;;		On entry : 0/0
  5800 ;;		On exit  : 0/0
  5801 ;;		Unchanged: 0/0
  5802 ;; Data sizes:     COMRAM   BANK0   BANK1   BANK2   BANK3  BANK4h   BANK5   BANK6   BANK7
  5803 ;;      Params:         0       0       0       0       0       0       0       0       0
  5804 ;;      Locals:         0       0       0       0       0       0       0       0       0
  5805 ;;      Temps:          0       0       0       0       0       0       0       0       0
  5806 ;;      Totals:         0       0       0       0       0       0       0       0       0
  5807 ;;Total ram usage:        0 bytes
  5808 ;; Hardware stack levels used:    1
  5809 ;; Hardware stack levels required when called:    5
  5810 ;; This function calls:
  5811 ;;		_USBCheckBusStatus
  5812 ;;		_USBDisableWithLongDelay
  5813 ;; This function is called by:
  5814 ;;		_InitializeSystem
  5815 ;; This function uses a non-reentrant model
  5816 ;;
  5817                           
  5818                           	psect	text31
  5819  0000'                    __ptext31:
  5820                           	opt stack 0
  5821  0000'                    _USBDeviceInit:
  5822                           	opt stack 23
  5823                           
  5824                           ;usb_device.c: 332: if(UCONbits.USBEN == 1)
  5825                           
  5826                           ;incstack = 0
  5827  0000' B660               	btfsc	3936,3,c	;volatile
  5828                           
  5829                           ;usb_device.c: 333: {
  5830                           ;usb_device.c: 337: USBDisableWithLongDelay();
  5831  0002' EC00' F000'        	call	_USBDisableWithLongDelay	;wreg free
  5832                           
  5833                           ;usb_device.c: 338: }
  5834                           ;usb_device.c: 339: DeviceIsSoftDetached = 0;
  5835  0006' 0E00               	movlw	0
  5836  0008' 6E3B'              	movwf	_DeviceIsSoftDetached,c
  5837                           
  5838                           ;usb_device.c: 347: USBCheckBusStatus();
  5839  000A' EC00' F000'        	call	_USBCheckBusStatus	;wreg free
  5840  000E' 0012               	return		;funcret
  5841  0010'                    __end_of_USBDeviceInit:
  5842                           	opt stack 0
  5843                           stkptr	equ	0xFFC
  5844                           tblptru	equ	0xFF8
  5845                           tblptrh	equ	0xFF7
  5846                           tblptrl	equ	0xFF6
  5847                           tablat	equ	0xFF5
  5848                           prodh	equ	0xFF4
  5849                           prodl	equ	0xFF3
  5850                           intcon	equ	0xFF2
  5851                           postinc0	equ	0xFEE
  5852                           wreg	equ	0xFE8
  5853                           indf1	equ	0xFE7
  5854                           fsr1h	equ	0xFE2
  5855                           fsr1l	equ	0xFE1
  5856                           indf2	equ	0xFDF
  5857                           postinc2	equ	0xFDE
  5858                           postdec2	equ	0xFDD
  5859                           plusw2	equ	0xFDB
  5860                           fsr2h	equ	0xFDA
  5861                           fsr2l	equ	0xFD9
  5862                           status	equ	0xFD8
  5863                           
  5864 ;; *************** function _USBCheckBusStatus *****************
  5865 ;; Defined at:
  5866 ;;		line 406 in file "../src/usb_device.c"
  5867 ;; Parameters:    Size  Location     Type
  5868 ;;		None
  5869 ;; Auto vars:     Size  Location     Type
  5870 ;;		None
  5871 ;; Return value:  Size  Location     Type
  5872 ;;                  1    wreg      void 
  5873 ;; Registers used:
  5874 ;;		wreg, fsr2l, fsr2h, status,2, status,0, cstack
  5875 ;; Tracked objects:
  5876 ;;		On entry : 0/0
  5877 ;;		On exit  : 0/0
  5878 ;;		Unchanged: 0/0
  5879 ;; Data sizes:     COMRAM   BANK0   BANK1   BANK2   BANK3  BANK4h   BANK5   BANK6   BANK7
  5880 ;;      Params:         0       0       0       0       0       0       0       0       0
  5881 ;;      Locals:         0       0       0       0       0       0       0       0       0
  5882 ;;      Temps:          0       0       0       0       0       0       0       0       0
  5883 ;;      Totals:         0       0       0       0       0       0       0       0       0
  5884 ;;Total ram usage:        0 bytes
  5885 ;; Hardware stack levels used:    1
  5886 ;; Hardware stack levels required when called:    4
  5887 ;; This function calls:
  5888 ;;		_USBSoftAttach
  5889 ;; This function is called by:
  5890 ;;		_USBDeviceInit
  5891 ;;		_USBDeviceTasks
  5892 ;; This function uses a non-reentrant model
  5893 ;;
  5894                           
  5895                           	psect	text32
  5896  0000'                    __ptext32:
  5897                           	opt stack 0
  5898  0000'                    _USBCheckBusStatus:
  5899                           	opt stack 24
  5900                           
  5901                           ;usb_device.c: 411: if(DeviceIsSoftDetached == 1)
  5902                           
  5903                           ;incstack = 0
  5904  0000' 043B'              	decf	_DeviceIsSoftDetached,w,c
  5905  0002' B4D8               	btfsc	status,2,c
  5906  0004' 0012               	return	
  5907                           
  5908                           ;usb_device.c: 414: }
  5909                           ;usb_device.c: 440: if(UCONbits.USBEN == 0)
  5910                           
  5911                           ;usb_device.c: 412: {
  5912                           ;usb_device.c: 413: return;
  5913  0006' B660               	btfsc	3936,3,c	;volatile
  5914  0008' 0012               	return	
  5915                           
  5916                           ;usb_device.c: 441: USBSoftAttach();
  5917  000A' EC00' F000'        	call	_USBSoftAttach	;wreg free
  5918  000E' 0012               	return	
  5919  0010'                    __end_of_USBCheckBusStatus:
  5920                           	opt stack 0
  5921                           stkptr	equ	0xFFC
  5922                           tblptru	equ	0xFF8
  5923                           tblptrh	equ	0xFF7
  5924                           tblptrl	equ	0xFF6
  5925                           tablat	equ	0xFF5
  5926                           prodh	equ	0xFF4
  5927                           prodl	equ	0xFF3
  5928                           intcon	equ	0xFF2
  5929                           postinc0	equ	0xFEE
  5930                           wreg	equ	0xFE8
  5931                           indf1	equ	0xFE7
  5932                           fsr1h	equ	0xFE2
  5933                           fsr1l	equ	0xFE1
  5934                           indf2	equ	0xFDF
  5935                           postinc2	equ	0xFDE
  5936                           postdec2	equ	0xFDD
  5937                           plusw2	equ	0xFDB
  5938                           fsr2h	equ	0xFDA
  5939                           fsr2l	equ	0xFD9
  5940                           status	equ	0xFD8
  5941                           
  5942 ;; *************** function _USBSoftAttach *****************
  5943 ;; Defined at:
  5944 ;;		line 354 in file "../src/usb_device.c"
  5945 ;; Parameters:    Size  Location     Type
  5946 ;;		None
  5947 ;; Auto vars:     Size  Location     Type
  5948 ;;		None
  5949 ;; Return value:  Size  Location     Type
  5950 ;;                  1    wreg      void 
  5951 ;; Registers used:
  5952 ;;		wreg, fsr2l, fsr2h, status,2, status,0, cstack
  5953 ;; Tracked objects:
  5954 ;;		On entry : 0/0
  5955 ;;		On exit  : 0/0
  5956 ;;		Unchanged: 0/0
  5957 ;; Data sizes:     COMRAM   BANK0   BANK1   BANK2   BANK3  BANK4h   BANK5   BANK6   BANK7
  5958 ;;      Params:         0       0       0       0       0       0       0       0       0
  5959 ;;      Locals:         0       0       0       0       0       0       0       0       0
  5960 ;;      Temps:          0       0       0       0       0       0       0       0       0
  5961 ;;      Totals:         0       0       0       0       0       0       0       0       0
  5962 ;;Total ram usage:        0 bytes
  5963 ;; Hardware stack levels used:    1
  5964 ;; Hardware stack levels required when called:    3
  5965 ;; This function calls:
  5966 ;;		_USBDisableWithLongDelay
  5967 ;;		_USBProtocolResetHandler
  5968 ;; This function is called by:
  5969 ;;		_USBCheckBusStatus
  5970 ;; This function uses a non-reentrant model
  5971 ;;
  5972                           
  5973                           	psect	text33
  5974  0000'                    __ptext33:
  5975                           	opt stack 0
  5976  0000'                    _USBSoftAttach:
  5977                           	opt stack 24
  5978                           
  5979                           ;usb_device.c: 361: if(DeviceIsSoftDetached == 1)
  5980                           
  5981                           ;incstack = 0
  5982  0000' 043B'              	decf	_DeviceIsSoftDetached,w,c
  5983  0002' B4D8               	btfsc	status,2,c
  5984                           
  5985                           ;usb_device.c: 362: {
  5986                           ;usb_device.c: 363: USBDisableWithLongDelay();
  5987  0004' EC00' F000'        	call	_USBDisableWithLongDelay	;wreg free
  5988                           
  5989                           ;usb_device.c: 364: }
  5990                           ;usb_device.c: 366: UCON = 0;
  5991  0008' 0E00               	movlw	0
  5992  000A' 6E60               	movwf	3936,c	;volatile
  5993                           
  5994                           ;usb_device.c: 367: UCFG = 0x10|0x00|0x04|0x01;
  5995  000C' 0E15               	movlw	21
  5996  000E' 6E62               	movwf	3938,c	;volatile
  5997                           
  5998                           ;usb_device.c: 368: UIE = 0;
  5999  0010' 0E00               	movlw	0
  6000  0012' 6E64               	movwf	3940,c	;volatile
  6001                           
  6002                           ;usb_device.c: 369: UCONbits.USBEN = 1;
  6003  0014' 8660               	bsf	3936,3,c	;volatile
  6004                           
  6005                           ;usb_device.c: 371: USBProtocolResetHandler();
  6006  0016' EC00' F000'        	call	_USBProtocolResetHandler	;wreg free
  6007                           
  6008                           ;usb_device.c: 372: usb_device_state = 1;
  6009  001A' 0E01               	movlw	1
  6010  001C' 6E43'              	movwf	_usb_device_state,c
  6011                           
  6012                           ;usb_device.c: 373: DeviceIsSoftDetached = 0;
  6013  001E' 0E00               	movlw	0
  6014  0020' 6E3B'              	movwf	_DeviceIsSoftDetached,c
  6015  0022' 0012               	return		;funcret
  6016  0024'                    __end_of_USBSoftAttach:
  6017                           	opt stack 0
  6018                           stkptr	equ	0xFFC
  6019                           tblptru	equ	0xFF8
  6020                           tblptrh	equ	0xFF7
  6021                           tblptrl	equ	0xFF6
  6022                           tablat	equ	0xFF5
  6023                           prodh	equ	0xFF4
  6024                           prodl	equ	0xFF3
  6025                           intcon	equ	0xFF2
  6026                           postinc0	equ	0xFEE
  6027                           wreg	equ	0xFE8
  6028                           indf1	equ	0xFE7
  6029                           fsr1h	equ	0xFE2
  6030                           fsr1l	equ	0xFE1
  6031                           indf2	equ	0xFDF
  6032                           postinc2	equ	0xFDE
  6033                           postdec2	equ	0xFDD
  6034                           plusw2	equ	0xFDB
  6035                           fsr2h	equ	0xFDA
  6036                           fsr2l	equ	0xFD9
  6037                           status	equ	0xFD8
  6038                           
  6039 ;; *************** function _USBProtocolResetHandler *****************
  6040 ;; Defined at:
  6041 ;;		line 753 in file "../src/usb_device.c"
  6042 ;; Parameters:    Size  Location     Type
  6043 ;;		None
  6044 ;; Auto vars:     Size  Location     Type
  6045 ;;		None
  6046 ;; Return value:  Size  Location     Type
  6047 ;;                  1    wreg      void 
  6048 ;; Registers used:
  6049 ;;		wreg, fsr2l, fsr2h, status,2, status,0, cstack
  6050 ;; Tracked objects:
  6051 ;;		On entry : 0/0
  6052 ;;		On exit  : 0/0
  6053 ;;		Unchanged: 0/0
  6054 ;; Data sizes:     COMRAM   BANK0   BANK1   BANK2   BANK3  BANK4h   BANK5   BANK6   BANK7
  6055 ;;      Params:         0       0       0       0       0       0       0       0       0
  6056 ;;      Locals:         0       0       0       0       0       0       0       0       0
  6057 ;;      Temps:          0       0       0       0       0       0       0       0       0
  6058 ;;      Totals:         0       0       0       0       0       0       0       0       0
  6059 ;;Total ram usage:        0 bytes
  6060 ;; Hardware stack levels used:    1
  6061 ;; Hardware stack levels required when called:    2
  6062 ;; This function calls:
  6063 ;;		_ClearWatchdog
  6064 ;;		_LoadBDTandSetUOWN
  6065 ;;		_USBCBInitEP
  6066 ;; This function is called by:
  6067 ;;		_USBSoftAttach
  6068 ;;		_USBDeviceTasks
  6069 ;; This function uses a non-reentrant model
  6070 ;;
  6071                           
  6072                           	psect	text34
  6073  0000'                    __ptext34:
  6074                           	opt stack 0
  6075  0000'                    _USBProtocolResetHandler:
  6076                           	opt stack 26
  6077                           
  6078                           ;usb_device.c: 755: usb_device_state = 3;
  6079                           
  6080                           ;incstack = 0
  6081  0000' 0E03               	movlw	3
  6082  0002' 6E43'              	movwf	_usb_device_state,c
  6083                           
  6084                           ;usb_device.c: 756: UEIE = 0;
  6085  0004' 0E00               	movlw	0
  6086  0006' 6E66               	movwf	3942,c	;volatile
  6087                           
  6088                           ;usb_device.c: 757: UIR = 0;
  6089  0008' 0E00               	movlw	0
  6090  000A' 6E65               	movwf	3941,c	;volatile
  6091                           
  6092                           ;usb_device.c: 758: UIE = 0b01111011;
  6093  000C' 0E7B               	movlw	123
  6094  000E' 6E64               	movwf	3940,c	;volatile
  6095                           
  6096                           ;usb_device.c: 759: UADDR = 0x00;
  6097  0010' 0E00               	movlw	0
  6098  0012' 6E63               	movwf	3939,c	;volatile
  6099                           
  6100                           ;usb_device.c: 760: UEP1=0x00;UEP2=0x00;UEP3=0x00; UEP4=0x00;UEP5=0x00;UEP6=0x00;UEP7=0x
      +                          00;;
  6101  0014' 0E00               	movlw	0
  6102  0016' 6E6B               	movwf	3947,c	;volatile
  6103  0018' 0E00               	movlw	0
  6104  001A' 6E6C               	movwf	3948,c	;volatile
  6105  001C' 0E00               	movlw	0
  6106  001E' 6E6D               	movwf	3949,c	;volatile
  6107  0020' 0E00               	movlw	0
  6108  0022' 6E6E               	movwf	3950,c	;volatile
  6109  0024' 0E00               	movlw	0
  6110  0026' 6E6F               	movwf	3951,c	;volatile
  6111  0028' 0E00               	movlw	0
  6112  002A' 6E70               	movwf	3952,c	;volatile
  6113  002C' 0E00               	movlw	0
  6114  002E' 6E71               	movwf	3953,c	;volatile
  6115                           
  6116                           ;usb_device.c: 761: UEP0 = 0x06|0x10;
  6117  0030' 0E16               	movlw	22
  6118  0032' 6E6A               	movwf	3946,c	;volatile
  6119                           
  6120                           ;usb_device.c: 762: UCONbits.PPBRST = 1;
  6121  0034' 8C60               	bsf	3936,6,c	;volatile
  6122                           
  6123                           ;usb_device.c: 763: while(UIRbits.TRNIF == 1)
  6124  0036' D003               	goto	l2487
  6125  0038'                    l508:
  6126                           
  6127                           ;usb_device.c: 764: {
  6128                           ;usb_device.c: 765: UIRbits.TRNIF = 0;
  6129  0038' 9665               	bcf	3941,3,c	;volatile
  6130                           
  6131                           ;usb_device.c: 766: ClearWatchdog();
  6132  003A' EC00' F000'        	call	_ClearWatchdog	;wreg free
  6133  003E'                    l2487:
  6134  003E' B665               	btfsc	3941,3,c	;volatile
  6135  0040' D7FB               	goto	l508
  6136                           
  6137                           ;usb_device.c: 767: }
  6138                           ;usb_device.c: 768: UCONbits.PPBRST = 0;
  6139  0042' 9C60               	bcf	3936,6,c	;volatile
  6140                           
  6141                           ;usb_device.c: 769: UCONbits.PKTDIS = 0;
  6142  0044' 9860               	bcf	3936,4,c	;volatile
  6143                           
  6144                           ;usb_device.c: 772: TempBDT.Stat._byte = 0x00|0x04;
  6145  0046' 0E04               	movlw	4
  6146  0048' 6E0C'              	movwf	_TempBDT,c
  6147                           
  6148                           ;usb_device.c: 773: LoadBDTandSetUOWN(0);
  6149  004A' 0E00               	movlw	0
  6150  004C' EC00' F000'        	call	_LoadBDTandSetUOWN
  6151                           
  6152                           ;usb_device.c: 774: EP0OutOddNeedsArmingNext = 1;
  6153  0050' 0E01               	movlw	1
  6154  0052' 6E3C'              	movwf	_EP0OutOddNeedsArmingNext,c
  6155                           
  6156                           ;usb_device.c: 775: usb_stat._byte = 0x00;
  6157  0054' 0E00               	movlw	0
  6158  0056' 6E44'              	movwf	_usb_stat,c
  6159                           
  6160                           ;usb_device.c: 776: usb_active_cfg = 0;
  6161  0058' 0E00               	movlw	0
  6162  005A' 6E47'              	movwf	_usb_active_cfg,c
  6163                           
  6164                           ;usb_device.c: 777: USBCBInitEP(0);
  6165  005C' 0E00               	movlw	0
  6166  005E' EC00' F000'        	call	_USBCBInitEP
  6167  0062' 0012               	return		;funcret
  6168  0064'                    __end_of_USBProtocolResetHandler:
  6169                           	opt stack 0
  6170                           stkptr	equ	0xFFC
  6171                           tblptru	equ	0xFF8
  6172                           tblptrh	equ	0xFF7
  6173                           tblptrl	equ	0xFF6
  6174                           tablat	equ	0xFF5
  6175                           prodh	equ	0xFF4
  6176                           prodl	equ	0xFF3
  6177                           intcon	equ	0xFF2
  6178                           postinc0	equ	0xFEE
  6179                           wreg	equ	0xFE8
  6180                           indf1	equ	0xFE7
  6181                           fsr1h	equ	0xFE2
  6182                           fsr1l	equ	0xFE1
  6183                           indf2	equ	0xFDF
  6184                           postinc2	equ	0xFDE
  6185                           postdec2	equ	0xFDD
  6186                           plusw2	equ	0xFDB
  6187                           fsr2h	equ	0xFDA
  6188                           fsr2l	equ	0xFD9
  6189                           status	equ	0xFD8
  6190                           
  6191 ;; *************** function _USBCBInitEP *****************
  6192 ;; Defined at:
  6193 ;;		line 642 in file "../src/main.c"
  6194 ;; Parameters:    Size  Location     Type
  6195 ;;  Configuratio    1    wreg     unsigned char 
  6196 ;; Auto vars:     Size  Location     Type
  6197 ;;  Configuratio    1    0[COMRAM] unsigned char 
  6198 ;; Return value:  Size  Location     Type
  6199 ;;                  1    wreg      void 
  6200 ;; Registers used:
  6201 ;;		wreg, status,2, status,0, cstack
  6202 ;; Tracked objects:
  6203 ;;		On entry : 0/0
  6204 ;;		On exit  : 0/0
  6205 ;;		Unchanged: 0/0
  6206 ;; Data sizes:     COMRAM   BANK0   BANK1   BANK2   BANK3  BANK4h   BANK5   BANK6   BANK7
  6207 ;;      Params:         0       0       0       0       0       0       0       0       0
  6208 ;;      Locals:         1       0       0       0       0       0       0       0       0
  6209 ;;      Temps:          0       0       0       0       0       0       0       0       0
  6210 ;;      Totals:         1       0       0       0       0       0       0       0       0
  6211 ;;Total ram usage:        1 bytes
  6212 ;; Hardware stack levels used:    1
  6213 ;; Hardware stack levels required when called:    1
  6214 ;; This function calls:
  6215 ;;		_HIDInitEP
  6216 ;;		_UserInit
  6217 ;; This function is called by:
  6218 ;;		_USBProtocolResetHandler
  6219 ;;		_USBStdSetCfgHandler
  6220 ;; This function uses a non-reentrant model
  6221 ;;
  6222                           
  6223                           	psect	text35
  6224  0000'                    __ptext35:
  6225                           	opt stack 0
  6226  0000'                    _USBCBInitEP:
  6227                           	opt stack 26
  6228                           
  6229                           ;incstack = 0
  6230                           ;USBCBInitEP@ConfigurationIndex stored from wreg
  6231  0000' 6E00'              	movwf	USBCBInitEP@ConfigurationIndex,c
  6232                           
  6233                           ;main.c: 651: if(ConfigurationIndex == 1)
  6234  0002' 0400'              	decf	USBCBInitEP@ConfigurationIndex,w,c
  6235  0004' A4D8               	btfss	status,2,c
  6236  0006' 0012               	return	
  6237                           
  6238                           ;main.c: 652: {
  6239                           ;main.c: 657: HIDInitEP();
  6240  0008' EC00' F000'        	call	_HIDInitEP	;wreg free
  6241                           
  6242                           ;main.c: 660: UserInit();
  6243  000C' EC00' F000'        	call	_UserInit	;wreg free
  6244  0010' 0012               	return	
  6245  0012'                    __end_of_USBCBInitEP:
  6246                           	opt stack 0
  6247                           stkptr	equ	0xFFC
  6248                           tblptru	equ	0xFF8
  6249                           tblptrh	equ	0xFF7
  6250                           tblptrl	equ	0xFF6
  6251                           tablat	equ	0xFF5
  6252                           prodh	equ	0xFF4
  6253                           prodl	equ	0xFF3
  6254                           intcon	equ	0xFF2
  6255                           postinc0	equ	0xFEE
  6256                           wreg	equ	0xFE8
  6257                           indf1	equ	0xFE7
  6258                           fsr1h	equ	0xFE2
  6259                           fsr1l	equ	0xFE1
  6260                           indf2	equ	0xFDF
  6261                           postinc2	equ	0xFDE
  6262                           postdec2	equ	0xFDD
  6263                           plusw2	equ	0xFDB
  6264                           fsr2h	equ	0xFDA
  6265                           fsr2l	equ	0xFD9
  6266                           status	equ	0xFD8
  6267                           
  6268 ;; *************** function _UserInit *****************
  6269 ;; Defined at:
  6270 ;;		line 331 in file "../src/BootPIC18NonJ.c"
  6271 ;; Parameters:    Size  Location     Type
  6272 ;;		None
  6273 ;; Auto vars:     Size  Location     Type
  6274 ;;		None
  6275 ;; Return value:  Size  Location     Type
  6276 ;;                  1    wreg      void 
  6277 ;; Registers used:
  6278 ;;		wreg, status,2
  6279 ;; Tracked objects:
  6280 ;;		On entry : 0/0
  6281 ;;		On exit  : 0/0
  6282 ;;		Unchanged: 0/0
  6283 ;; Data sizes:     COMRAM   BANK0   BANK1   BANK2   BANK3  BANK4h   BANK5   BANK6   BANK7
  6284 ;;      Params:         0       0       0       0       0       0       0       0       0
  6285 ;;      Locals:         0       0       0       0       0       0       0       0       0
  6286 ;;      Temps:          0       0       0       0       0       0       0       0       0
  6287 ;;      Totals:         0       0       0       0       0       0       0       0       0
  6288 ;;Total ram usage:        0 bytes
  6289 ;; Hardware stack levels used:    1
  6290 ;; This function calls:
  6291 ;;		Nothing
  6292 ;; This function is called by:
  6293 ;;		_InitializeSystem
  6294 ;;		_USBCBInitEP
  6295 ;; This function uses a non-reentrant model
  6296 ;;
  6297                           
  6298                           	psect	text36
  6299  0000'                    __ptext36:
  6300                           	opt stack 0
  6301  0000'                    _UserInit:
  6302                           	opt stack 26
  6303                           
  6304                           ;BootPIC18NonJ.c: 334: BootState = 0x00;
  6305                           
  6306                           ;incstack = 0
  6307  0000' 0E00               	movlw	0
  6308  0002' 6E38'              	movwf	_BootState,c
  6309                           
  6310                           ;BootPIC18NonJ.c: 335: ProgrammedPointer = 0xFFFFFFFF;
  6311  0004' 6808'              	setf	_ProgrammedPointer,c
  6312  0006' 6809'              	setf	_ProgrammedPointer+1,c
  6313  0008' 680A'              	setf	_ProgrammedPointer+2,c
  6314  000A' 680B'              	setf	_ProgrammedPointer+3,c
  6315                           
  6316                           ;BootPIC18NonJ.c: 336: BufferedDataIndex = 0;
  6317  000C' 0E00               	movlw	0
  6318  000E' 6E39'              	movwf	_BufferedDataIndex,c
  6319                           
  6320                           ;BootPIC18NonJ.c: 337: ConfigsLockValue = 1;
  6321  0010' 0E01               	movlw	1
  6322  0012' 6E3A'              	movwf	_ConfigsLockValue,c
  6323  0014' 0012               	return		;funcret
  6324  0016'                    __end_of_UserInit:
  6325                           	opt stack 0
  6326                           stkptr	equ	0xFFC
  6327                           tblptru	equ	0xFF8
  6328                           tblptrh	equ	0xFF7
  6329                           tblptrl	equ	0xFF6
  6330                           tablat	equ	0xFF5
  6331                           prodh	equ	0xFF4
  6332                           prodl	equ	0xFF3
  6333                           intcon	equ	0xFF2
  6334                           postinc0	equ	0xFEE
  6335                           wreg	equ	0xFE8
  6336                           indf1	equ	0xFE7
  6337                           fsr1h	equ	0xFE2
  6338                           fsr1l	equ	0xFE1
  6339                           indf2	equ	0xFDF
  6340                           postinc2	equ	0xFDE
  6341                           postdec2	equ	0xFDD
  6342                           plusw2	equ	0xFDB
  6343                           fsr2h	equ	0xFDA
  6344                           fsr2l	equ	0xFD9
  6345                           status	equ	0xFD8
  6346                           
  6347 ;; *************** function _HIDInitEP *****************
  6348 ;; Defined at:
  6349 ;;		line 171 in file "../src/usb_device_hid.c"
  6350 ;; Parameters:    Size  Location     Type
  6351 ;;		None
  6352 ;; Auto vars:     Size  Location     Type
  6353 ;;		None
  6354 ;; Return value:  Size  Location     Type
  6355 ;;                  1    wreg      void 
  6356 ;; Registers used:
  6357 ;;		wreg, status,2, status,0
  6358 ;; Tracked objects:
  6359 ;;		On entry : 0/0
  6360 ;;		On exit  : 0/0
  6361 ;;		Unchanged: 0/0
  6362 ;; Data sizes:     COMRAM   BANK0   BANK1   BANK2   BANK3  BANK4h   BANK5   BANK6   BANK7
  6363 ;;      Params:         0       0       0       0       0       0       0       0       0
  6364 ;;      Locals:         0       0       0       0       0       0       0       0       0
  6365 ;;      Temps:          0       0       0       0       0       0       0       0       0
  6366 ;;      Totals:         0       0       0       0       0       0       0       0       0
  6367 ;;Total ram usage:        0 bytes
  6368 ;; Hardware stack levels used:    1
  6369 ;; This function calls:
  6370 ;;		Nothing
  6371 ;; This function is called by:
  6372 ;;		_USBCBInitEP
  6373 ;; This function uses a non-reentrant model
  6374 ;;
  6375                           
  6376                           	psect	text37
  6377  0000'                    __ptext37:
  6378                           	opt stack 0
  6379  0000'                    _HIDInitEP:
  6380                           	opt stack 26
  6381                           
  6382                           ;usb_device_hid.c: 173: hid_rpt_rx_len =0;
  6383                           
  6384                           ;incstack = 0
  6385  0000' 0E00               	movlw	0
  6386  0002' 6E41'              	movwf	_hid_rpt_rx_len,c
  6387                           
  6388                           ;usb_device_hid.c: 175: UEP1 = 0x0E|0x10;
  6389  0004' 0E1E               	movlw	30
  6390  0006' 6E6B               	movwf	3947,c	;volatile
  6391                           
  6392                           ;usb_device_hid.c: 178: ep1Bo.Cnt = sizeof(hid_report_out);
  6393  0008' 0E40               	movlw	64
  6394  000A' 0104               	movlb	4	; () banked
  6395  000C' 6F0D               	movwf	13,b	;volatile
  6396                           
  6397                           ; BSR set to: 4
  6398                           ;usb_device_hid.c: 179: ep1Bo.ADR = (uint8_t*)&hid_report_out;
  6399  000E' 0E2C               	movlw	44
  6400  0010' 0104               	movlb	4	; () banked
  6401  0012' 6F0E               	movwf	14,b	;volatile
  6402  0014' 0E04               	movlw	4
  6403  0016' 0104               	movlb	4	; () banked
  6404  0018' 6F0F               	movwf	15,b	;volatile
  6405                           
  6406                           ; BSR set to: 4
  6407                           ;usb_device_hid.c: 180: ep1Bo.Stat._byte = 0x00|0x08;
  6408  001A' 0E08               	movlw	8
  6409  001C' 0104               	movlb	4	; () banked
  6410  001E' 6F0C               	movwf	12,b	;volatile
  6411                           
  6412                           ; BSR set to: 4
  6413                           ;usb_device_hid.c: 181: ep1Bo.Stat._byte |= 0x80;
  6414  0020' 0104               	movlb	4	; () banked
  6415  0022' 8F0C               	bsf	12,7,b	;volatile
  6416                           
  6417                           ; BSR set to: 4
  6418                           ;usb_device_hid.c: 194: ep1Bi.ADR = (uint8_t*)&hid_report_in;
  6419  0024' 0E6C               	movlw	108
  6420  0026' 0104               	movlb	4	; () banked
  6421  0028' 6F12               	movwf	18,b	;volatile
  6422  002A' 0E04               	movlw	4
  6423  002C' 0104               	movlb	4	; () banked
  6424  002E' 6F13               	movwf	19,b	;volatile
  6425                           
  6426                           ; BSR set to: 4
  6427                           ;usb_device_hid.c: 195: ep1Bi.Stat._byte = 0x00|0x40;
  6428  0030' 0E40               	movlw	64
  6429  0032' 0104               	movlb	4	; () banked
  6430  0034' 6F10               	movwf	16,b	;volatile
  6431                           
  6432                           ; BSR set to: 4
  6433  0036' 0012               	return		;funcret
  6434  0038'                    __end_of_HIDInitEP:
  6435                           	opt stack 0
  6436                           stkptr	equ	0xFFC
  6437                           tblptru	equ	0xFF8
  6438                           tblptrh	equ	0xFF7
  6439                           tblptrl	equ	0xFF6
  6440                           tablat	equ	0xFF5
  6441                           prodh	equ	0xFF4
  6442                           prodl	equ	0xFF3
  6443                           intcon	equ	0xFF2
  6444                           postinc0	equ	0xFEE
  6445                           wreg	equ	0xFE8
  6446                           indf1	equ	0xFE7
  6447                           fsr1h	equ	0xFE2
  6448                           fsr1l	equ	0xFE1
  6449                           indf2	equ	0xFDF
  6450                           postinc2	equ	0xFDE
  6451                           postdec2	equ	0xFDD
  6452                           plusw2	equ	0xFDB
  6453                           fsr2h	equ	0xFDA
  6454                           fsr2l	equ	0xFD9
  6455                           status	equ	0xFD8
  6456                           
  6457 ;; *************** function _LoadBDTandSetUOWN *****************
  6458 ;; Defined at:
  6459 ;;		line 1592 in file "../src/usb_device.c"
  6460 ;; Parameters:    Size  Location     Type
  6461 ;;  BDTIndexToLo    1    wreg     unsigned char 
  6462 ;; Auto vars:     Size  Location     Type
  6463 ;;  BDTIndexToLo    1    0[COMRAM] unsigned char 
  6464 ;; Return value:  Size  Location     Type
  6465 ;;                  1    wreg      void 
  6466 ;; Registers used:
  6467 ;;		wreg, fsr2l, fsr2h, status,2, status,0
  6468 ;; Tracked objects:
  6469 ;;		On entry : 0/0
  6470 ;;		On exit  : 0/0
  6471 ;;		Unchanged: 0/0
  6472 ;; Data sizes:     COMRAM   BANK0   BANK1   BANK2   BANK3  BANK4h   BANK5   BANK6   BANK7
  6473 ;;      Params:         0       0       0       0       0       0       0       0       0
  6474 ;;      Locals:         1       0       0       0       0       0       0       0       0
  6475 ;;      Temps:          0       0       0       0       0       0       0       0       0
  6476 ;;      Totals:         1       0       0       0       0       0       0       0       0
  6477 ;;Total ram usage:        1 bytes
  6478 ;; Hardware stack levels used:    1
  6479 ;; This function calls:
  6480 ;;		Nothing
  6481 ;; This function is called by:
  6482 ;;		_USBProtocolResetHandler
  6483 ;;		_USBCtrlEPServiceComplete
  6484 ;; This function uses a non-reentrant model
  6485 ;;
  6486                           
  6487                           	psect	text38
  6488  0000'                    __ptext38:
  6489                           	opt stack 0
  6490  0000'                    _LoadBDTandSetUOWN:
  6491                           	opt stack 27
  6492                           
  6493                           ; BSR set to: 4
  6494                           ;incstack = 0
  6495                           ;LoadBDTandSetUOWN@BDTIndexToLoad stored from wreg
  6496  0000' 6E00'              	movwf	LoadBDTandSetUOWN@BDTIndexToLoad,c
  6497                           
  6498                           ;usb_device.c: 1594: static volatile BDT* pBDTEntry;
  6499                           ;usb_device.c: 1600: TempBDT.Cnt = 8;
  6500  0002' 0E08               	movlw	8
  6501  0004' 6E0D'              	movwf	_TempBDT+1,c
  6502                           
  6503                           ;usb_device.c: 1601: TempBDT.ADR = (uint8_t*)&EP0OutOddBuf[0];
  6504  0006' 0E1C               	movlw	28
  6505  0008' 6E0E'              	movwf	_TempBDT+2,c
  6506  000A' 0E04               	movlw	4
  6507  000C' 6E0F'              	movwf	_TempBDT+3,c
  6508                           
  6509                           ;usb_device.c: 1602: if(BDTIndexToLoad == 0)
  6510  000E' 5000'              	movf	LoadBDTandSetUOWN@BDTIndexToLoad,w,c
  6511  0010' A4D8               	btfss	status,2,c
  6512  0012' D006               	goto	l2401
  6513                           
  6514                           ;usb_device.c: 1603: {
  6515                           ;usb_device.c: 1604: TempBDT.ADR = (uint8_t*)&EP0OutEvenBuf[0];
  6516  0014' 0E14               	movlw	20
  6517  0016' 6E0E'              	movwf	_TempBDT+2,c
  6518  0018' 0E04               	movlw	4
  6519  001A' 6E0F'              	movwf	_TempBDT+3,c
  6520                           
  6521                           ;usb_device.c: 1605: pBDTEntry = (volatile BDT*)0x400;
  6522  001C' 0E00               	movlw	0
  6523  001E' D001               	goto	L10
  6524  0020'                    l2401:
  6525                           
  6526                           ;usb_device.c: 1607: else
  6527                           ;usb_device.c: 1608: {
  6528                           ;usb_device.c: 1609: pBDTEntry = (volatile BDT*)(0x400 + 4);
  6529  0020' 0E04               	movlw	4
  6530  0022'                    L10:
  6531  0022' 6E21'              	movwf	LoadBDTandSetUOWN@pBDTEntry,c
  6532  0024' 0E04               	movlw	4
  6533  0026' 6E22'              	movwf	LoadBDTandSetUOWN@pBDTEntry+1,c
  6534                           
  6535                           ;usb_device.c: 1610: }
  6536                           ;usb_device.c: 1613: *pBDTEntry = TempBDT;
  6537  0028' C021' FFD9         	movff	LoadBDTandSetUOWN@pBDTEntry,fsr2l
  6538  002C' C022' FFDA         	movff	LoadBDTandSetUOWN@pBDTEntry+1,fsr2h
  6539  0030' C00C' FFDE         	movff	_TempBDT,postinc2
  6540  0034' C00D' FFDE         	movff	_TempBDT+1,postinc2
  6541  0038' C00E' FFDE         	movff	_TempBDT+2,postinc2
  6542  003C' C00F' FFDE         	movff	_TempBDT+3,postinc2
  6543                           
  6544                           ;usb_device.c: 1616: pBDTEntry->Stat.UOWN = 1;
  6545  0040' C021' FFD9         	movff	LoadBDTandSetUOWN@pBDTEntry,fsr2l
  6546  0044' C022' FFDA         	movff	LoadBDTandSetUOWN@pBDTEntry+1,fsr2h
  6547  0048' 8EDF               	bsf	indf2,7,c
  6548  004A' 0012               	return		;funcret
  6549  004C'                    __end_of_LoadBDTandSetUOWN:
  6550                           	opt stack 0
  6551                           stkptr	equ	0xFFC
  6552                           tblptru	equ	0xFF8
  6553                           tblptrh	equ	0xFF7
  6554                           tblptrl	equ	0xFF6
  6555                           tablat	equ	0xFF5
  6556                           prodh	equ	0xFF4
  6557                           prodl	equ	0xFF3
  6558                           intcon	equ	0xFF2
  6559                           postinc0	equ	0xFEE
  6560                           wreg	equ	0xFE8
  6561                           indf1	equ	0xFE7
  6562                           fsr1h	equ	0xFE2
  6563                           fsr1l	equ	0xFE1
  6564                           indf2	equ	0xFDF
  6565                           postinc2	equ	0xFDE
  6566                           postdec2	equ	0xFDD
  6567                           plusw2	equ	0xFDB
  6568                           fsr2h	equ	0xFDA
  6569                           fsr2l	equ	0xFD9
  6570                           status	equ	0xFD8
  6571                           
  6572 ;; *************** function _USBDisableWithLongDelay *****************
  6573 ;; Defined at:
  6574 ;;		line 1624 in file "../src/usb_device.c"
  6575 ;; Parameters:    Size  Location     Type
  6576 ;;		None
  6577 ;; Auto vars:     Size  Location     Type
  6578 ;;		None
  6579 ;; Return value:  Size  Location     Type
  6580 ;;                  1    wreg      void 
  6581 ;; Registers used:
  6582 ;;		wreg, status,2, status,0, cstack
  6583 ;; Tracked objects:
  6584 ;;		On entry : 0/0
  6585 ;;		On exit  : 0/0
  6586 ;;		Unchanged: 0/0
  6587 ;; Data sizes:     COMRAM   BANK0   BANK1   BANK2   BANK3  BANK4h   BANK5   BANK6   BANK7
  6588 ;;      Params:         0       0       0       0       0       0       0       0       0
  6589 ;;      Locals:         0       0       0       0       0       0       0       0       0
  6590 ;;      Temps:          0       0       0       0       0       0       0       0       0
  6591 ;;      Totals:         0       0       0       0       0       0       0       0       0
  6592 ;;Total ram usage:        0 bytes
  6593 ;; Hardware stack levels used:    1
  6594 ;; Hardware stack levels required when called:    2
  6595 ;; This function calls:
  6596 ;;		_DelayRoutine
  6597 ;; This function is called by:
  6598 ;;		_ResetDeviceCleanly
  6599 ;;		_USBDeviceInit
  6600 ;;		_USBSoftAttach
  6601 ;; This function uses a non-reentrant model
  6602 ;;
  6603                           
  6604                           	psect	text39
  6605  0000'                    __ptext39:
  6606                           	opt stack 0
  6607  0000'                    _USBDisableWithLongDelay:
  6608                           	opt stack 24
  6609                           
  6610                           ;usb_device.c: 1626: UCONbits.SUSPND = 0;
  6611                           
  6612                           ;incstack = 0
  6613  0000' 9260               	bcf	3936,1,c	;volatile
  6614                           
  6615                           ;usb_device.c: 1627: UCON = 0x00;
  6616  0002' 0E00               	movlw	0
  6617  0004' 6E60               	movwf	3936,c	;volatile
  6618                           
  6619                           ;usb_device.c: 1628: DelayRoutine(0xFFFF);
  6620  0006' 0EFF               	movlw	255
  6621  0008' 6E01'              	movwf	DelayRoutine@DelayAmount+1,c
  6622  000A' 6800'              	setf	DelayRoutine@DelayAmount,c
  6623  000C' EC00' F000'        	call	_DelayRoutine	;wreg free
  6624                           
  6625                           ;usb_device.c: 1629: usb_device_state = 0;
  6626  0010' 0E00               	movlw	0
  6627  0012' 6E43'              	movwf	_usb_device_state,c
  6628  0014' 0012               	return		;funcret
  6629  0016'                    __end_of_USBDisableWithLongDelay:
  6630                           	opt stack 0
  6631                           stkptr	equ	0xFFC
  6632                           tblptru	equ	0xFF8
  6633                           tblptrh	equ	0xFF7
  6634                           tblptrl	equ	0xFF6
  6635                           tablat	equ	0xFF5
  6636                           prodh	equ	0xFF4
  6637                           prodl	equ	0xFF3
  6638                           intcon	equ	0xFF2
  6639                           postinc0	equ	0xFEE
  6640                           wreg	equ	0xFE8
  6641                           indf1	equ	0xFE7
  6642                           fsr1h	equ	0xFE2
  6643                           fsr1l	equ	0xFE1
  6644                           indf2	equ	0xFDF
  6645                           postinc2	equ	0xFDE
  6646                           postdec2	equ	0xFDD
  6647                           plusw2	equ	0xFDB
  6648                           fsr2h	equ	0xFDA
  6649                           fsr2l	equ	0xFD9
  6650                           status	equ	0xFD8
  6651                           
  6652 ;; *************** function _DelayRoutine *****************
  6653 ;; Defined at:
  6654 ;;		line 1634 in file "../src/usb_device.c"
  6655 ;; Parameters:    Size  Location     Type
  6656 ;;  DelayAmount     2    0[COMRAM] unsigned int 
  6657 ;; Auto vars:     Size  Location     Type
  6658 ;;		None
  6659 ;; Return value:  Size  Location     Type
  6660 ;;                  1    wreg      void 
  6661 ;; Registers used:
  6662 ;;		wreg, status,2, status,0, cstack
  6663 ;; Tracked objects:
  6664 ;;		On entry : 0/0
  6665 ;;		On exit  : 0/0
  6666 ;;		Unchanged: 0/0
  6667 ;; Data sizes:     COMRAM   BANK0   BANK1   BANK2   BANK3  BANK4h   BANK5   BANK6   BANK7
  6668 ;;      Params:         2       0       0       0       0       0       0       0       0
  6669 ;;      Locals:         0       0       0       0       0       0       0       0       0
  6670 ;;      Temps:          0       0       0       0       0       0       0       0       0
  6671 ;;      Totals:         2       0       0       0       0       0       0       0       0
  6672 ;;Total ram usage:        2 bytes
  6673 ;; Hardware stack levels used:    1
  6674 ;; Hardware stack levels required when called:    1
  6675 ;; This function calls:
  6676 ;;		_ClearWatchdog
  6677 ;; This function is called by:
  6678 ;;		_USBCBWakeFromSuspend
  6679 ;;		_USBDisableWithLongDelay
  6680 ;; This function uses a non-reentrant model
  6681 ;;
  6682                           
  6683                           	psect	text40
  6684  0000'                    __ptext40:
  6685                           	opt stack 0
  6686  0000'                    _DelayRoutine:
  6687                           	opt stack 25
  6688                           
  6689                           ;usb_device.c: 1636: while(DelayAmount)
  6690                           
  6691                           ;incstack = 0
  6692  0000' D005               	goto	l2387
  6693  0002'                    l2383:
  6694                           
  6695                           ;usb_device.c: 1637: {
  6696                           ;usb_device.c: 1638: ClearWatchdog();
  6697  0002' EC00' F000'        	call	_ClearWatchdog	;wreg free
  6698                           
  6699                           ;usb_device.c: 1639: DelayAmount--;
  6700  0006' 0600'              	decf	DelayRoutine@DelayAmount,f,c
  6701  0008' A0D8               	btfss	status,0,c
  6702  000A' 0601'              	decf	DelayRoutine@DelayAmount+1,f,c
  6703  000C'                    l2387:
  6704  000C' 5000'              	movf	DelayRoutine@DelayAmount,w,c
  6705  000E' 1001'              	iorwf	DelayRoutine@DelayAmount+1,w,c
  6706  0010' B4D8               	btfsc	status,2,c
  6707  0012' 0012               	return	
  6708  0014' D7F6               	goto	l2383
  6709  0016'                    __end_of_DelayRoutine:
  6710                           	opt stack 0
  6711                           stkptr	equ	0xFFC
  6712                           tblptru	equ	0xFF8
  6713                           tblptrh	equ	0xFF7
  6714                           tblptrl	equ	0xFF6
  6715                           tablat	equ	0xFF5
  6716                           prodh	equ	0xFF4
  6717                           prodl	equ	0xFF3
  6718                           intcon	equ	0xFF2
  6719                           postinc0	equ	0xFEE
  6720                           wreg	equ	0xFE8
  6721                           indf1	equ	0xFE7
  6722                           fsr1h	equ	0xFE2
  6723                           fsr1l	equ	0xFE1
  6724                           indf2	equ	0xFDF
  6725                           postinc2	equ	0xFDE
  6726                           postdec2	equ	0xFDD
  6727                           plusw2	equ	0xFDB
  6728                           fsr2h	equ	0xFDA
  6729                           fsr2l	equ	0xFD9
  6730                           status	equ	0xFD8
  6731                           
  6732 ;; *************** function _ClearWatchdog *****************
  6733 ;; Defined at:
  6734 ;;		line 1651 in file "../src/usb_device.c"
  6735 ;; Parameters:    Size  Location     Type
  6736 ;;		None
  6737 ;; Auto vars:     Size  Location     Type
  6738 ;;		None
  6739 ;; Return value:  Size  Location     Type
  6740 ;;                  1    wreg      void 
  6741 ;; Registers used:
  6742 ;;		None
  6743 ;; Tracked objects:
  6744 ;;		On entry : 0/0
  6745 ;;		On exit  : 0/0
  6746 ;;		Unchanged: 0/0
  6747 ;; Data sizes:     COMRAM   BANK0   BANK1   BANK2   BANK3  BANK4h   BANK5   BANK6   BANK7
  6748 ;;      Params:         0       0       0       0       0       0       0       0       0
  6749 ;;      Locals:         0       0       0       0       0       0       0       0       0
  6750 ;;      Temps:          0       0       0       0       0       0       0       0       0
  6751 ;;      Totals:         0       0       0       0       0       0       0       0       0
  6752 ;;Total ram usage:        0 bytes
  6753 ;; Hardware stack levels used:    1
  6754 ;; This function calls:
  6755 ;;		Nothing
  6756 ;; This function is called by:
  6757 ;;		_ProcessIO
  6758 ;;		_SignFlash
  6759 ;;		_USBProtocolResetHandler
  6760 ;;		_DelayRoutine
  6761 ;; This function uses a non-reentrant model
  6762 ;;
  6763                           
  6764                           	psect	text41
  6765  0000'                    __ptext41:
  6766                           	opt stack 0
  6767  0000'                    _ClearWatchdog:
  6768                           	opt stack 25
  6769                           
  6770                           ;incstack = 0
  6771  0000' 0004               	clrwdt		;# 
  6772  0002' 0012               	return		;funcret
  6773  0004'                    __end_of_ClearWatchdog:
  6774                           	opt stack 0
  6775                           stkptr	equ	0xFFC
  6776                           tblptru	equ	0xFF8
  6777                           tblptrh	equ	0xFF7
  6778                           tblptrl	equ	0xFF6
  6779                           tablat	equ	0xFF5
  6780                           prodh	equ	0xFF4
  6781                           prodl	equ	0xFF3
  6782                           intcon	equ	0xFF2
  6783                           postinc0	equ	0xFEE
  6784                           wreg	equ	0xFE8
  6785                           indf1	equ	0xFE7
  6786                           fsr1h	equ	0xFE2
  6787                           fsr1l	equ	0xFE1
  6788                           indf2	equ	0xFDF
  6789                           postinc2	equ	0xFDE
  6790                           postdec2	equ	0xFDD
  6791                           plusw2	equ	0xFDB
  6792                           fsr2h	equ	0xFDA
  6793                           fsr2l	equ	0xFD9
  6794                           status	equ	0xFD8
  6795                           
  6796 ;; *************** function _BlinkUSBStatus *****************
  6797 ;; Defined at:
  6798 ;;		line 488 in file "../src/main.c"
  6799 ;; Parameters:    Size  Location     Type
  6800 ;;		None
  6801 ;; Auto vars:     Size  Location     Type
  6802 ;;		None
  6803 ;; Return value:  Size  Location     Type
  6804 ;;                  1    wreg      void 
  6805 ;; Registers used:
  6806 ;;		wreg, status,2, status,0
  6807 ;; Tracked objects:
  6808 ;;		On entry : 0/0
  6809 ;;		On exit  : 0/0
  6810 ;;		Unchanged: 0/0
  6811 ;; Data sizes:     COMRAM   BANK0   BANK1   BANK2   BANK3  BANK4h   BANK5   BANK6   BANK7
  6812 ;;      Params:         0       0       0       0       0       0       0       0       0
  6813 ;;      Locals:         0       0       0       0       0       0       0       0       0
  6814 ;;      Temps:          1       0       0       0       0       0       0       0       0
  6815 ;;      Totals:         1       0       0       0       0       0       0       0       0
  6816 ;;Total ram usage:        1 bytes
  6817 ;; Hardware stack levels used:    1
  6818 ;; This function calls:
  6819 ;;		Nothing
  6820 ;; This function is called by:
  6821 ;;		_BootMain
  6822 ;; This function uses a non-reentrant model
  6823 ;;
  6824                           
  6825                           	psect	text42
  6826  0000'                    __ptext42:
  6827                           	opt stack 0
  6828  0000'                    _BlinkUSBStatus:
  6829                           	opt stack 29
  6830                           
  6831                           ;main.c: 490: static unsigned int led_count = 0;
  6832                           ;main.c: 492: led_count--;
  6833                           
  6834                           ;incstack = 0
  6835  0000' 061F'              	decf	BlinkUSBStatus@led_count,f,c
  6836  0002' A0D8               	btfss	status,0,c
  6837  0004' 0620'              	decf	BlinkUSBStatus@led_count+1,f,c
  6838                           
  6839                           ;main.c: 493: if(led_count == 0)
  6840  0006' 501F'              	movf	BlinkUSBStatus@led_count,w,c
  6841  0008' 1020'              	iorwf	BlinkUSBStatus@led_count+1,w,c
  6842  000A' A4D8               	btfss	status,2,c
  6843  000C' 0012               	return	
  6844                           
  6845                           ;main.c: 494: {
  6846                           ;main.c: 495: led_count = 0x4E00;
  6847  000E' 0E4E               	movlw	78
  6848  0010' 6E20'              	movwf	BlinkUSBStatus@led_count+1,c
  6849  0012' 0E00               	movlw	0
  6850  0014' 6E1F'              	movwf	BlinkUSBStatus@led_count,c
  6851                           
  6852                           ;main.c: 496: if(usb_device_state < 6)
  6853  0016' 0E06               	movlw	6
  6854  0018' 6043'              	cpfslt	_usb_device_state,c
  6855  001A' D003               	goto	l2329
  6856                           
  6857                           ;main.c: 497: {
  6858                           ;main.c: 499: LATAbits.LATA6 = 0;
  6859  001C' 9C89               	bcf	3977,6,c	;volatile
  6860                           
  6861                           ;main.c: 500: LATAbits.LATA7 = 1;
  6862  001E' 8E89               	bsf	3977,7,c	;volatile
  6863                           
  6864                           ;main.c: 501: }
  6865  0020' 0012               	return	
  6866  0022'                    l2329:
  6867                           
  6868                           ;main.c: 502: else
  6869                           ;main.c: 503: {
  6870                           ;main.c: 505: LATAbits.LATA6 = !LATAbits.LATA6;
  6871  0022' BC89               	btfsc	3977,6,c	;volatile
  6872  0024' D003               	goto	u1220
  6873  0026' 6A00'              	clrf	??_BlinkUSBStatus& (0+255),c
  6874  0028' 2A00'              	incf	??_BlinkUSBStatus& (0+255),f,c
  6875  002A' D001               	goto	u1238
  6876  002C'                    u1220:
  6877  002C' 6A00'              	clrf	??_BlinkUSBStatus& (0+255),c
  6878  002E'                    u1238:
  6879  002E' 3A00'              	swapf	??_BlinkUSBStatus,f,c
  6880  0030' 4600'              	rlncf	??_BlinkUSBStatus,f,c
  6881  0032' 4600'              	rlncf	??_BlinkUSBStatus,f,c
  6882  0034' 5089               	movf	3977,w,c	;volatile
  6883  0036' 1800'              	xorwf	??_BlinkUSBStatus,w,c
  6884  0038' 0BBF               	andlw	-65
  6885  003A' 1800'              	xorwf	??_BlinkUSBStatus,w,c
  6886  003C' 6E89               	movwf	3977,c	;volatile
  6887                           
  6888                           ;main.c: 506: LATAbits.LATA7 = !LATAbits.LATA7;
  6889  003E' BE89               	btfsc	3977,7,c	;volatile
  6890  0040' D003               	goto	u1240
  6891  0042' 6A00'              	clrf	??_BlinkUSBStatus& (0+255),c
  6892  0044' 2A00'              	incf	??_BlinkUSBStatus& (0+255),f,c
  6893  0046' D001               	goto	u1258
  6894  0048'                    u1240:
  6895  0048' 6A00'              	clrf	??_BlinkUSBStatus& (0+255),c
  6896  004A'                    u1258:
  6897  004A' 3200'              	rrcf	??_BlinkUSBStatus,f,c
  6898  004C' 3200'              	rrcf	??_BlinkUSBStatus,f,c
  6899  004E' 5089               	movf	3977,w,c	;volatile
  6900  0050' 1800'              	xorwf	??_BlinkUSBStatus,w,c
  6901  0052' 0B7F               	andlw	-129
  6902  0054' 1800'              	xorwf	??_BlinkUSBStatus,w,c
  6903  0056' 6E89               	movwf	3977,c	;volatile
  6904  0058' 0012               	return	
  6905  005A'                    __end_of_BlinkUSBStatus:
  6906                           	opt stack 0
  6907                           stkptr	equ	0xFFC
  6908                           tblptru	equ	0xFF8
  6909                           tblptrh	equ	0xFF7
  6910                           tblptrl	equ	0xFF6
  6911                           tablat	equ	0xFF5
  6912                           prodh	equ	0xFF4
  6913                           prodl	equ	0xFF3
  6914                           intcon	equ	0xFF2
  6915                           postinc0	equ	0xFEE
  6916                           wreg	equ	0xFE8
  6917                           indf1	equ	0xFE7
  6918                           fsr1h	equ	0xFE2
  6919                           fsr1l	equ	0xFE1
  6920                           indf2	equ	0xFDF
  6921                           postinc2	equ	0xFDE
  6922                           postdec2	equ	0xFDD
  6923                           plusw2	equ	0xFDB
  6924                           fsr2h	equ	0xFDA
  6925                           fsr2l	equ	0xFD9
  6926                           status	equ	0xFD8
  6927                           stkptr	equ	0xFFC
  6928                           tblptru	equ	0xFF8
  6929                           tblptrh	equ	0xFF7
  6930                           tblptrl	equ	0xFF6
  6931                           tablat	equ	0xFF5
  6932                           prodh	equ	0xFF4
  6933                           prodl	equ	0xFF3
  6934                           intcon	equ	0xFF2
  6935                           postinc0	equ	0xFEE
  6936                           wreg	equ	0xFE8
  6937                           indf1	equ	0xFE7
  6938                           fsr1h	equ	0xFE2
  6939                           fsr1l	equ	0xFE1
  6940                           indf2	equ	0xFDF
  6941                           postinc2	equ	0xFDE
  6942                           postdec2	equ	0xFDD
  6943                           plusw2	equ	0xFDB
  6944                           fsr2h	equ	0xFDA
  6945                           fsr2l	equ	0xFD9
  6946                           status	equ	0xFD8
  6947                           
  6948                           	psect	rparam
  6949  0000                     stkptr	equ	0xFFC
  6950                           tblptru	equ	0xFF8
  6951                           tblptrh	equ	0xFF7
  6952                           tblptrl	equ	0xFF6
  6953                           tablat	equ	0xFF5
  6954                           prodh	equ	0xFF4
  6955                           prodl	equ	0xFF3
  6956                           intcon	equ	0xFF2
  6957                           postinc0	equ	0xFEE
  6958                           wreg	equ	0xFE8
  6959                           indf1	equ	0xFE7
  6960                           fsr1h	equ	0xFE2
  6961                           fsr1l	equ	0xFE1
  6962                           indf2	equ	0xFDF
  6963                           postinc2	equ	0xFDE
  6964                           postdec2	equ	0xFDD
  6965                           plusw2	equ	0xFDB
  6966                           fsr2h	equ	0xFDA
  6967                           fsr2l	equ	0xFD9
  6968                           status	equ	0xFD8


Data Sizes:
    Strings     0
    Constant    188
    Data        0
    BSS         267
    Persistent  0
    Stack       0

Auto Spaces:
    Space          Size  Autos    Used
    COMRAM           95     13      86
    BANK0           160      0     130
    BANK1           256      0      64
    BANK2           256      0       0
    BANK3           256      0       0
    BANK4h           84      0       0
    BANK5           256      0       0
    BANK6           256      0       0
    BANK7           256      0       0

Pointer List with Targets:

    ep0BoEven.ADR	PTR unsigned char  size(2) Largest target is 0
		 -> hid_report_in(BIGRAMh[64]), hid_report_out(BIGRAMh[64]), EP0OutEvenBuf(ABS[8]), EP0OutOddBuf(BIGRAMh[8]), 
		 -> CtrlTrfData(BIGRAMh[8]), 

    ep0BoOdd.ADR	PTR unsigned char  size(2) Largest target is 0
		 -> hid_report_in(BIGRAMh[64]), hid_report_out(BIGRAMh[64]), EP0OutEvenBuf(ABS[8]), EP0OutOddBuf(BIGRAMh[8]), 
		 -> CtrlTrfData(BIGRAMh[8]), 

    HIDRxReport@buffer	PTR unsigned char  size(2) Largest target is 65
		 -> PacketFromPC(BANK0[65]), 

    HIDTxReport@buffer	PTR unsigned char  size(2) Largest target is 65
		 -> PacketToPC(BANK0[65]), 

    ep1Bi.ADR	PTR unsigned char  size(2) Largest target is 64
		 -> hid_report_in(BIGRAMh[64]), hid_report_out(BIGRAMh[64]), EP0OutEvenBuf(ABS[8]), EP0OutOddBuf(BIGRAMh[8]), 
		 -> CtrlTrfData(BIGRAMh[8]), 

    ep1Bo.ADR	PTR unsigned char  size(2) Largest target is 64
		 -> hid_report_in(BIGRAMh[64]), hid_report_out(BIGRAMh[64]), EP0OutEvenBuf(ABS[8]), EP0OutOddBuf(BIGRAMh[8]), 
		 -> CtrlTrfData(BIGRAMh[8]), 

    LoadBDTandSetUOWN@pBDTEntry	PTR volatile struct _BDT size(2) Largest target is 2047
		 -> NULL(NULL[0]), RAM(DATA[2047]), 

    TempBDT.ADR	PTR unsigned char  size(2) Largest target is 64
		 -> hid_report_in(BIGRAMh[64]), hid_report_out(BIGRAMh[64]), EP0OutEvenBuf(ABS[8]), EP0OutOddBuf(BIGRAMh[8]), 
		 -> CtrlTrfData(BIGRAMh[8]), 

    ep0Bi.ADR	PTR unsigned char  size(2) Largest target is 64
		 -> hid_report_in(BIGRAMh[64]), hid_report_out(BIGRAMh[64]), EP0OutEvenBuf(ABS[8]), EP0OutOddBuf(BIGRAMh[8]), 
		 -> CtrlTrfData(BIGRAMh[8]), 

    USBDeviceTasks@pBDTEntry.ADR	PTR unsigned char  size(2) Largest target is 64
		 -> hid_report_in(BIGRAMh[64]), hid_report_out(BIGRAMh[64]), EP0OutEvenBuf(ABS[8]), EP0OutOddBuf(BIGRAMh[8]), 
		 -> CtrlTrfData(BIGRAMh[8]), 

    USBDeviceTasks@pBDTEntry	PTR volatile struct _BDT size(2) Largest target is 5
		 -> NULL(NULL[0]), ep0BoOdd(ABS[4]), ep0BoEven(BIGRAMll[4]), 

    ep0Bi...ADR	PTR unsigned char  size(2) Largest target is 64
		 -> hid_report_in(BIGRAMh[64]), hid_report_out(BIGRAMh[64]), EP0OutEvenBuf(ABS[8]), EP0OutOddBuf(BIGRAMh[8]), 
		 -> CtrlTrfData(BIGRAMh[8]), 

    ep0BoOdd...ADR	PTR unsigned char  size(2) Largest target is 64
		 -> hid_report_in(BIGRAMh[64]), hid_report_out(BIGRAMh[64]), EP0OutEvenBuf(ABS[8]), EP0OutOddBuf(BIGRAMh[8]), 
		 -> CtrlTrfData(BIGRAMh[8]), 

    ep0BoEven...ADR	PTR unsigned char  size(2) Largest target is 64
		 -> hid_report_in(BIGRAMh[64]), hid_report_out(BIGRAMh[64]), EP0OutEvenBuf(ABS[8]), EP0OutOddBuf(BIGRAMh[8]), 
		 -> CtrlTrfData(BIGRAMh[8]), 

    TempBDT...ADR	PTR unsigned char  size(2) Largest target is 64
		 -> hid_report_in(BIGRAMh[64]), hid_report_out(BIGRAMh[64]), EP0OutEvenBuf(ABS[8]), EP0OutOddBuf(BIGRAMh[8]), 
		 -> CtrlTrfData(BIGRAMh[8]), 

    pDst.wRom	PTR const unsigned short  size(2) Largest target is 0

    pDst.bRom	PTR const unsigned char  size(2) Largest target is 0

    pDst.wRam	PTR unsigned int  size(2) Largest target is 0

    pDst.bRam	PTR unsigned char  size(2) Largest target is 0

    S1156_POINTER$wRom	PTR const unsigned short  size(2) Largest target is 0

    pSrc.wRom	PTR const unsigned short  size(2) Largest target is 0

    S1156_POINTER$bRom	PTR const unsigned char  size(2) Largest target is 0

    pSrc.bRom	PTR const unsigned char  size(2) Largest target is 0

    S1156_POINTER$wRam	PTR unsigned int  size(2) Largest target is 0

    pSrc.wRam	PTR unsigned int  size(2) Largest target is 0

    S1156_POINTER$bRam	PTR unsigned char  size(2) Largest target is 0

    pSrc.bRam	PTR unsigned char  size(2) Largest target is 0

    USB_SD_Ptr	const PTR const unsigned char [3] size(2) Largest target is 52
		 -> sd002(CODE[38]), sd001(CODE[52]), sd000(CODE[4]), 

    WriteFlashBlock@pROM	PTR const unsigned char  size(3) Largest target is 32767
		 -> ROM(CODE[32767]), 

    SignFlash@pROM	PTR const unsigned char  size(3) Largest target is 32767
		 -> ROM(CODE[32767]), 

    ProcessIO@pROM	PTR const unsigned char  size(3) Largest target is 32767
		 -> ROM(CODE[32767]), 

    ep1Bi...ADR	PTR unsigned char  size(2) Largest target is 64
		 -> hid_report_in(BIGRAMh[64]), hid_report_out(BIGRAMh[64]), EP0OutEvenBuf(ABS[8]), EP0OutOddBuf(BIGRAMh[8]), 
		 -> CtrlTrfData(BIGRAMh[8]), 

    S130$ADR	PTR unsigned char  size(2) Largest target is 64
		 -> hid_report_in(BIGRAMh[64]), hid_report_out(BIGRAMh[64]), EP0OutEvenBuf(ABS[8]), EP0OutOddBuf(BIGRAMh[8]), 
		 -> CtrlTrfData(BIGRAMh[8]), 

    ep1Bo...ADR	PTR unsigned char  size(2) Largest target is 64
		 -> hid_report_in(BIGRAMh[64]), hid_report_out(BIGRAMh[64]), EP0OutEvenBuf(ABS[8]), EP0OutOddBuf(BIGRAMh[8]), 
		 -> CtrlTrfData(BIGRAMh[8]), 


Critical Paths under _main in COMRAM

    _BootMain->_ProcessIO
    _ProcessIO->_WriteFlashBlock
    _WriteFlashBlock->_UnlockAndActivate
    _WriteEEPROM->_UnlockAndActivate
    _WriteConfigBits->_UnlockAndActivate
    _USBCBWakeFromSuspend->_DelayRoutine
    _USBCtrlEPServiceComplete->_LoadBDTandSetUOWN
    _USBCheckStdRequest->_USBStdFeatureReqHandler
    _USBCheckStdRequest->_USBStdGetStatusHandler
    _USBStdSetCfgHandler->_USBCBInitEP
    _SignFlash->_UnlockAndActivate
    _USBProtocolResetHandler->_LoadBDTandSetUOWN
    _USBProtocolResetHandler->_USBCBInitEP
    _USBDisableWithLongDelay->_DelayRoutine

Critical Paths under _main in BANK0

    None.

Critical Paths under _main in BANK1

    None.

Critical Paths under _main in BANK2

    None.

Critical Paths under _main in BANK3

    None.

Critical Paths under _main in BANK4h

    None.

Critical Paths under _main in BANK5

    None.

Critical Paths under _main in BANK6

    None.

Critical Paths under _main in BANK7

    None.

Call Graph Tables:

 ---------------------------------------------------------------------------------
 (Depth) Function   	        Calls       Base Space   Used Autos Params    Refs
 ---------------------------------------------------------------------------------
 (0) _main                                                 0     0      0    2761
                           _BootMain
                   _DoSignatureCheck
 ---------------------------------------------------------------------------------
 (1) _DoSignatureCheck                                     0     0      0       0
 ---------------------------------------------------------------------------------
 (1) _BootMain                                             0     0      0    2761
                     _BlinkUSBStatus
                   _InitializeSystem
                          _ProcessIO
                     _USBDeviceTasks
 ---------------------------------------------------------------------------------
 (2) _ProcessIO                                            4     4      0    1781
                                              9 COMRAM     4     4      0
                      _ClearWatchdog
                        _HIDRxReport
                        _HIDTxReport
                 _ResetDeviceCleanly
                          _SignFlash
                     _USBDeviceTasks
                  _UnlockAndActivate
                    _WriteConfigBits
                        _WriteEEPROM
                    _WriteFlashBlock
 ---------------------------------------------------------------------------------
 (3) _WriteFlashBlock                                      8     8      0      22
                                              1 COMRAM     8     8      0
                  _UnlockAndActivate
 ---------------------------------------------------------------------------------
 (3) _WriteEEPROM                                          4     4      0      22
                                              1 COMRAM     4     4      0
                  _UnlockAndActivate
 ---------------------------------------------------------------------------------
 (3) _WriteConfigBits                                      4     4      0      22
                                              1 COMRAM     4     4      0
                  _UnlockAndActivate
 ---------------------------------------------------------------------------------
 (2) _USBDeviceTasks                                       2     2      0     534
                                              4 COMRAM     2     2      0
                  _USBCheckBusStatus
                _USBCtrlTrfInHandler
             _USBCtrlTrfSetupHandler
            _USBProtocolResetHandler
                         _USBSuspend
                 _USBWakeFromSuspend
 ---------------------------------------------------------------------------------
 (3) _USBWakeFromSuspend                                   0     0      0     201
               _USBCBWakeFromSuspend
 ---------------------------------------------------------------------------------
 (4) _USBCBWakeFromSuspend                                 0     0      0     201
                       _DelayRoutine
 ---------------------------------------------------------------------------------
 (3) _USBSuspend                                           0     0      0       0
                       _USBCBSuspend
 ---------------------------------------------------------------------------------
 (4) _USBCBSuspend                                         0     0      0       0
 ---------------------------------------------------------------------------------
 (3) _USBCtrlTrfSetupHandler                               0     0      0      44
                 _USBCBCheckOtherReq
                 _USBCheckStdRequest
           _USBCtrlEPServiceComplete
 ---------------------------------------------------------------------------------
 (4) _USBCtrlEPServiceComplete                             0     0      0      22
                  _LoadBDTandSetUOWN
                _USBCtrlTrfTxService
 ---------------------------------------------------------------------------------
 (4) _USBCheckStdRequest                                   0     0      0      22
            _USBStdFeatureReqHandler
                _USBStdGetDscHandler
             _USBStdGetStatusHandler
                _USBStdSetCfgHandler
 ---------------------------------------------------------------------------------
 (5) _USBStdSetCfgHandler                                  0     0      0      22
                        _USBCBInitEP
 ---------------------------------------------------------------------------------
 (5) _USBStdGetStatusHandler                               4     4      0       0
                                              0 COMRAM     4     4      0
 ---------------------------------------------------------------------------------
 (5) _USBStdGetDscHandler                                  1     1      0       0
                                              0 COMRAM     1     1      0
 ---------------------------------------------------------------------------------
 (5) _USBStdFeatureReqHandler                              4     4      0       0
                                              0 COMRAM     4     4      0
 ---------------------------------------------------------------------------------
 (4) _USBCBCheckOtherReq                                   0     0      0       0
                 _USBCheckHIDRequest
 ---------------------------------------------------------------------------------
 (5) _USBCheckHIDRequest                                   0     0      0       0
                _HIDGetReportHandler
                _HIDSetReportHandler
 ---------------------------------------------------------------------------------
 (6) _HIDSetReportHandler                                  0     0      0       0
 ---------------------------------------------------------------------------------
 (6) _HIDGetReportHandler                                  0     0      0       0
 ---------------------------------------------------------------------------------
 (3) _USBCtrlTrfInHandler                                  0     0      0       0
                _USBCtrlTrfTxService
 ---------------------------------------------------------------------------------
 (5) _USBCtrlTrfTxService                                  0     0      0       0
 ---------------------------------------------------------------------------------
 (3) _SignFlash                                            4     4      0      22
                                              1 COMRAM     4     4      0
                      _ClearWatchdog
                  _UnlockAndActivate
 ---------------------------------------------------------------------------------
 (4) _UnlockAndActivate                                    1     1      0      22
                                              0 COMRAM     1     1      0
 ---------------------------------------------------------------------------------
 (3) _ResetDeviceCleanly                                   0     0      0     201
            _USBDisableWithLongDelay
 ---------------------------------------------------------------------------------
 (3) _HIDTxReport                                          5     2      3     691
                                              0 COMRAM     5     2      3
 ---------------------------------------------------------------------------------
 (3) _HIDRxReport                                          4     1      3     245
                                              0 COMRAM     4     1      3
 ---------------------------------------------------------------------------------
 (2) _InitializeSystem                                     0     0      0     446
                      _USBDeviceInit
                           _UserInit
 ---------------------------------------------------------------------------------
 (3) _USBDeviceInit                                        0     0      0     446
                  _USBCheckBusStatus
            _USBDisableWithLongDelay
 ---------------------------------------------------------------------------------
 (3) _USBCheckBusStatus                                    0     0      0     245
                      _USBSoftAttach
 ---------------------------------------------------------------------------------
 (4) _USBSoftAttach                                        0     0      0     245
            _USBDisableWithLongDelay
            _USBProtocolResetHandler
 ---------------------------------------------------------------------------------
 (3) _USBProtocolResetHandler                              0     0      0      44
                      _ClearWatchdog
                  _LoadBDTandSetUOWN
                        _USBCBInitEP
 ---------------------------------------------------------------------------------
 (4) _USBCBInitEP                                          1     1      0      22
                                              0 COMRAM     1     1      0
                          _HIDInitEP
                           _UserInit
 ---------------------------------------------------------------------------------
 (5) _UserInit                                             0     0      0       0
 ---------------------------------------------------------------------------------
 (5) _HIDInitEP                                            0     0      0       0
 ---------------------------------------------------------------------------------
 (4) _LoadBDTandSetUOWN                                    1     1      0      22
                                              0 COMRAM     1     1      0
 ---------------------------------------------------------------------------------
 (5) _USBDisableWithLongDelay                              0     0      0     201
                       _DelayRoutine
 ---------------------------------------------------------------------------------
 (5) _DelayRoutine                                         2     0      2     201
                                              0 COMRAM     2     0      2
                      _ClearWatchdog
 ---------------------------------------------------------------------------------
 (6) _ClearWatchdog                                        0     0      0       0
 ---------------------------------------------------------------------------------
 (2) _BlinkUSBStatus                                       1     1      0       0
                                              0 COMRAM     1     1      0
 ---------------------------------------------------------------------------------
 Estimated maximum stack depth 6
 ---------------------------------------------------------------------------------

 Call Graph Graphs:

 _main (ROOT)
   _BootMain
     _BlinkUSBStatus
     _InitializeSystem
       _USBDeviceInit
         _USBCheckBusStatus
           _USBSoftAttach
             _USBDisableWithLongDelay
               _DelayRoutine
                 _ClearWatchdog
             _USBProtocolResetHandler
               _ClearWatchdog
               _LoadBDTandSetUOWN
               _USBCBInitEP
                 _HIDInitEP
                 _UserInit
         _USBDisableWithLongDelay
           _DelayRoutine
             _ClearWatchdog
       _UserInit
     _ProcessIO
       _ClearWatchdog
       _HIDRxReport
       _HIDTxReport
       _ResetDeviceCleanly
         _USBDisableWithLongDelay
           _DelayRoutine
             _ClearWatchdog
       _SignFlash
         _ClearWatchdog
         _UnlockAndActivate
       _USBDeviceTasks
         _USBCheckBusStatus
           _USBSoftAttach
             _USBDisableWithLongDelay
               _DelayRoutine
                 _ClearWatchdog
             _USBProtocolResetHandler
               _ClearWatchdog
               _LoadBDTandSetUOWN
               _USBCBInitEP
                 _HIDInitEP
                 _UserInit
         _USBCtrlTrfInHandler
           _USBCtrlTrfTxService
         _USBCtrlTrfSetupHandler
           _USBCBCheckOtherReq
             _USBCheckHIDRequest
               _HIDGetReportHandler
               _HIDSetReportHandler
           _USBCheckStdRequest
             _USBStdFeatureReqHandler
             _USBStdGetDscHandler
             _USBStdGetStatusHandler
             _USBStdSetCfgHandler
               _USBCBInitEP
                 _HIDInitEP
                 _UserInit
           _USBCtrlEPServiceComplete
             _LoadBDTandSetUOWN
             _USBCtrlTrfTxService
         _USBProtocolResetHandler
           _ClearWatchdog
           _LoadBDTandSetUOWN
           _USBCBInitEP
             _HIDInitEP
             _UserInit
         _USBSuspend
           _USBCBSuspend
         _USBWakeFromSuspend
           _USBCBWakeFromSuspend
             _DelayRoutine
               _ClearWatchdog
       _UnlockAndActivate
       _WriteConfigBits
         _UnlockAndActivate
       _WriteEEPROM
         _UnlockAndActivate
       _WriteFlashBlock
         _UnlockAndActivate
     _USBDeviceTasks
       _USBCheckBusStatus
         _USBSoftAttach
           _USBDisableWithLongDelay
             _DelayRoutine
               _ClearWatchdog
           _USBProtocolResetHandler
             _ClearWatchdog
             _LoadBDTandSetUOWN
             _USBCBInitEP
               _HIDInitEP
               _UserInit
       _USBCtrlTrfInHandler
         _USBCtrlTrfTxService
       _USBCtrlTrfSetupHandler
         _USBCBCheckOtherReq
           _USBCheckHIDRequest
             _HIDGetReportHandler
             _HIDSetReportHandler
         _USBCheckStdRequest
           _USBStdFeatureReqHandler
           _USBStdGetDscHandler
           _USBStdGetStatusHandler
           _USBStdSetCfgHandler
             _USBCBInitEP
               _HIDInitEP
               _UserInit
         _USBCtrlEPServiceComplete
           _LoadBDTandSetUOWN
           _USBCtrlTrfTxService
       _USBProtocolResetHandler
         _ClearWatchdog
         _LoadBDTandSetUOWN
         _USBCBInitEP
           _HIDInitEP
           _UserInit
       _USBSuspend
         _USBCBSuspend
       _USBWakeFromSuspend
         _USBCBWakeFromSuspend
           _DelayRoutine
             _ClearWatchdog
   _DoSignatureCheck

 Address spaces:
Name               Size   Autos  Total    Cost      Usage
BIGRAMll           3FF      0       0      22        0.0%
BIGRAMh            354      0       0      21        0.0%
EEDATA             100      0       0       0        0.0%
BITBANK7           100      0       0      19        0.0%
BANK7              100      0       0      20        0.0%
BITBANK6           100      0       0      17        0.0%
BANK6              100      0       0      18        0.0%
BITBANK5           100      0       0      15        0.0%
BANK5              100      0       0      16        0.0%
BITBANK3           100      0       0      10        0.0%
BANK3              100      0       0      11        0.0%
BITBANK2           100      0       0       8        0.0%
BANK2              100      0       0       9        0.0%
BITBANK1           100      0       0       6        0.0%
BANK1              100      0      40       7       25.0%
BITBANK0            A0      0       0       4        0.0%
BANK0               A0      0      82       5       81.2%
BITCOMRAM           5F      0       0       0        0.0%
COMRAM              5F      D      56       1       90.5%
BANK4h              54      0       0      14        0.0%
BITBANK4h           54      0       0      13        0.0%
BITSFR_1             0      0       0      40        0.0%
SFR_1                0      0       0      40        0.0%
BITSFR               0      0       0      40        0.0%
SFR                  0      0       0      40        0.0%
STACK                0      0       0       2        0.0%
NULL                 0      0       0       0        0.0%
ABS                  0      0     118      12        0.0%
DATA                 0      0     118       3        0.0%
CODE                 0      0       0       0        0.0%


Microchip Technology PIC18 Macro Assembler V1.36 build -262312587 
Symbol Table                                                                                   Sat Feb 27 20:29:02 2016

              __end_of_ClearWatchdog 000004                 __size_of_WriteEEPROM 000000  
    __end_of_USBDisableWithLongDelay 000016                         _usb_alt_intf 000048  
                         _USB_SD_Ptr 000001                         ?_HIDRxReport 000000  
                 ?_LoadBDTandSetUOWN 000000                       _BlinkUSBStatus 000000  
                       ?_HIDTxReport 000000                                   l90 000050  
                                 l94 000144                        _USBDeviceInit 000000  
                 _USBCheckHIDRequest 000000                         __CFG_CP0$OFF 000000  
                       __CFG_CP1$OFF 000000                         __CFG_CP2$OFF 000000  
                       __CFG_CP3$OFF 000000                                  l151 00009E  
                                l152 000094                                  l153 00008E  
                                l155 00009A                                  l501 00000C  
                                l182 000020          __end_of_USBStdGetDscHandler 000098  
                                l502 00000A                                  l254 000036  
                                l263 00000C                                  l247 000012  
                                l248 000018                                  l281 000000  
                                l257 00000C                                  l522 000038  
                                l514 00002A                                  l179 000010  
                                l611 000020                                  l508 000038  
                                l614 0000A0                                  l480 000034  
                                l707 00000A                                  l547 000032  
                                l491 0000D6                                  l582 000094  
                                l592 000042                                  l682 000060  
                                l684 000040                         __CFG_CPB$OFF 000000  
                       __CFG_CPD$OFF 000000                                  _UIE 000F64  
                                _UIR 000F65                  ??_LoadBDTandSetUOWN 000000  
                         _USBSuspend 000000                 USBStdSetCfgHandler@i 000031  
                                prod 000FF3                                  wreg 000FE8  
                     _USBDeviceTasks 000000                  ?_USBCheckHIDRequest 000000  
             ??_USBCBWakeFromSuspend 000002                         __CFG_LVP$OFF 000000  
                               l3001 000050                                 l3021 000066  
                               l2401 000020                                 l3041 0000B0  
                               l3201 0001FA                                 l3121 000030  
                               l3051 000010                                 l3045 0000E0  
                               l3221 0002A4                                 l3205 00021C  
                               l3141 000134                                 l3125 000038  
                               l3071 00007C                                 l3063 00004A  
                               l3055 000018                                 l2511 00001E  
                               l3311 00046E                                 l3231 0002C6  
                               l3223 0002AE                                 l2329 000022  
                               l2433 00002E                                 l2601 00001C  
                               l3313 000472                                 l3241 0002F2  
                               l3225 0002B4                                 l3209 000244  
                               l3145 00014A                                 l2515 000028  
                               l2451 000076                                 l2427 00001A  
                               l2443 000050                                 l2603 000022  
                               l3251 000342                                 l3171 00019A  
                               l3147 000152                                 l3315 000478  
                               l2525 000042                                 l2533 000076  
                               l2461 000090                                 l2453 00007C  
                               l2445 000062                                 l2613 000078  
                               l2701 00003E                                 l2383 000002  
                               l3087 0000D8                                 l2535 00007E  
                               l2543 0000B2                                 l2615 00008E  
                               l2711 000060                                 l2703 000044  
                               l3263 0003BA                                 l3255 000392  
                               l2473 0000AE                                 l2465 00009A  
                               l2449 000070                                 l2633 000022  
                               l3257 000394                                 l3169 000196  
                               l2387 00000C                                 l2651 0000B2  
                               l2563 000036                                 l2555 00001A  
                               l2571 000080                                 l3267 0003C4  
                               l3195 0001E6                                 l3187 0001CE  
                               l2549 00000A                                 l2717 00007A  
                               l2733 000026                                 l2487 00003E  
                               l2479 0000B8                                 l2743 00004E  
                               l2593 00000E                                 l2825 00001A  
                               l2691 000024                                 l2763 00008E  
                               l2931 00002C                                 l2845 000016  
                               l2589 000058                                 l2685 00000E  
                               l2757 00007A                                 l2847 00001A  
                               l2687 000018                                 l2951 000072  
                               l2943 000050                                 l2873 00001C  
                               l2785 000016                                 l2689 00001E  
                               l2769 00009E                                 l2929 000028  
                               l2859 000042                                 l2699 000038  
                               l2963 0000C0                                 l2955 00007A  
                               l2971 0000D8                                 l2877 000042  
                               l2965 0000C6                                 l2895 000010  
                               l2991 000006                                 l2899 000036  
                               l2979 000014                                 l2987 00005A  
              ??_HIDSetReportHandler 000000                                 u1220 00002C  
                               u1240 000048                                 u1500 000076  
                               u1238 00002E                                 u2230 000098  
                               u1270 000030                                 u1440 00006A  
                               u1258 00004A                                 u2235 00008E  
                               u1507 00006C                                 u1460 0000A6  
                               u1550 00004A                                 u1447 000060  
                               u1640 000064                                 u1467 00009C  
                               u1558 00004C                                 u1648 000066  
                               u1930 000062                                 u1970 000054  
                               u1948 000064                                 u1988 000056  
              ??_USBCtrlTrfTxService 000000                                 _UCFG 000F62  
                               _UEP0 000F6A                                 _UEP1 000F6B  
                               _UEP2 000F6C                                 _UEP3 000F6D  
                               _UEP4 000F6E                                 _UEP5 000F6F  
                               _UEP6 000F70                                 _UEP7 000F71  
                               _UEIE 000F66                                 _UCON 000F60  
                 __size_of_HIDInitEP 000000                                 _pDst 000019  
                               _pSrc 00001C                                 _main 000000  
             __size_of_USBSoftAttach 000000                                 fsr1h 000FE2  
                               fsr2h 000FDA                                 indf1 000FE7  
                               fsr1l 000FE1                                 indf2 000FDF  
                               fsr2l 000FD9                        __CFG_BORV$190 000000  
                               prodh 000FF4                                 prodl 000FF3  
          __end_of_LoadBDTandSetUOWN 00004C                                 start 000000* 
            BlinkUSBStatus@led_count 00001F                        __CFG_IESO$OFF 000000  
                 _USBCBCheckOtherReq 000000                 ??_USBCheckHIDRequest 000000  
         __end_of_USBCheckStdRequest 0000BC                        __CFG_MCLRE$ON 000000  
                       ___param_bank 000010            ??_USBStdFeatureReqHandler 000000  
             __end_of_BlinkUSBStatus 00005A             ??_USBStdGetStatusHandler 000000  
                     ?_USBDeviceInit 000000                  ?_USBCBCheckOtherReq 000000  
                              _CFG01 00003B                                ?_main 000000  
                              _EEADR 000FA9    __size_of_USBCtrlEPServiceComplete 000000  
         LoadBDTandSetUOWN@pBDTEntry 000021               __end_of_USBDeviceTasks 0000DC  
          ?_USBCtrlEPServiceComplete 000000                                _UADDR 000F63  
                              _USTAT 000F61            __size_of_DoSignatureCheck 000000  
                  HIDRxReport@buffer 000000                        __CFG_WRT0$OFF 000000  
                      __CFG_WRT1$OFF 000000                        __CFG_WRT2$OFF 000000  
                      __CFG_WRT3$OFF 000000                       __CFG_EBTR0$OFF 000000  
                     __CFG_FCMEN$OFF 000000                       __CFG_EBTR1$OFF 000000  
                     __CFG_EBTR2$OFF 000000                       __CFG_EBTR3$OFF 000000  
                              _ep0Bi 000408                                _ep1Bi 000410  
                              _ep1Bo 00040C                                _sd000 0000B9  
                              _sd001 000007                                _sd002 000064  
                      __CFG_WRTB$OFF 000000                        __CFG_WRTC$OFF 000000  
                      __CFG_WRTD$OFF 000000                       __CFG_EBTRB$OFF 000000  
               ??_USBCBCheckOtherReq 000000                     _usb_device_state 000043  
                       HIDTxReport@i 000004                                tablat 000FF5  
                  USBSuspend@UIESave 000032                                plusw2 000FDB  
                   _ConfigsLockValue 00003A                                status 000FD8  
                     __CFG_T3CMX$RC0 000000                       __CFG_ICPRT$OFF 000000  
         __size_of_UnlockAndActivate 000000                    _BufferedDataIndex 000039  
                         _PacketToPC 000041         __size_of_USBStdSetCfgHandler 000000  
                   __end_of_BootMain 00001C                      __initialization 000000  
                    ?_BlinkUSBStatus 000000                         __end_of_main 000020  
                         SignFlash@i 00002E                    __end_of_HIDInitEP 000038  
                      _USBSoftAttach 000000                               ??_main 00000D  
          __size_of_InitializeSystem 000000                        __activetblptr 000002  
                    ?_USBDeviceTasks 000000                          ?_USBSuspend 000000  
                     __CFG_SDOMX$RB3 000000                      __CFG_CCP2MX$RC1 000000  
                   __end_of_UserInit 000016                        SignFlash@pROM 000013  
                             _ACTCON 000FB5                               _EEDATA 000FA8  
                             _EECON1 000FA6                               _EECON2 000FA7  
   __size_of_USBDisableWithLongDelay 000000                               _INTCON 000FF2  
                             _TABLAT 000FF5                __size_of_DelayRoutine 000000  
                             _OSCCON 000FD3                  WriteFlashBlock@pROM 000016  
                             _STKPTR 000FFC           __size_of_LoadBDTandSetUOWN 000000  
                     __CFG_XINST$OFF 000000                      USBDeviceTasks@i 000030  
                    ??_USBDeviceInit 000002                       __CFG_STVREN$ON 000000  
                       ?_USBCBInitEP 000000                   __size_of_SignFlash 000000  
                             _wCount 00002B      __size_of_USBStdGetStatusHandler 000000  
                             clear_0 000006                               clear_1 000012  
                             clear_2 00001E                       ?_USBSoftAttach 000000  
       __size_of_HIDGetReportHandler 000000                 __size_of_HIDRxReport 000000  
                         ProcessIO@i 00002D                 __size_of_HIDTxReport 000000  
WriteFlashBlock@BytesTakenFromBuffer 000035                   __size_of_ProcessIO 000000  
                       _DelayRoutine 000000                         __mediumconst 000000* 
                             tblptrh 000FF7                               tblptrl 000FF6  
                             tblptru 000FF8                 _DeviceIsSoftDetached 00003B  
        __size_of_ResetDeviceCleanly 000000                         WriteEEPROM@i 000034  
                        _CtrlTrfData 000424                 __CFG_LS48MHZ$SYS48X8 000000  
                         __accesstop 000000*             __end_of__initialization 000024  
                    __CFG_PBADEN$OFF 000000                        __end_of_CFG01 000064  
                      ___rparam_used 000001                          _bTRNIFCount 00003E  
         UnlockAndActivate@UnlockKey 000000                  __size_of_USBSuspend 000000  
                     __pcstackCOMRAM 000000                     __CFG_nPWRTEN$OFF 000000  
                      __end_of_sd000 0000BD                        __end_of_sd001 00003B  
                      __end_of_sd002 00008A                      _active_protocol 000045  
        __end_of_USBCtrlTrfInHandler 00004E                      __CFG_PCLKEN$OFF 000000  
   USBCtrlTrfTxService@bytes_to_send 00002F             __size_of_WriteFlashBlock 000000  
                     __CFG_nLPBOR$ON 000000                     _DoSignatureCheck 000000  
           __size_of_WriteConfigBits 000000             ??_USBCtrlTrfSetupHandler 000004  
                          ?_BootMain 000000               _USBStdGetStatusHandler 000000  
                  __end_of_SignFlash 0000F0                           __pbssBANK0 000000  
                         __pbssBANK1 000000                        ??_WriteEEPROM 000001  
        __size_of_USBWakeFromSuspend 000000                         _EP0OutOddBuf 00041C  
                  __end_of_ProcessIO 0004B4     __end_of_USBCtrlEPServiceComplete 0000C2  
           ?_USBProtocolResetHandler 000000                    __CFG_PLLSEL$PLL3X 000000  
            DelayRoutine@DelayAmount 000000                      ??_USBSoftAttach 000002  
                          ?_UserInit 000000                           _device_dsc 0000A7  
            USBDeviceTasks@pBDTEntry 000023                     _InitializeSystem 000000  
                 _USBCheckStdRequest 000000                      __CFG_WDTEN$SWON 000000  
        __end_of_HIDSetReportHandler 000002          __end_of_USBCtrlTrfTxService 0000BA  
                _USBStdSetCfgHandler 000000                              _OSCCON2 000FD2  
                            _TBLPTRH 000FF7                              _TBLPTRL 000FF6  
                            _TBLPTRU 000FF8                              _OSCTUNE 000F9B  
                         ??_BootMain 00000D                  ?_USBCheckStdRequest 000000  
       __size_of_USBStdGetDscHandler 000000               __size_of_ClearWatchdog 000000  
            _USBDisableWithLongDelay 000000                              _UIEbits 000F64  
      __size_of_USBCBWakeFromSuspend 000000                              _UIRbits 000F65  
    _FlashSignatureWord_absconstaddr 001006                       HIDRxReport@len 000002  
                   ??_BlinkUSBStatus 000000                              _Counter 000025  
                            __Hparam 000000                              _TempBDT 00000C  
               ?_USBStdSetCfgHandler 000000          __size_of_USBCheckHIDRequest 000000  
                            __Lparam 000000                    __end_of_hid_rpt01 0000A7  
               ??_USBCheckStdRequest 000004        USBCBInitEP@ConfigurationIndex 000000  
                   ??_USBDeviceTasks 000004                  __end_of_WriteEEPROM 00005C  
                         ??_UserInit 000000                         __psmallconst 000000  
                            __pcinit 000000                              __ramtop 000000* 
               __size_of_USBCBInitEP 000000                              __ptext0 000000  
                            __ptext1 000000                              __ptext3 000000  
                            __ptext4 000000                              __ptext5 000000  
                            __ptext6 000000                              __ptext7 000000  
                            __ptext8 000000                              __ptext9 000000  
                   __p_BootMain_text 000000                         ??_USBSuspend 000000  
                          _HIDInitEP 000000                       _ctrl_trf_state 000040  
                      ?_USBCBSuspend 000000      __size_of_USBCtrlTrfSetupHandler 000000  
                  ??_WriteFlashBlock 000001                 end_of_initialization 000024  
        __size_of_USBCBCheckOtherReq 000000                    ??_WriteConfigBits 000001  
                 __end_of_USB_SD_Ptr 000007                  _HIDGetReportHandler 000000  
    __end_of_USBProtocolResetHandler 000064                        __Lmediumconst 000000* 
                     HIDTxReport@len 000002             ?_USBStdFeatureReqHandler 000000  
              ??_USBStdSetCfgHandler 000001                   __end_of_USBSuspend 00001C  
                            postdec2 000FDD                        _ClearWatchdog 000000  
                            postinc0 000FEE                              postinc2 000FDE  
           _USBCtrlEPServiceComplete 000000                 ?_HIDGetReportHandler 000000  
                          _PORTCbits 000F82                           ?_HIDInitEP 000000  
          ??_USBDisableWithLongDelay 000002                            _TRISAbits 000F92  
                          _TRISCbits 000F94                       ??_USBCBSuspend 000000  
                       _PacketFromPC 000000      LoadBDTandSetUOWN@BDTIndexToLoad 000000  
    WriteFlashBlock@CorrectionFactor 000036                            _USTATSave 00003D  
             _ctrl_trf_session_owner 00003F                            _USTATbits 000F61  
                        _WriteEEPROM 000000             __end_of_DoSignatureCheck 000038  
                   _short_pkt_status 000042                       ?_ClearWatchdog 000000  
             _USBCtrlTrfSetupHandler 000000                        ??_HIDRxReport 000003  
                   _ErasePageTracker 000027                        ??_HIDTxReport 000003  
              __end_of_USBDeviceInit 000010                ??_HIDGetReportHandler 000000  
                          _BootState 000038           __end_of_ResetDeviceCleanly 00000C  
                start_initialization 000000              ?_USBStdGetStatusHandler 000000  
         __end_of_FlashSignatureWord 000002      __end_of_USBStdFeatureReqHandler 0000CC  
                  __size_of_BootMain 000000                   _uint_delay_counter 000029  
           __end_of_InitializeSystem 000026                            _SignFlash 000000  
                          _ep0BoEven 000400                  _USBStdGetDscHandler 000000  
                          _ProcessIO 000000                    __size_of_UserInit 000000  
                __end_of_HIDRxReport 000082       __end_of_USBStdGetStatusHandler 0000A4  
   __size_of_USBProtocolResetHandler 000000                  __end_of_HIDTxReport 000074  
                  _USBCheckBusStatus 000000                          ??_HIDInitEP 000000  
                        __pbssCOMRAM 000000         __size_of_USBCtrlTrfInHandler 000000  
                   _BootMain_absaddr 000030                   ?_USBCheckBusStatus 000000  
                  HIDTxReport@buffer 000000                 ?_USBStdGetDscHandler 000000  
         __end_of_USBWakeFromSuspend 000012                  ??_USBCheckBusStatus 000002  
                      _EP0OutEvenBuf 000414                           ?_SignFlash 000000  
                    ??_ClearWatchdog 000000                 __end_of_USBCBSuspend 00000C  
       __end_of_USBCBWakeFromSuspend 00000E                           ?_ProcessIO 000000  
                          _hid_rpt01 00008A                __end_of_USBSoftAttach 000024  
                          _idle_rate 000046                      _WriteFlashBlock 000000  
          __end_of_USBCheckBusStatus 000010                      _WriteConfigBits 000000  
                        __smallconst 000000*               ??_USBStdGetDscHandler 000000  
       __size_of_HIDSetReportHandler 000000         __size_of_USBCtrlTrfTxService 000000  
                           _LATAbits 000F89           __end_of_USBCheckHIDRequest 0000E0  
         ??_USBCtrlEPServiceComplete 000001                             _PIE3bits 000FA3  
                           _PIR3bits 000FA4                        ProcessIO@pROM 000010  
                           _RCONbits 000FD0                     __CFG_WDTPS$32768 000000  
                      ??_USBCBInitEP 000000          __size_of_USBCheckStdRequest 000000  
                        _HIDRxReport 000000                             _UCONbits 000F60  
                        _HIDTxReport 000000     __size_of_USBStdFeatureReqHandler 000000  
                      ?_DelayRoutine 000000                    __CFG_CFGPLLEN$OFF 000000  
         __end_of_USBCBCheckOtherReq 000006                             _BootMain 000000  
        __end_of_USBStdSetCfgHandler 00005E                       _hid_report_out 00042C  
                 __end_of_device_dsc 0000B9                          ??_SignFlash 000001  
                         _EECON1bits 000FA6                         ?_WriteEEPROM 000000  
            ?_USBCtrlTrfSetupHandler 000000                             __Hrparam 000000* 
                  ?_DoSignatureCheck 000000                             __Lrparam 000000* 
            __end_of_WriteFlashBlock 0000EA                   __CFG_BOREN$SBORDIS 000000  
                           _ep0BoOdd 000404                             _SetupPkt 000000  
                 ??_DoSignatureCheck 000000              __end_of_WriteConfigBits 000066  
                        ??_ProcessIO 000009                             _UserInit 000000  
            __size_of_BlinkUSBStatus 000000             _EP0OutOddNeedsArmingNext 00003C  
         __size_of_USBCheckBusStatus 000000                       _hid_rpt_rx_len 000041  
            _USBProtocolResetHandler 000000                       ??_DelayRoutine 000002  
                __end_of_USBCBInitEP 000012              __size_of_USBDeviceTasks 000000  
                           __ptext10 000000                             __ptext11 000000  
                           __ptext20 000000                             __ptext12 000000  
                           __ptext21 000000                             __ptext13 000000  
                           __ptext30 000000                             __ptext22 000000  
                           __ptext14 000000                             __ptext31 000000  
                           __ptext23 000000                             __ptext15 000000  
                           __ptext40 000000                             __ptext32 000000  
                           __ptext24 000000                             __ptext16 000000  
                           __ptext41 000000                             __ptext33 000000  
                           __ptext25 000000                             __ptext17 000000  
                           __ptext42 000000                             __ptext34 000000  
                           __ptext26 000000                             __ptext18 000000  
                           __ptext35 000000                             __ptext27 000000  
                           __ptext19 000000                             __ptext36 000000  
                           __ptext28 000000                             __ptext37 000000  
                           __ptext29 000000                             __ptext38 000000  
                           __ptext39 000000                 _USBCBWakeFromSuspend 000000  
                        _OSCCON2bits 000FD2                   _ResetDeviceCleanly 000000  
     __end_of_USBCtrlTrfSetupHandler 00004A                        __size_of_main 000000  
              __size_of_USBCBSuspend 000000                    ?_InitializeSystem 000000  
        __end_of_HIDGetReportHandler 000002                  _USBCtrlTrfInHandler 000000  
                 ??_InitializeSystem 000002                  ?_ResetDeviceCleanly 000000  
                 _FlashSignatureWord 000000                             _usb_stat 000044  
        __p_FlashSignatureWord_const 000000                    _ProgrammedPointer 000008  
           ?_USBDisableWithLongDelay 000000                        _hid_report_in 00046C  
                         _INTCONbits 000FF2                 ?_USBCtrlTrfInHandler 000000  
                   WriteFlashBlock@i 000037                 ??_ResetDeviceCleanly 000002  
                       _USBCBSuspend 000000                ?_USBCBWakeFromSuspend 000000  
             __size_of_USBDeviceInit 000000                    _ProgrammingBuffer 000000  
                   WriteConfigBits@i 000033                    _UnlockAndActivate 000000  
                   ?_WriteFlashBlock 000000                 __CFG_CPUDIV$NOCLKDIV 000000  
                 ?_UnlockAndActivate 000000                     ?_WriteConfigBits 000000  
                        _USBCBInitEP 000000                   _USBWakeFromSuspend 000000  
          ??_USBProtocolResetHandler 000001              _USBStdFeatureReqHandler 000000  
                _HIDSetReportHandler 000000                  _USBCtrlTrfTxService 000000  
                ??_UnlockAndActivate 000000                  ?_USBWakeFromSuspend 000000  
              ??_USBCtrlTrfInHandler 000000                   __CFG_FOSC$INTOSCIO 000000  
               ?_HIDSetReportHandler 000000                 ?_USBCtrlTrfTxService 000000  
               ??_USBWakeFromSuspend 000002            __end_of_UnlockAndActivate 000028  
               __end_of_DelayRoutine 000016                       _usb_active_cfg 000047  
                  _LoadBDTandSetUOWN 000000  
